

Microchip MPLAB XC8 Assembler V2.05 build -831301201 
                                                                                               Sat Jun 15 18:05:55 2019

Microchip MPLAB XC8 C Compiler v2.05 (Free license) build 20181220022703 Og1 
     1                           	processor	18F47J53
     2                           	fnconf	rparam,??,?,0
     3                           	opt	pw 120
     4                           	opt	flic
     5                           	psect	idataBANK0,global,class=CODE,delta=1,noexec
     6                           	psect	smallconst,global,reloc=2,class=SMALLCONST,delta=1,noexec
     7                           	psect	cinit,global,reloc=2,class=CODE,delta=1
     8                           	psect	bssCOMRAM,global,class=COMRAM,space=1,delta=1,noexec
     9                           	psect	bssBANK0,global,class=BANK0,space=1,delta=1,lowdata,noexec
    10                           	psect	dataBANK0,global,class=BANK0,space=1,delta=1,lowdata,noexec
    11                           	psect	cstackBANK0,global,class=BANK0,space=1,delta=1,noexec
    12                           	psect	cstackCOMRAM,global,class=COMRAM,space=1,delta=1,noexec
    13                           	psect	text0,global,reloc=2,class=CODE,delta=1
    14                           	psect	text1,global,reloc=2,class=CODE,delta=1
    15                           	psect	text2,global,reloc=2,class=CODE,delta=1
    16                           	psect	text3,global,reloc=2,class=CODE,delta=1
    17                           	psect	text4,global,reloc=2,class=CODE,delta=1,group=1
    18                           	psect	text5,global,reloc=2,class=CODE,delta=1,group=1
    19                           	psect	text6,global,reloc=2,class=CODE,delta=1,group=1
    20                           	psect	text7,global,reloc=2,class=CODE,delta=1,group=1
    21                           	psect	text8,global,reloc=2,class=CODE,delta=1
    22                           	psect	text9,global,reloc=2,class=CODE,delta=1,group=2
    23                           	psect	text10,global,reloc=2,class=CODE,delta=1
    24                           	psect	text11,global,reloc=2,class=CODE,delta=1
    25                           	psect	text12,global,reloc=2,class=CODE,delta=1
    26                           	psect	text13,global,reloc=2,class=CODE,delta=1,group=1
    27                           	psect	text14,global,reloc=2,class=CODE,delta=1,group=1
    28                           	psect	text15,global,reloc=2,class=CODE,delta=1
    29                           	psect	text16,global,reloc=2,class=CODE,delta=1
    30                           	psect	text17,global,reloc=2,class=CODE,delta=1,group=2
    31                           	psect	text18,global,reloc=2,class=CODE,delta=1,group=2
    32                           	psect	text19,global,reloc=2,class=CODE,delta=1,group=2
    33                           	psect	text20,global,reloc=2,class=CODE,delta=1,group=2
    34                           	psect	text21,global,reloc=2,class=CODE,delta=1,group=2
    35                           	psect	text22,global,reloc=2,class=CODE,delta=1,group=2
    36                           	psect	text23,global,reloc=2,class=CODE,delta=1,group=2
    37                           	psect	text24,global,reloc=2,class=CODE,delta=1,group=1
    38                           	psect	text25,global,reloc=2,class=CODE,delta=1
    39                           	psect	text26,global,reloc=2,class=CODE,delta=1
    40                           	psect	text27,global,reloc=2,class=CODE,delta=1
    41                           	psect	text28,global,reloc=2,class=CODE,delta=1
    42                           	psect	text29,global,reloc=2,class=CODE,delta=1
    43                           	psect	text30,global,reloc=2,class=CODE,delta=1
    44                           	psect	text31,global,reloc=2,class=CODE,delta=1
    45                           	psect	text32,global,reloc=2,class=CODE,delta=1
    46                           	psect	intcode,global,reloc=2,class=CODE,delta=1
    47                           	psect	intsave_regs,global,class=BIGRAM,space=1,delta=1,noexec
    48                           	psect	rparam,global,class=COMRAM,space=1,delta=1,noexec
    49                           	psect	temp,global,ovrld,common,class=COMRAM,space=1,delta=1
    50  0000                     
    51                           ; Version 2.05
    52                           ; Generated 20/12/2018 GMT
    53                           ; 
    54                           ; Copyright © 2018, Microchip Technology Inc. and its subsidiaries ("Microchip")
    55                           ; All rights reserved.
    56                           ; 
    57                           ; This software is developed by Microchip Technology Inc. and its subsidiaries ("Microch
      +                          ip").
    58                           ; 
    59                           ; Redistribution and use in source and binary forms, with or without modification, are
    60                           ; permitted provided that the following conditions are met:
    61                           ; 
    62                           ;     1. Redistributions of source code must retain the above copyright notice, this lis
      +                          t of
    63                           ;        conditions and the following disclaimer.
    64                           ; 
    65                           ;     2. Redistributions in binary form must reproduce the above copyright notice, this 
      +                          list
    66                           ;        of conditions and the following disclaimer in the documentation and/or other
    67                           ;        materials provided with the distribution.
    68                           ; 
    69                           ;     3. Microchip's name may not be used to endorse or promote products derived from th
      +                          is
    70                           ;        software without specific prior written permission.
    71                           ; 
    72                           ; THIS SOFTWARE IS PROVIDED BY MICROCHIP "AS IS" AND ANY EXPRESS OR IMPLIED WARRANTIES,
    73                           ; INCLUDING, BUT NOT LIMITED TO, THE IMPLIED WARRANTIES OF MERCHANTABILITY AND FITNESS F
      +                          OR
    74                           ; PURPOSE ARE DISCLAIMED.  IN NO EVENT SHALL MICROCHIP BE LIABLE FOR ANY DIRECT, INDIREC
      +                          T,
    75                           ; INCIDENTAL, SPECIAL, EXEMPLARY, OR CONSEQUENTIAL DAMAGES (INCLUDING BUT NOT LIMITED TO
    76                           ; PROCUREMENT OF SUBSTITUTE GOODS OR SERVICES; LOSS OF USE, DATA OR PROFITS; OR BUSINESS
    77                           ; INTERRUPTION) HOWSOEVER CAUSED AND ON ANY THEORY OF LIABILITY, WHETHER IN CONTRACT, ST
      +                          RICT
    78                           ; LIABILITY, OR TORT (INCLUDING NEGLIGENCE OR OTHERWISE) ARISING IN ANY WAY OUT OF THE U
      +                          SE OF
    79                           ; THIS SOFTWARE, EVEN IF ADVISED OF THE POSSIBILITY OF SUCH DAMAGE.
    80                           ; 
    81                           ; 
    82                           ; Code-generator required, PIC18F47J53 Definitions
    83                           ; 
    84                           ; SFR Addresses
    85  0000                     
    86                           	psect	idataBANK0
    87  002658                     __pidataBANK0:
    88                           	opt callstack 0
    89                           
    90                           ;initializer for _TIME_MAX
    91  002658  00B9               	dw	185
    92                           
    93                           ;initializer for _cicle_90
    94  00265A  01C2               	dw	450
    95  0000                     _ANCON0bits	set	3912
    96  0000                     _T5CONbits	set	3874
    97  0000                     _CCPR7L	set	3850
    98  0000                     _TMR5L	set	3875
    99  0000                     _TMR5H	set	3876
   100  0000                     _T5CON	set	3874
   101  0000                     _CCPTMRS1bits	set	3921
   102  0000                     _CCP7CONbits	set	3849
   103  0000                     _ANCON1	set	3913
   104  0000                     _ANCON0	set	3912
   105  0000                     _ADRES	set	4035
   106  0000                     _ADCON1	set	4033
   107  0000                     _ADCON0	set	4034
   108  0000                     _TRISEbits	set	3990
   109  0000                     _ADCON0bits	set	4034
   110  0000                     _RCREG1	set	4015
   111  0000                     _TXREG1	set	4014
   112  0000                     _T2CONbits	set	4042
   113  0000                     _PIR5bits	set	3992
   114  0000                     _PIE5bits	set	3985
   115  0000                     _PORTDbits	set	3971
   116  0000                     _TRISDbits	set	3989
   117  0000                     _PIE1bits	set	3997
   118  0000                     _PIR1bits	set	3998
   119  0000                     _SPBRG1	set	4016
   120  0000                     _BAUDCON1bits	set	3966
   121  0000                     _RCSTA1	set	4012
   122  0000                     _TXSTA1	set	4013
   123  0000                     _TRISCbits	set	3988
   124  0000                     _TMR2	set	4044
   125  0000                     _PR2	set	4043
   126  0000                     _T2CON	set	4042
   127  0000                     _INTCON2bits	set	4081
   128  0000                     _INTCONbits	set	4082
   129  0000                     _TRISBbits	set	3987
   130                           
   131                           	psect	smallconst
   132  000F00                     __psmallconst:
   133                           	opt callstack 0
   134  000F00  00                 	db	0
   135  000F01                     STR_1:
   136  000F01  25                 	db	37
   137  000F02  30                 	db	48	;'0'
   138  000F03  34                 	db	52	;'4'
   139  000F04  75                 	db	117	;'u'
   140  000F05  25                 	db	37
   141  000F06  63                 	db	99	;'c'
   142  000F07  00                 	db	0
   143                           
   144                           ; #config settings
   145  000F08  00                 	db	0	; dummy byte at the end
   146  0000                     
   147                           	psect	cinit
   148  002490                     __pcinit:
   149                           	opt callstack 0
   150  002490                     start_initialization:
   151                           	opt callstack 0
   152  002490                     __initialization:
   153                           	opt callstack 0
   154                           
   155                           ; Initialize objects allocated to BANK0 (4 bytes)
   156                           ; load TBLPTR registers with __pidataBANK0
   157  002490  0E58               	movlw	low __pidataBANK0
   158  002492  6EF6               	movwf	tblptrl,c
   159  002494  0E26               	movlw	high __pidataBANK0
   160  002496  6EF7               	movwf	tblptrh,c
   161  002498  0E00               	movlw	low (__pidataBANK0 shr (0+16))
   162  00249A  6EF8               	movwf	tblptru,c
   163  00249C  EE00  F0F3         	lfsr	0,__pdataBANK0
   164  0024A0  EE10 F004          	lfsr	1,4
   165  0024A4                     copy_data0:
   166  0024A4  0009               	tblrd		*+
   167  0024A6  CFF5 FFEE          	movff	tablat,postinc0
   168  0024AA  50E5               	movf	postdec1,w,c
   169  0024AC  50E1               	movf	fsr1l,w,c
   170  0024AE  E1FA               	bnz	copy_data0
   171                           
   172                           ; Clear objects allocated to BANK0 (100 bytes)
   173  0024B0  EE00  F060         	lfsr	0,__pbssBANK0
   174  0024B4  0E64               	movlw	100
   175  0024B6                     clear_0:
   176  0024B6  6AEE               	clrf	postinc0,c
   177  0024B8  06E8               	decf	wreg,f,c
   178  0024BA  E1FD               	bnz	clear_0
   179                           
   180                           ; Clear objects allocated to COMRAM (3 bytes)
   181  0024BC  6A5A               	clrf	(__pbssCOMRAM+2)& (0+255),c
   182  0024BE  6A59               	clrf	(__pbssCOMRAM+1)& (0+255),c
   183  0024C0  6A58               	clrf	__pbssCOMRAM& (0+255),c
   184  0024C2                     end_of_initialization:
   185                           	opt callstack 0
   186  0024C2                     __end_of__initialization:
   187                           	opt callstack 0
   188  0024C2  905B               	bcf	int$flags,0,c	;clear compiler interrupt flag (level 1)
   189  0024C4  925B               	bcf	int$flags,1,c	;clear compiler interrupt flag (level 2)
   190  0024C6  0100               	movlb	0
   191  0024C8  EFEE  F00E         	goto	_main	;jump to C main() function
   192                           
   193                           	psect	bssCOMRAM
   194  000058                     __pbssCOMRAM:
   195                           	opt callstack 0
   196  000058                     _width:
   197                           	opt callstack 0
   198  000058                     	ds	2
   199  00005A                     _indicador:
   200                           	opt callstack 0
   201  00005A                     	ds	1
   202                           
   203                           	psect	bssBANK0
   204  000060                     __pbssBANK0:
   205                           	opt callstack 0
   206  000060                     	ds	20
   207  000074                     	ds	20
   208  000088                     _nout:
   209                           	opt callstack 0
   210  000088                     	ds	2
   211  00008A                     _prec:
   212                           	opt callstack 0
   213  00008A                     	ds	2
   214  00008C                     _flags:
   215                           	opt callstack 0
   216  00008C                     	ds	2
   217  00008E                     _bandera_servo:
   218                           	opt callstack 0
   219  00008E                     	ds	2
   220  000090                     _contador_timer_5:
   221                           	opt callstack 0
   222  000090                     	ds	2
   223  000092                     _bandera_adc:
   224                           	opt callstack 0
   225  000092                     	ds	2
   226  000094                     _medicion_adc:
   227                           	opt callstack 0
   228  000094                     	ds	2
   229  000096                     _velocidad:
   230                           	opt callstack 0
   231  000096                     	ds	2
   232  000098                     _obstaculo:
   233                           	opt callstack 0
   234  000098                     	ds	1
   235  000099                     _bandera:
   236                           	opt callstack 0
   237  000099                     	ds	1
   238  00009A                     _dbuf:
   239                           	opt callstack 0
   240  00009A                     	ds	32
   241  0000BA                     _datos:
   242                           	opt callstack 0
   243  0000BA                     	ds	10
   244                           
   245                           	psect	dataBANK0
   246  0000F3                     __pdataBANK0:
   247                           	opt callstack 0
   248  0000F3                     _TIME_MAX:
   249                           	opt callstack 0
   250  0000F3                     	ds	2
   251  0000F5                     _cicle_90:
   252                           	opt callstack 0
   253  0000F5                     	ds	2
   254                           
   255                           	psect	cstackBANK0
   256  0000C4                     __pcstackBANK0:
   257                           	opt callstack 0
   258  0000C4                     ?_vfprintf:
   259                           	opt callstack 0
   260  0000C4                     vfprintf@fp:
   261                           	opt callstack 0
   262  0000C4                     terminal@texto:
   263                           	opt callstack 0
   264                           
   265                           ; 20 bytes @ 0x0
   266  0000C4                     	ds	2
   267  0000C6                     vfprintf@fmt:
   268                           	opt callstack 0
   269                           
   270                           ; 2 bytes @ 0x2
   271  0000C6                     	ds	2
   272  0000C8                     vfprintf@ap:
   273                           	opt callstack 0
   274                           
   275                           ; 2 bytes @ 0x4
   276  0000C8                     	ds	2
   277  0000CA                     ?_sprintf:
   278                           	opt callstack 0
   279  0000CA                     sprintf@s:
   280                           	opt callstack 0
   281                           
   282                           ; 2 bytes @ 0x6
   283  0000CA                     	ds	2
   284  0000CC                     sprintf@fmt:
   285                           	opt callstack 0
   286                           
   287                           ; 2 bytes @ 0x8
   288  0000CC                     	ds	8
   289  0000D4                     sprintf@ap:
   290                           	opt callstack 0
   291                           
   292                           ; 2 bytes @ 0x10
   293  0000D4                     	ds	2
   294  0000D6                     sprintf@f:
   295                           	opt callstack 0
   296                           
   297                           ; 6 bytes @ 0x12
   298  0000D6                     	ds	2
   299  0000D8                     terminal@medicion:
   300                           	opt callstack 0
   301                           
   302                           ; 2 bytes @ 0x14
   303  0000D8                     	ds	4
   304  0000DC                     ??_main:
   305                           
   306                           ; 1 bytes @ 0x18
   307  0000DC                     	ds	2
   308  0000DE                     main@text_adc:
   309                           	opt callstack 0
   310                           
   311                           ; 20 bytes @ 0x1A
   312  0000DE                     	ds	20
   313  0000F2                     main@tiempo_anterior_1:
   314                           	opt callstack 0
   315                           
   316                           ; 1 bytes @ 0x2E
   317  0000F2                     	ds	1
   318                           
   319                           	psect	cstackCOMRAM
   320  000001                     __pcstackCOMRAM:
   321                           	opt callstack 0
   322  000001                     ??_rutina:
   323  000001                     
   324                           ; 1 bytes @ 0x0
   325  000001                     	ds	2
   326  000003                     rutina@dato:
   327                           	opt callstack 0
   328                           
   329                           ; 1 bytes @ 0x2
   330  000003                     	ds	1
   331  000004                     ??_dirreccion:
   332  000004                     ?_strlen:
   333                           	opt callstack 0
   334  000004                     ?_isdigit:
   335                           	opt callstack 0
   336  000004                     ?_isspace:
   337                           	opt callstack 0
   338  000004                     ?___wmul:
   339                           	opt callstack 0
   340  000004                     ?___xxtofl:
   341                           	opt callstack 0
   342  000004                     ?___lodiv:
   343                           	opt callstack 0
   344  000004                     ?___lomod:
   345                           	opt callstack 0
   346  000004                     enviarRS232@valores:
   347                           	opt callstack 0
   348  000004                     ___wmul@multiplier:
   349                           	opt callstack 0
   350  000004                     isdigit@c:
   351                           	opt callstack 0
   352  000004                     isspace@c:
   353                           	opt callstack 0
   354  000004                     fputc@c:
   355                           	opt callstack 0
   356  000004                     strlen@s:
   357                           	opt callstack 0
   358  000004                     ___xxtofl@val:
   359                           	opt callstack 0
   360  000004                     ___lodiv@dividend:
   361                           	opt callstack 0
   362  000004                     ___lomod@dividend:
   363                           	opt callstack 0
   364                           
   365                           ; 8 bytes @ 0x3
   366  000004                     	ds	2
   367  000006                     ??_isdigit:
   368  000006                     ??_isspace:
   369  000006                     enviarRS232@numero_valores:
   370                           	opt callstack 0
   371  000006                     dirreccion@degree:
   372                           	opt callstack 0
   373  000006                     ___wmul@multiplicand:
   374                           	opt callstack 0
   375  000006                     fputc@fp:
   376                           	opt callstack 0
   377  000006                     strlen@a:
   378                           	opt callstack 0
   379                           
   380                           ; 2 bytes @ 0x5
   381  000006                     	ds	1
   382  000007                     ??_enviarRS232:
   383  000007                     dirreccion@tiempo_1:
   384                           	opt callstack 0
   385                           
   386                           ; 1 bytes @ 0x6
   387  000007                     	ds	1
   388  000008                     ??_fputc:
   389  000008                     ??___xxtofl:
   390  000008                     enviarRS232@i:
   391                           	opt callstack 0
   392  000008                     ___wmul@product:
   393                           	opt callstack 0
   394                           
   395                           ; 2 bytes @ 0x7
   396  000008                     	ds	2
   397  00000A                     _isspace$1457:
   398                           	opt callstack 0
   399                           
   400                           ; 1 bytes @ 0x9
   401  00000A                     	ds	1
   402  00000B                     ?_atoi:
   403                           	opt callstack 0
   404  00000B                     atoi@s:
   405                           	opt callstack 0
   406                           
   407                           ; 2 bytes @ 0xA
   408  00000B                     	ds	1
   409  00000C                     ___xxtofl@sign:
   410                           	opt callstack 0
   411  00000C                     ___lodiv@divisor:
   412                           	opt callstack 0
   413  00000C                     ___lomod@divisor:
   414                           	opt callstack 0
   415                           
   416                           ; 8 bytes @ 0xB
   417  00000C                     	ds	1
   418  00000D                     ??_atoi:
   419  00000D                     ___xxtofl@exp:
   420                           	opt callstack 0
   421  00000D                     fputs@s:
   422                           	opt callstack 0
   423                           
   424                           ; 2 bytes @ 0xC
   425  00000D                     	ds	1
   426  00000E                     ___xxtofl@arg:
   427                           	opt callstack 0
   428                           
   429                           ; 4 bytes @ 0xD
   430  00000E                     	ds	1
   431  00000F                     fputs@fp:
   432                           	opt callstack 0
   433                           
   434                           ; 2 bytes @ 0xE
   435  00000F                     	ds	2
   436  000011                     fputs@c:
   437                           	opt callstack 0
   438  000011                     atoi@neg:
   439                           	opt callstack 0
   440                           
   441                           ; 2 bytes @ 0x10
   442  000011                     	ds	1
   443  000012                     ?___flmul:
   444                           	opt callstack 0
   445  000012                     fputs@i:
   446                           	opt callstack 0
   447  000012                     ___flmul@b:
   448                           	opt callstack 0
   449                           
   450                           ; 4 bytes @ 0x11
   451  000012                     	ds	1
   452  000013                     _atoi$1439:
   453                           	opt callstack 0
   454                           
   455                           ; 2 bytes @ 0x12
   456  000013                     	ds	1
   457  000014                     ?_pad:
   458                           	opt callstack 0
   459  000014                     ___lomod@counter:
   460                           	opt callstack 0
   461  000014                     pad@fp:
   462                           	opt callstack 0
   463  000014                     ___lodiv@quotient:
   464                           	opt callstack 0
   465                           
   466                           ; 8 bytes @ 0x13
   467  000014                     	ds	1
   468  000015                     _atoi$1441:
   469                           	opt callstack 0
   470                           
   471                           ; 2 bytes @ 0x14
   472  000015                     	ds	1
   473  000016                     pad@buf:
   474                           	opt callstack 0
   475  000016                     ___flmul@a:
   476                           	opt callstack 0
   477                           
   478                           ; 4 bytes @ 0x15
   479  000016                     	ds	1
   480  000017                     _atoi$1440:
   481                           	opt callstack 0
   482                           
   483                           ; 1 bytes @ 0x16
   484  000017                     	ds	1
   485  000018                     pad@p:
   486                           	opt callstack 0
   487  000018                     atoi@n:
   488                           	opt callstack 0
   489                           
   490                           ; 2 bytes @ 0x17
   491  000018                     	ds	2
   492  00001A                     ??___flmul:
   493  00001A                     ??_pad:
   494                           
   495                           ; 1 bytes @ 0x19
   496  00001A                     	ds	1
   497  00001B                     pad@i:
   498                           	opt callstack 0
   499                           
   500                           ; 2 bytes @ 0x1A
   501  00001B                     	ds	1
   502  00001C                     ___lodiv@counter:
   503                           	opt callstack 0
   504                           
   505                           ; 1 bytes @ 0x1B
   506  00001C                     	ds	1
   507  00001D                     pad@w:
   508                           	opt callstack 0
   509                           
   510                           ; 2 bytes @ 0x1C
   511  00001D                     	ds	1
   512  00001E                     ___flmul@sign:
   513                           	opt callstack 0
   514                           
   515                           ; 1 bytes @ 0x1D
   516  00001E                     	ds	1
   517  00001F                     ?_ctoa:
   518                           	opt callstack 0
   519  00001F                     ?_utoa:
   520                           	opt callstack 0
   521  00001F                     ctoa@fp:
   522                           	opt callstack 0
   523  00001F                     utoa@fp:
   524                           	opt callstack 0
   525  00001F                     ___flmul@grs:
   526                           	opt callstack 0
   527                           
   528                           ; 4 bytes @ 0x1E
   529  00001F                     	ds	2
   530  000021                     ctoa@c:
   531                           	opt callstack 0
   532  000021                     utoa@d:
   533                           	opt callstack 0
   534                           
   535                           ; 8 bytes @ 0x20
   536  000021                     	ds	1
   537  000022                     ctoa@w:
   538                           	opt callstack 0
   539                           
   540                           ; 2 bytes @ 0x21
   541  000022                     	ds	1
   542  000023                     ___flmul@aexp:
   543                           	opt callstack 0
   544                           
   545                           ; 1 bytes @ 0x22
   546  000023                     	ds	1
   547  000024                     ___flmul@bexp:
   548                           	opt callstack 0
   549                           
   550                           ; 1 bytes @ 0x23
   551  000024                     	ds	1
   552  000025                     ___flmul@prod:
   553                           	opt callstack 0
   554                           
   555                           ; 4 bytes @ 0x24
   556  000025                     	ds	4
   557  000029                     ??_utoa:
   558  000029                     ___flmul@temp:
   559                           	opt callstack 0
   560                           
   561                           ; 2 bytes @ 0x28
   562  000029                     	ds	2
   563  00002B                     ?___fladd:
   564                           	opt callstack 0
   565  00002B                     ?___fltol:
   566                           	opt callstack 0
   567  00002B                     ___fltol@f1:
   568                           	opt callstack 0
   569  00002B                     ___fladd@b:
   570                           	opt callstack 0
   571                           
   572                           ; 4 bytes @ 0x2A
   573  00002B                     	ds	4
   574  00002F                     ??___fltol:
   575  00002F                     ___fladd@a:
   576                           	opt callstack 0
   577                           
   578                           ; 4 bytes @ 0x2E
   579  00002F                     	ds	2
   580  000031                     utoa@p:
   581                           	opt callstack 0
   582                           
   583                           ; 2 bytes @ 0x30
   584  000031                     	ds	2
   585  000033                     ??___fladd:
   586  000033                     ___fltol@sign1:
   587                           	opt callstack 0
   588  000033                     utoa@w:
   589                           	opt callstack 0
   590                           
   591                           ; 2 bytes @ 0x32
   592  000033                     	ds	1
   593  000034                     ___fltol@exp1:
   594                           	opt callstack 0
   595                           
   596                           ; 1 bytes @ 0x33
   597  000034                     	ds	1
   598  000035                     utoa@n:
   599                           	opt callstack 0
   600                           
   601                           ; 8 bytes @ 0x34
   602  000035                     	ds	2
   603  000037                     ___fladd@signs:
   604                           	opt callstack 0
   605                           
   606                           ; 1 bytes @ 0x36
   607  000037                     	ds	1
   608  000038                     ___fladd@aexp:
   609                           	opt callstack 0
   610                           
   611                           ; 1 bytes @ 0x37
   612  000038                     	ds	1
   613  000039                     ___fladd@bexp:
   614                           	opt callstack 0
   615                           
   616                           ; 1 bytes @ 0x38
   617  000039                     	ds	1
   618  00003A                     ___fladd@grs:
   619                           	opt callstack 0
   620                           
   621                           ; 1 bytes @ 0x39
   622  00003A                     	ds	1
   623  00003B                     fijarVelocidad@DC:
   624                           	opt callstack 0
   625                           
   626                           ; 4 bytes @ 0x3A
   627  00003B                     	ds	2
   628  00003D                     utoa@i:
   629                           	opt callstack 0
   630                           
   631                           ; 2 bytes @ 0x3C
   632  00003D                     	ds	2
   633  00003F                     ?_vfpfcnvrt:
   634                           	opt callstack 0
   635  00003F                     vfpfcnvrt@fp:
   636                           	opt callstack 0
   637  00003F                     _fijarVelocidad$1725:
   638                           	opt callstack 0
   639                           
   640                           ; 4 bytes @ 0x3E
   641  00003F                     	ds	2
   642  000041                     vfpfcnvrt@fmt:
   643                           	opt callstack 0
   644                           
   645                           ; 2 bytes @ 0x40
   646  000041                     	ds	2
   647  000043                     fijarVelocidad@speed:
   648                           	opt callstack 0
   649  000043                     vfpfcnvrt@ap:
   650                           	opt callstack 0
   651                           
   652                           ; 2 bytes @ 0x42
   653  000043                     	ds	1
   654  000044                     terminal@comand:
   655                           	opt callstack 0
   656                           
   657                           ; 2 bytes @ 0x43
   658  000044                     	ds	1
   659  000045                     ??_vfpfcnvrt:
   660                           
   661                           ; 1 bytes @ 0x44
   662  000045                     	ds	1
   663  000046                     ??_terminal:
   664                           
   665                           ; 1 bytes @ 0x45
   666  000046                     	ds	3
   667  000049                     vfpfcnvrt@llu:
   668                           	opt callstack 0
   669                           
   670                           ; 8 bytes @ 0x48
   671  000049                     	ds	8
   672  000051                     vfpfcnvrt@c:
   673                           	opt callstack 0
   674                           
   675                           ; 1 bytes @ 0x50
   676  000051                     	ds	1
   677  000052                     vfpfcnvrt@done:
   678                           	opt callstack 0
   679                           
   680                           ; 2 bytes @ 0x51
   681  000052                     	ds	2
   682  000054                     _vfpfcnvrt$983:
   683                           	opt callstack 0
   684                           
   685                           ; 2 bytes @ 0x53
   686  000054                     	ds	2
   687  000056                     vfprintf@cfmt:
   688                           	opt callstack 0
   689                           
   690                           ; 2 bytes @ 0x55
   691  000056                     	ds	2
   692  000058                     
   693                           ; 1 bytes @ 0x57
   694 ;;
   695 ;;Main: autosize = 0, tempsize = 2, incstack = 0, save=0
   696 ;;
   697 ;; *************** function _main *****************
   698 ;; Defined at:
   699 ;;		line 70 in file "sensores.c"
   700 ;; Parameters:    Size  Location     Type
   701 ;;		None
   702 ;; Auto vars:     Size  Location     Type
   703 ;;  text_adc       20   26[BANK0 ] unsigned char [20]
   704 ;;  tiempo_anter    1   46[BANK0 ] unsigned char 
   705 ;; Return value:  Size  Location     Type
   706 ;;                  1    wreg      void 
   707 ;; Registers used:
   708 ;;		wreg, fsr1l, fsr1h, fsr2l, fsr2h, status,2, status,0, tblptrl, tblptrh, tblptru, prodl, prodh, cstack
   709 ;; Tracked objects:
   710 ;;		On entry : 0/0
   711 ;;		On exit  : 0/0
   712 ;;		Unchanged: 0/0
   713 ;; Data sizes:     COMRAM   BANK0   BANK1   BANK2   BANK3   BANK4   BANK5   BANK6   BANK7   BANK8   BANK9  BANK10  BANK1
      +1  BANK12  BANK13  BANK14
   714 ;;      Params:         0       0       0       0       0       0       0       0       0       0       0       0       
      +0       0       0       0
   715 ;;      Locals:         0      21       0       0       0       0       0       0       0       0       0       0       
      +0       0       0       0
   716 ;;      Temps:          0       2       0       0       0       0       0       0       0       0       0       0       
      +0       0       0       0
   717 ;;      Totals:         0      23       0       0       0       0       0       0       0       0       0       0       
      +0       0       0       0
   718 ;;Total ram usage:       23 bytes
   719 ;; Hardware stack levels required when called:    9
   720 ;; This function calls:
   721 ;;		_configuracionInicial
   722 ;;		_enviarRS232
   723 ;;		_frenarMotor
   724 ;;		_sprintf
   725 ;;		_terminal
   726 ;; This function is called by:
   727 ;;		Startup code after reset
   728 ;; This function uses a non-reentrant model
   729 ;;
   730                           
   731                           	psect	text0
   732  001DDC                     __ptext0:
   733                           	opt callstack 0
   734  001DDC                     _main:
   735                           	opt callstack 22
   736                           
   737                           ;sensores.c: 71:     unsigned char text_adc[20] = {'\0'}, tiempo_anterior_1 = 15;
   738                           
   739                           ;incstack = 0
   740  001DDC  EE20  F0DE         	lfsr	2,main@text_adc
   741  001DE0  0E13               	movlw	19
   742  001DE2                     u3261:
   743  001DE2  6ADE               	clrf	postinc2,c
   744  001DE4  06E8               	decf	wreg,f,c
   745  001DE6  E2FD               	bc	u3261
   746  001DE8  0E0F               	movlw	15
   747  001DEA  0100               	movlb	0	; () banked
   748  001DEC  6FF2               	movwf	main@tiempo_anterior_1& (0+255),b
   749                           
   750                           ; BSR set to: 0
   751                           ;sensores.c: 72:     configuracionInicial();
   752  001DEE  ECEA  F012         	call	_configuracionInicial	;wreg free
   753                           
   754                           ;sensores.c: 73:     T5CONbits.TMR5ON = 1;
   755  001DF2  010F               	movlb	15	; () banked
   756  001DF4  8122               	bsf	34,0,b	;volatile
   757  001DF6                     l3464:
   758                           
   759                           ;sensores.c: 75:         if(bandera == 1){
   760  001DF6  0100               	movlb	0	; () banked
   761  001DF8  0599               	decf	_bandera& (0+255),w,b
   762  001DFA  A4D8               	btfss	status,2,c
   763  001DFC  D008               	goto	l3470
   764                           
   765                           ; BSR set to: 0
   766                           ;sensores.c: 76:             bandera = 0;
   767  001DFE  0E00               	movlw	0
   768  001E00  6F99               	movwf	_bandera& (0+255),b
   769                           
   770                           ; BSR set to: 0
   771                           ;sensores.c: 77:             terminal(datos);
   772  001E02  0EBA               	movlw	low _datos
   773  001E04  6E44               	movwf	terminal@comand,c
   774  001E06  0E00               	movlw	high _datos
   775  001E08  6E45               	movwf	terminal@comand+1,c
   776  001E0A  ECC4  F00F         	call	_terminal	;wreg free
   777  001E0E                     l3470:
   778                           
   779                           ;sensores.c: 79:         if(bandera_adc == 1){
   780  001E0E  0100               	movlb	0	; () banked
   781  001E10  0592               	decf	_bandera_adc& (0+255),w,b
   782  001E12  1193               	iorwf	(_bandera_adc+1)& (0+255),w,b
   783  001E14  A4D8               	btfss	status,2,c
   784  001E16  D02C               	goto	l3482
   785                           
   786                           ; BSR set to: 0
   787                           ;sensores.c: 80:             bandera_adc = 0;
   788  001E18  0E00               	movlw	0
   789  001E1A  6F93               	movwf	(_bandera_adc+1)& (0+255),b
   790  001E1C  0E00               	movlw	0
   791  001E1E  6F92               	movwf	_bandera_adc& (0+255),b
   792                           
   793                           ; BSR set to: 0
   794                           ;sensores.c: 81:             sprintf(text_adc, "%04u%c", medicion_adc,0x0D);
   795  001E20  0EDE               	movlw	low main@text_adc
   796  001E22  6FCA               	movwf	sprintf@s& (0+255),b
   797  001E24  0E00               	movlw	high main@text_adc
   798  001E26  6FCB               	movwf	(sprintf@s+1)& (0+255),b
   799  001E28  0E01               	movlw	low STR_1
   800  001E2A  6FCC               	movwf	sprintf@fmt& (0+255),b
   801  001E2C  0E0F               	movlw	high STR_1
   802  001E2E  6FCD               	movwf	(sprintf@fmt+1)& (0+255),b
   803  001E30  C094  F0CE         	movff	_medicion_adc,?_sprintf+4
   804  001E34  C095  F0CF         	movff	_medicion_adc+1,?_sprintf+5
   805  001E38  0E00               	movlw	0
   806  001E3A  6FD1               	movwf	(?_sprintf+7)& (0+255),b
   807  001E3C  0E0D               	movlw	13
   808  001E3E  6FD0               	movwf	(?_sprintf+6)& (0+255),b
   809  001E40  ECD9  F011         	call	_sprintf	;wreg free
   810                           
   811                           ;sensores.c: 82:             enviarRS232(text_adc, 4);
   812  001E44  0EDE               	movlw	low main@text_adc
   813  001E46  6E04               	movwf	enviarRS232@valores,c
   814  001E48  0E00               	movlw	high main@text_adc
   815  001E4A  6E05               	movwf	enviarRS232@valores+1,c
   816  001E4C  0E04               	movlw	4
   817  001E4E  6E06               	movwf	enviarRS232@numero_valores,c
   818  001E50  EC9A  F012         	call	_enviarRS232	;wreg free
   819                           
   820                           ;sensores.c: 83:             _delay((unsigned long)((500)*(48000000/4000.0)));
   821  001E54  0E1F               	movlw	31
   822  001E56  0100               	movlb	0	; () banked
   823  001E58  6FDD               	movwf	(??_main+1)& (0+255),b
   824  001E5A  0E71               	movlw	113
   825  001E5C  6FDC               	movwf	??_main& (0+255),b
   826  001E5E  0E1E               	movlw	30
   827  001E60                     u3327:
   828  001E60  2EE8               	decfsz	wreg,f,c
   829  001E62  D7FE               	bra	u3327
   830  001E64  2FDC               	decfsz	??_main& (0+255),f,b
   831  001E66  D7FC               	bra	u3327
   832  001E68  2FDD               	decfsz	(??_main+1)& (0+255),f,b
   833  001E6A  D7FA               	bra	u3327
   834  001E6C  F000               	nop	
   835                           
   836                           ;sensores.c: 84:             ADCON0bits.GO_DONE = 1;
   837  001E6E  82C2               	bsf	4034,1,c	;volatile
   838  001E70                     l3482:
   839                           
   840                           ;sensores.c: 86:         if(bandera_servo == 1){
   841  001E70  0100               	movlb	0	; () banked
   842  001E72  058E               	decf	_bandera_servo& (0+255),w,b
   843  001E74  118F               	iorwf	(_bandera_servo+1)& (0+255),w,b
   844  001E76  A4D8               	btfss	status,2,c
   845  001E78  D016               	goto	l3492
   846                           
   847                           ; BSR set to: 0
   848                           ;sensores.c: 87:             bandera_servo = 0;
   849  001E7A  0E00               	movlw	0
   850  001E7C  6F8F               	movwf	(_bandera_servo+1)& (0+255),b
   851  001E7E  0E00               	movlw	0
   852  001E80  6F8E               	movwf	_bandera_servo& (0+255),b
   853                           
   854                           ; BSR set to: 0
   855                           ;sensores.c: 88:             if(PORTDbits.RD4 == 1){
   856  001E82  A883               	btfss	3971,4,c	;volatile
   857  001E84  D00C               	goto	l169
   858                           
   859                           ; BSR set to: 0
   860                           ;sensores.c: 89:                 PORTDbits.RD4 = 0;
   861  001E86  9883               	bcf	3971,4,c	;volatile
   862                           
   863                           ;sensores.c: 90:                 tiempo_anterior_1 = TIME_MAX;
   864  001E88  C0F3  F0F2         	movff	_TIME_MAX,main@tiempo_anterior_1
   865                           
   866                           ; BSR set to: 0
   867                           ;sensores.c: 91:                 TIME_MAX = 200 - tiempo_anterior_1;
   868  001E8C  51F2               	movf	main@tiempo_anterior_1& (0+255),w,b
   869  001E8E  08C8               	sublw	200
   870  001E90  6FF3               	movwf	_TIME_MAX& (0+255),b
   871  001E92  0E00               	movlw	0
   872  001E94  A0D8               	btfss	status,0,c
   873  001E96  2AE8               	incf	wreg,f,c
   874  001E98  0800               	sublw	0
   875  001E9A  6FF4               	movwf	(_TIME_MAX+1)& (0+255),b
   876                           
   877                           ;sensores.c: 92:             }
   878  001E9C  D004               	goto	l3492
   879  001E9E                     l169:
   880                           
   881                           ; BSR set to: 0
   882                           ;sensores.c: 94:                 PORTDbits.RD4 = 1;
   883  001E9E  8883               	bsf	3971,4,c	;volatile
   884                           
   885                           ;sensores.c: 95:                 TIME_MAX = tiempo_anterior_1;
   886  001EA0  C0F2  F0F3         	movff	main@tiempo_anterior_1,_TIME_MAX
   887  001EA4  6BF4               	clrf	(_TIME_MAX+1)& (0+255),b
   888  001EA6                     l3492:
   889                           
   890                           ; BSR set to: 0
   891                           ;sensores.c: 98:         if(obstaculo == 1){
   892  001EA6  0598               	decf	_obstaculo& (0+255),w,b
   893  001EA8  A4D8               	btfss	status,2,c
   894  001EAA  D7A5               	goto	l3464
   895                           
   896                           ; BSR set to: 0
   897                           ;sensores.c: 99:             obstaculo = 0;
   898  001EAC  0E00               	movlw	0
   899  001EAE  6F98               	movwf	_obstaculo& (0+255),b
   900                           
   901                           ;sensores.c: 100:             TXREG1 = 'K';
   902  001EB0  0E4B               	movlw	75
   903  001EB2  6EAE               	movwf	4014,c	;volatile
   904                           
   905                           ; BSR set to: 0
   906                           ;sensores.c: 101:             frenarMotor();
   907  001EB4  EC18  F013         	call	_frenarMotor	;wreg free
   908  001EB8  D79E               	goto	l3464
   909  001EBA                     __end_of_main:
   910                           	opt callstack 0
   911                           
   912 ;; *************** function _terminal *****************
   913 ;; Defined at:
   914 ;;		line 125 in file "sensores.c"
   915 ;; Parameters:    Size  Location     Type
   916 ;;  comand          2   67[COMRAM] PTR unsigned char 
   917 ;;		 -> datos(10), 
   918 ;; Auto vars:     Size  Location     Type
   919 ;;  texto          20    0[BANK0 ] unsigned char [20]
   920 ;;  medicion        2   20[BANK0 ] unsigned int 
   921 ;; Return value:  Size  Location     Type
   922 ;;                  1    wreg      void 
   923 ;; Registers used:
   924 ;;		wreg, fsr2l, fsr2h, status,2, status,0, prodl, prodh, cstack
   925 ;; Tracked objects:
   926 ;;		On entry : 0/0
   927 ;;		On exit  : 0/0
   928 ;;		Unchanged: 0/0
   929 ;; Data sizes:     COMRAM   BANK0   BANK1   BANK2   BANK3   BANK4   BANK5   BANK6   BANK7   BANK8   BANK9  BANK10  BANK1
      +1  BANK12  BANK13  BANK14
   930 ;;      Params:         2       0       0       0       0       0       0       0       0       0       0       0       
      +0       0       0       0
   931 ;;      Locals:         0      22       0       0       0       0       0       0       0       0       0       0       
      +0       0       0       0
   932 ;;      Temps:          5       0       0       0       0       0       0       0       0       0       0       0       
      +0       0       0       0
   933 ;;      Totals:         7      22       0       0       0       0       0       0       0       0       0       0       
      +0       0       0       0
   934 ;;Total ram usage:       29 bytes
   935 ;; Hardware stack levels used:    1
   936 ;; Hardware stack levels required when called:    3
   937 ;; This function calls:
   938 ;;		_dirreccion
   939 ;;		_fijarVelocidad
   940 ;;		_frenarMotor
   941 ;; This function is called by:
   942 ;;		_main
   943 ;; This function uses a non-reentrant model
   944 ;;
   945                           
   946                           	psect	text1
   947  001F88                     __ptext1:
   948                           	opt callstack 0
   949  001F88                     _terminal:
   950                           	opt callstack 27
   951                           
   952                           ;sensores.c: 127:     unsigned char texto[20] = {'\0'};
   953                           
   954                           ;incstack = 0
   955  001F88  EE20  F0C4         	lfsr	2,terminal@texto
   956  001F8C  0E13               	movlw	19
   957  001F8E                     u2651:
   958  001F8E  6ADE               	clrf	postinc2,c
   959  001F90  06E8               	decf	wreg,f,c
   960  001F92  E2FD               	bc	u2651
   961                           
   962                           ;sensores.c: 128:     switch (comand[0]){
   963  001F94  D03E               	goto	l2938
   964  001F96                     l2926:
   965                           
   966                           ;sensores.c: 136:             dirreccion(180);
   967  001F96  0EB4               	movlw	180
   968  001F98  EC77  F011         	call	_dirreccion
   969                           
   970                           ;sensores.c: 137:             break;
   971  001F9C  0012               	return	
   972  001F9E                     l2928:
   973                           
   974                           ;sensores.c: 139:             dirreccion(0);
   975  001F9E  0E00               	movlw	0
   976  001FA0  EC77  F011         	call	_dirreccion
   977                           
   978                           ;sensores.c: 140:             break;
   979  001FA4  0012               	return	
   980  001FA6                     l2930:
   981                           
   982                           ;sensores.c: 142:             frenarMotor();
   983  001FA6  EC18  F013         	call	_frenarMotor	;wreg free
   984                           
   985                           ;sensores.c: 143:             break;
   986  001FAA  0012               	return	
   987  001FAC                     l2932:
   988                           
   989                           ;sensores.c: 145:             medicion = (comand[1] - 0x30)*100 + (comand[2] - 0x30)*10 
      +                          + comand[3] - 0x30;
   990  001FAC  EE20 F001          	lfsr	2,1
   991  001FB0  5044               	movf	terminal@comand,w,c
   992  001FB2  26D9               	addwf	fsr2l,f,c
   993  001FB4  5045               	movf	terminal@comand+1,w,c
   994  001FB6  22DA               	addwfc	fsr2h,f,c
   995  001FB8  50DF               	movf	indf2,w,c
   996  001FBA  6E46               	movwf	??_terminal& (0+255),c
   997  001FBC  5046               	movf	??_terminal,w,c
   998  001FBE  0D64               	mullw	100
   999  001FC0  CFF3 F047          	movff	prodl,??_terminal+1
  1000  001FC4  CFF4 F048          	movff	prodh,??_terminal+2
  1001  001FC8  EE20 F002          	lfsr	2,2
  1002  001FCC  5044               	movf	terminal@comand,w,c
  1003  001FCE  26D9               	addwf	fsr2l,f,c
  1004  001FD0  5045               	movf	terminal@comand+1,w,c
  1005  001FD2  22DA               	addwfc	fsr2h,f,c
  1006  001FD4  50DF               	movf	indf2,w,c
  1007  001FD6  6E49               	movwf	(??_terminal+3)& (0+255),c
  1008  001FD8  5049               	movf	??_terminal+3,w,c
  1009  001FDA  0D0A               	mullw	10
  1010  001FDC  50F3               	movf	prodl,w,c
  1011  001FDE  2647               	addwf	??_terminal+1,f,c
  1012  001FE0  50F4               	movf	prodh,w,c
  1013  001FE2  2248               	addwfc	??_terminal+2,f,c
  1014  001FE4  EE20 F003          	lfsr	2,3
  1015  001FE8  5044               	movf	terminal@comand,w,c
  1016  001FEA  26D9               	addwf	fsr2l,f,c
  1017  001FEC  5045               	movf	terminal@comand+1,w,c
  1018  001FEE  22DA               	addwfc	fsr2h,f,c
  1019  001FF0  50DF               	movf	indf2,w,c
  1020  001FF2  6E4A               	movwf	(??_terminal+4)& (0+255),c
  1021  001FF4  504A               	movf	??_terminal+4,w,c
  1022  001FF6  2647               	addwf	??_terminal+1,f,c
  1023  001FF8  0E00               	movlw	0
  1024  001FFA  2248               	addwfc	??_terminal+2,f,c
  1025  001FFC  0E30               	movlw	48
  1026  001FFE  2447               	addwf	??_terminal+1,w,c
  1027  002000  0100               	movlb	0	; () banked
  1028  002002  6FD8               	movwf	terminal@medicion& (0+255),b
  1029  002004  0EEB               	movlw	235
  1030  002006  2048               	addwfc	??_terminal+2,w,c
  1031  002008  6FD9               	movwf	(terminal@medicion+1)& (0+255),b
  1032                           
  1033                           ; BSR set to: 0
  1034                           ;sensores.c: 146:             fijarVelocidad(medicion);
  1035  00200A  51D8               	movf	terminal@medicion& (0+255),w,b
  1036  00200C  EC7E  F00E         	call	_fijarVelocidad
  1037                           
  1038                           ;sensores.c: 147:             break;
  1039  002010  0012               	return	
  1040  002012                     l2938:
  1041  002012  C044  FFD9         	movff	terminal@comand,fsr2l
  1042  002016  C045  FFDA         	movff	terminal@comand+1,fsr2h
  1043  00201A  50DF               	movf	indf2,w,c
  1044  00201C  6E46               	movwf	??_terminal& (0+255),c
  1045  00201E  6A47               	clrf	(??_terminal+1)& (0+255),c
  1046                           
  1047                           ; Switch on 2 bytes has been partitioned into a top level switch of size 1, and 1 sub-sw
      +                          itches
  1048                           ; Switch size 1, requested type "simple"
  1049                           ; Number of cases is 1, Range of values is 0 to 0
  1050                           ; switch strategies available:
  1051                           ; Name         Instructions Cycles
  1052                           ; simple_byte            4     3 (average)
  1053                           ;	Chosen strategy is simple_byte
  1054  002020  5047               	movf	??_terminal+1,w,c
  1055  002022  0A00               	xorlw	0	; case 0
  1056  002024  A4D8               	btfss	status,2,c
  1057  002026  0012               	return	
  1058                           
  1059                           ; Switch size 1, requested type "simple"
  1060                           ; Number of cases is 6, Range of values is 70 to 119
  1061                           ; switch strategies available:
  1062                           ; Name         Instructions Cycles
  1063                           ; simple_byte           19    10 (average)
  1064                           ;	Chosen strategy is simple_byte
  1065  002028  5046               	movf	??_terminal,w,c
  1066  00202A  0A46               	xorlw	70	; case 70
  1067  00202C  B4D8               	btfsc	status,2,c
  1068  00202E  D7BE               	goto	l2932
  1069  002030  0A27               	xorlw	39	; case 97
  1070  002032  B4D8               	btfsc	status,2,c
  1071  002034  D7B0               	goto	l2926
  1072  002036  0A02               	xorlw	2	; case 99
  1073  002038  B4D8               	btfsc	status,2,c
  1074  00203A  D7B5               	goto	l2930
  1075  00203C  0A07               	xorlw	7	; case 100
  1076  00203E  B4D8               	btfsc	status,2,c
  1077  002040  D7AE               	goto	l2928
  1078  002042  0A17               	xorlw	23	; case 115
  1079  002044  B4D8               	btfsc	status,2,c
  1080  002046  0012               	return	
  1081  002048  0A04               	xorlw	4	; case 119
  1082  00204A  0012               	return	
  1083  00204C                     __end_of_terminal:
  1084                           	opt callstack 0
  1085                           
  1086 ;; *************** function _frenarMotor *****************
  1087 ;; Defined at:
  1088 ;;		line 31 in file "./../../LIBRERIAS/funciones_auto.h"
  1089 ;; Parameters:    Size  Location     Type
  1090 ;;		None
  1091 ;; Auto vars:     Size  Location     Type
  1092 ;;		None
  1093 ;; Return value:  Size  Location     Type
  1094 ;;                  1    wreg      void 
  1095 ;; Registers used:
  1096 ;;		wreg, status,2
  1097 ;; Tracked objects:
  1098 ;;		On entry : 0/0
  1099 ;;		On exit  : 0/0
  1100 ;;		Unchanged: 0/0
  1101 ;; Data sizes:     COMRAM   BANK0   BANK1   BANK2   BANK3   BANK4   BANK5   BANK6   BANK7   BANK8   BANK9  BANK10  BANK1
      +1  BANK12  BANK13  BANK14
  1102 ;;      Params:         0       0       0       0       0       0       0       0       0       0       0       0       
      +0       0       0       0
  1103 ;;      Locals:         0       0       0       0       0       0       0       0       0       0       0       0       
      +0       0       0       0
  1104 ;;      Temps:          0       0       0       0       0       0       0       0       0       0       0       0       
      +0       0       0       0
  1105 ;;      Totals:         0       0       0       0       0       0       0       0       0       0       0       0       
      +0       0       0       0
  1106 ;;Total ram usage:        0 bytes
  1107 ;; Hardware stack levels used:    1
  1108 ;; Hardware stack levels required when called:    1
  1109 ;; This function calls:
  1110 ;;		Nothing
  1111 ;; This function is called by:
  1112 ;;		_main
  1113 ;;		_terminal
  1114 ;; This function uses a non-reentrant model
  1115 ;;
  1116                           
  1117                           	psect	text2
  1118  002630                     __ptext2:
  1119                           	opt callstack 0
  1120  002630                     _frenarMotor:
  1121                           	opt callstack 28
  1122                           
  1123                           ;./../../LIBRERIAS/funciones_auto.h: 32:     CCP7CONbits.DC7B = 0b00;
  1124                           
  1125                           ;incstack = 0
  1126  002630  0ECF               	movlw	-49
  1127  002632  010F               	movlb	15	; () banked
  1128  002634  1709               	andwf	9,f,b	;volatile
  1129                           
  1130                           ;./../../LIBRERIAS/funciones_auto.h: 33:     CCPR7L = 0x00;
  1131  002636  0E00               	movlw	0
  1132  002638  6F0A               	movwf	10,b	;volatile
  1133                           
  1134                           ; BSR set to: 15
  1135                           ;./../../LIBRERIAS/funciones_auto.h: 34:     T2CONbits.TMR2ON = 0;
  1136  00263A  94CA               	bcf	4042,2,c	;volatile
  1137                           
  1138                           ; BSR set to: 15
  1139  00263C  0012               	return		;funcret
  1140  00263E                     __end_of_frenarMotor:
  1141                           	opt callstack 0
  1142                           
  1143 ;; *************** function _fijarVelocidad *****************
  1144 ;; Defined at:
  1145 ;;		line 20 in file "./../../LIBRERIAS/funciones_auto.h"
  1146 ;; Parameters:    Size  Location     Type
  1147 ;;  speed           1    wreg     unsigned char 
  1148 ;; Auto vars:     Size  Location     Type
  1149 ;;  speed           1   66[COMRAM] unsigned char 
  1150 ;;  DC              4   58[COMRAM] float 
  1151 ;; Return value:  Size  Location     Type
  1152 ;;                  1    wreg      void 
  1153 ;; Registers used:
  1154 ;;		wreg, status,2, status,0, prodl, prodh, cstack
  1155 ;; Tracked objects:
  1156 ;;		On entry : 0/0
  1157 ;;		On exit  : 0/0
  1158 ;;		Unchanged: 0/0
  1159 ;; Data sizes:     COMRAM   BANK0   BANK1   BANK2   BANK3   BANK4   BANK5   BANK6   BANK7   BANK8   BANK9  BANK10  BANK1
      +1  BANK12  BANK13  BANK14
  1160 ;;      Params:         0       0       0       0       0       0       0       0       0       0       0       0       
      +0       0       0       0
  1161 ;;      Locals:         9       0       0       0       0       0       0       0       0       0       0       0       
      +0       0       0       0
  1162 ;;      Temps:          0       0       0       0       0       0       0       0       0       0       0       0       
      +0       0       0       0
  1163 ;;      Totals:         9       0       0       0       0       0       0       0       0       0       0       0       
      +0       0       0       0
  1164 ;;Total ram usage:        9 bytes
  1165 ;; Hardware stack levels used:    1
  1166 ;; Hardware stack levels required when called:    2
  1167 ;; This function calls:
  1168 ;;		___fladd
  1169 ;;		___flmul
  1170 ;;		___fltol
  1171 ;;		___xxtofl
  1172 ;; This function is called by:
  1173 ;;		_terminal
  1174 ;; This function uses a non-reentrant model
  1175 ;;
  1176                           
  1177                           	psect	text3
  1178  001CFC                     __ptext3:
  1179                           	opt callstack 0
  1180  001CFC                     _fijarVelocidad:
  1181                           	opt callstack 27
  1182                           
  1183                           ; BSR set to: 15
  1184                           ;incstack = 0
  1185                           ;fijarVelocidad@speed stored from wreg
  1186  001CFC  6E43               	movwf	fijarVelocidad@speed,c
  1187                           
  1188                           ;./../../LIBRERIAS/funciones_auto.h: 21:     float DC = 0.003 * speed + 0.6;
  1189  001CFE  0EA6               	movlw	166
  1190  001D00  6E16               	movwf	___flmul@a,c
  1191  001D02  0E9B               	movlw	155
  1192  001D04  6E17               	movwf	___flmul@a+1,c
  1193  001D06  0E44               	movlw	68
  1194  001D08  6E18               	movwf	___flmul@a+2,c
  1195  001D0A  0E3B               	movlw	59
  1196  001D0C  6E19               	movwf	___flmul@a+3,c
  1197  001D0E  5043               	movf	fijarVelocidad@speed,w,c
  1198  001D10  6E04               	movwf	___xxtofl@val,c
  1199  001D12  6A05               	clrf	___xxtofl@val+1,c
  1200  001D14  6A06               	clrf	___xxtofl@val+2,c
  1201  001D16  6A07               	clrf	___xxtofl@val+3,c
  1202  001D18  0E01               	movlw	1
  1203  001D1A  ECDE  F00D         	call	___xxtofl
  1204  001D1E  C004  F012         	movff	?___xxtofl,___flmul@b
  1205  001D22  C005  F013         	movff	?___xxtofl+1,___flmul@b+1
  1206  001D26  C006  F014         	movff	?___xxtofl+2,___flmul@b+2
  1207  001D2A  C007  F015         	movff	?___xxtofl+3,___flmul@b+3
  1208  001D2E  EC85  F007         	call	___flmul	;wreg free
  1209  001D32  C012  F02B         	movff	?___flmul,___fladd@b
  1210  001D36  C013  F02C         	movff	?___flmul+1,___fladd@b+1
  1211  001D3A  C014  F02D         	movff	?___flmul+2,___fladd@b+2
  1212  001D3E  C015  F02E         	movff	?___flmul+3,___fladd@b+3
  1213  001D42  0E9A               	movlw	154
  1214  001D44  6E2F               	movwf	___fladd@a,c
  1215  001D46  0E99               	movlw	153
  1216  001D48  6E30               	movwf	___fladd@a+1,c
  1217  001D4A  0E19               	movlw	25
  1218  001D4C  6E31               	movwf	___fladd@a+2,c
  1219  001D4E  0E3F               	movlw	63
  1220  001D50  6E32               	movwf	___fladd@a+3,c
  1221  001D52  ECD6  F00A         	call	___fladd	;wreg free
  1222  001D56  C02B  F03B         	movff	?___fladd,fijarVelocidad@DC
  1223  001D5A  C02C  F03C         	movff	?___fladd+1,fijarVelocidad@DC+1
  1224  001D5E  C02D  F03D         	movff	?___fladd+2,fijarVelocidad@DC+2
  1225  001D62  C02E  F03E         	movff	?___fladd+3,fijarVelocidad@DC+3
  1226                           
  1227                           ;./../../LIBRERIAS/funciones_auto.h: 22:     velocidad = 4 * DC * 125;
  1228  001D66  0E00               	movlw	0
  1229  001D68  6E16               	movwf	___flmul@a,c
  1230  001D6A  0E00               	movlw	0
  1231  001D6C  6E17               	movwf	___flmul@a+1,c
  1232  001D6E  0E80               	movlw	128
  1233  001D70  6E18               	movwf	___flmul@a+2,c
  1234  001D72  0E40               	movlw	64
  1235  001D74  6E19               	movwf	___flmul@a+3,c
  1236  001D76  C03B  F012         	movff	fijarVelocidad@DC,___flmul@b
  1237  001D7A  C03C  F013         	movff	fijarVelocidad@DC+1,___flmul@b+1
  1238  001D7E  C03D  F014         	movff	fijarVelocidad@DC+2,___flmul@b+2
  1239  001D82  C03E  F015         	movff	fijarVelocidad@DC+3,___flmul@b+3
  1240  001D86  EC85  F007         	call	___flmul	;wreg free
  1241  001D8A  C012  F03F         	movff	?___flmul,_fijarVelocidad$1725
  1242  001D8E  C013  F040         	movff	?___flmul+1,_fijarVelocidad$1725+1
  1243  001D92  C014  F041         	movff	?___flmul+2,_fijarVelocidad$1725+2
  1244  001D96  C015  F042         	movff	?___flmul+3,_fijarVelocidad$1725+3
  1245                           
  1246                           ;./../../LIBRERIAS/funciones_auto.h: 22:     velocidad = 4 * DC * 125;
  1247  001D9A  0E00               	movlw	0
  1248  001D9C  6E16               	movwf	___flmul@a,c
  1249  001D9E  0E00               	movlw	0
  1250  001DA0  6E17               	movwf	___flmul@a+1,c
  1251  001DA2  0EFA               	movlw	250
  1252  001DA4  6E18               	movwf	___flmul@a+2,c
  1253  001DA6  0E42               	movlw	66
  1254  001DA8  6E19               	movwf	___flmul@a+3,c
  1255  001DAA  C03F  F012         	movff	_fijarVelocidad$1725,___flmul@b
  1256  001DAE  C040  F013         	movff	_fijarVelocidad$1725+1,___flmul@b+1
  1257  001DB2  C041  F014         	movff	_fijarVelocidad$1725+2,___flmul@b+2
  1258  001DB6  C042  F015         	movff	_fijarVelocidad$1725+3,___flmul@b+3
  1259  001DBA  EC85  F007         	call	___flmul	;wreg free
  1260  001DBE  C012  F02B         	movff	?___flmul,___fltol@f1
  1261  001DC2  C013  F02C         	movff	?___flmul+1,___fltol@f1+1
  1262  001DC6  C014  F02D         	movff	?___flmul+2,___fltol@f1+2
  1263  001DCA  C015  F02E         	movff	?___flmul+3,___fltol@f1+3
  1264  001DCE  EC26  F010         	call	___fltol	;wreg free
  1265  001DD2  C02B  F096         	movff	?___fltol,_velocidad
  1266  001DD6  C02C  F097         	movff	?___fltol+1,_velocidad+1
  1267  001DDA  0012               	return		;funcret
  1268  001DDC                     __end_of_fijarVelocidad:
  1269                           	opt callstack 0
  1270                           
  1271 ;; *************** function ___xxtofl *****************
  1272 ;; Defined at:
  1273 ;;		line 10 in file "C:\Program Files (x86)\Microchip\xc8\v2.05\pic\sources\c99\common\xxtofl.c"
  1274 ;; Parameters:    Size  Location     Type
  1275 ;;  sign            1    wreg     unsigned char 
  1276 ;;  val             4    3[COMRAM] long 
  1277 ;; Auto vars:     Size  Location     Type
  1278 ;;  sign            1   11[COMRAM] unsigned char 
  1279 ;;  arg             4   13[COMRAM] unsigned long 
  1280 ;;  exp             1   12[COMRAM] unsigned char 
  1281 ;; Return value:  Size  Location     Type
  1282 ;;                  4    3[COMRAM] unsigned char 
  1283 ;; Registers used:
  1284 ;;		wreg, status,2, status,0
  1285 ;; Tracked objects:
  1286 ;;		On entry : 0/0
  1287 ;;		On exit  : 0/0
  1288 ;;		Unchanged: 0/0
  1289 ;; Data sizes:     COMRAM   BANK0   BANK1   BANK2   BANK3   BANK4   BANK5   BANK6   BANK7   BANK8   BANK9  BANK10  BANK1
      +1  BANK12  BANK13  BANK14
  1290 ;;      Params:         4       0       0       0       0       0       0       0       0       0       0       0       
      +0       0       0       0
  1291 ;;      Locals:         6       0       0       0       0       0       0       0       0       0       0       0       
      +0       0       0       0
  1292 ;;      Temps:          4       0       0       0       0       0       0       0       0       0       0       0       
      +0       0       0       0
  1293 ;;      Totals:        14       0       0       0       0       0       0       0       0       0       0       0       
      +0       0       0       0
  1294 ;;Total ram usage:       14 bytes
  1295 ;; Hardware stack levels used:    1
  1296 ;; Hardware stack levels required when called:    1
  1297 ;; This function calls:
  1298 ;;		Nothing
  1299 ;; This function is called by:
  1300 ;;		_fijarVelocidad
  1301 ;; This function uses a non-reentrant model
  1302 ;;
  1303                           
  1304                           	psect	text4
  1305  001BBC                     __ptext4:
  1306                           	opt callstack 0
  1307  001BBC                     ___xxtofl:
  1308                           	opt callstack 27
  1309                           
  1310                           ;incstack = 0
  1311                           ;___xxtofl@sign stored from wreg
  1312  001BBC  6E0C               	movwf	___xxtofl@sign,c
  1313  001BBE  500C               	movf	___xxtofl@sign,w,c
  1314  001BC0  A4D8               	btfss	status,2,c
  1315  001BC2  AE07               	btfss	___xxtofl@val+3,7,c
  1316  001BC4  D01A               	goto	l953
  1317  001BC6  C004  F008         	movff	___xxtofl@val,??___xxtofl
  1318  001BCA  C005  F009         	movff	___xxtofl@val+1,??___xxtofl+1
  1319  001BCE  C006  F00A         	movff	___xxtofl@val+2,??___xxtofl+2
  1320  001BD2  C007  F00B         	movff	___xxtofl@val+3,??___xxtofl+3
  1321  001BD6  1E08               	comf	??___xxtofl,f,c
  1322  001BD8  1E09               	comf	??___xxtofl+1,f,c
  1323  001BDA  1E0A               	comf	??___xxtofl+2,f,c
  1324  001BDC  1E0B               	comf	??___xxtofl+3,f,c
  1325  001BDE  2A08               	incf	??___xxtofl,f,c
  1326  001BE0  0E00               	movlw	0
  1327  001BE2  2209               	addwfc	??___xxtofl+1,f,c
  1328  001BE4  220A               	addwfc	??___xxtofl+2,f,c
  1329  001BE6  220B               	addwfc	??___xxtofl+3,f,c
  1330  001BE8  C008  F00E         	movff	??___xxtofl,___xxtofl@arg
  1331  001BEC  C009  F00F         	movff	??___xxtofl+1,___xxtofl@arg+1
  1332  001BF0  C00A  F010         	movff	??___xxtofl+2,___xxtofl@arg+2
  1333  001BF4  C00B  F011         	movff	??___xxtofl+3,___xxtofl@arg+3
  1334  001BF8  D008               	goto	l2782
  1335  001BFA                     l953:
  1336  001BFA  C004  F00E         	movff	___xxtofl@val,___xxtofl@arg
  1337  001BFE  C005  F00F         	movff	___xxtofl@val+1,___xxtofl@arg+1
  1338  001C02  C006  F010         	movff	___xxtofl@val+2,___xxtofl@arg+2
  1339  001C06  C007  F011         	movff	___xxtofl@val+3,___xxtofl@arg+3
  1340  001C0A                     l2782:
  1341  001C0A  5004               	movf	___xxtofl@val,w,c
  1342  001C0C  1005               	iorwf	___xxtofl@val+1,w,c
  1343  001C0E  1006               	iorwf	___xxtofl@val+2,w,c
  1344  001C10  1007               	iorwf	___xxtofl@val+3,w,c
  1345  001C12  A4D8               	btfss	status,2,c
  1346  001C14  D009               	goto	l2788
  1347  001C16  0E00               	movlw	0
  1348  001C18  6E04               	movwf	?___xxtofl,c
  1349  001C1A  0E00               	movlw	0
  1350  001C1C  6E05               	movwf	?___xxtofl+1,c
  1351  001C1E  0E00               	movlw	0
  1352  001C20  6E06               	movwf	?___xxtofl+2,c
  1353  001C22  0E00               	movlw	0
  1354  001C24  6E07               	movwf	?___xxtofl+3,c
  1355  001C26  0012               	return	
  1356  001C28                     l2788:
  1357  001C28  0E96               	movlw	150
  1358  001C2A  6E0D               	movwf	___xxtofl@exp,c
  1359  001C2C  D006               	goto	l2792
  1360  001C2E                     l2790:
  1361  001C2E  2A0D               	incf	___xxtofl@exp,f,c
  1362  001C30  90D8               	bcf	status,0,c
  1363  001C32  3211               	rrcf	___xxtofl@arg+3,f,c
  1364  001C34  3210               	rrcf	___xxtofl@arg+2,f,c
  1365  001C36  320F               	rrcf	___xxtofl@arg+1,f,c
  1366  001C38  320E               	rrcf	___xxtofl@arg,f,c
  1367  001C3A                     l2792:
  1368  001C3A  0E00               	movlw	0
  1369  001C3C  140E               	andwf	___xxtofl@arg,w,c
  1370  001C3E  6E08               	movwf	??___xxtofl& (0+255),c
  1371  001C40  0E00               	movlw	0
  1372  001C42  140F               	andwf	___xxtofl@arg+1,w,c
  1373  001C44  6E09               	movwf	(??___xxtofl+1)& (0+255),c
  1374  001C46  0E00               	movlw	0
  1375  001C48  1410               	andwf	___xxtofl@arg+2,w,c
  1376  001C4A  6E0A               	movwf	(??___xxtofl+2)& (0+255),c
  1377  001C4C  0EFE               	movlw	254
  1378  001C4E  1411               	andwf	___xxtofl@arg+3,w,c
  1379  001C50  6E0B               	movwf	(??___xxtofl+3)& (0+255),c
  1380  001C52  5008               	movf	??___xxtofl,w,c
  1381  001C54  1009               	iorwf	??___xxtofl+1,w,c
  1382  001C56  100A               	iorwf	??___xxtofl+2,w,c
  1383  001C58  100B               	iorwf	??___xxtofl+3,w,c
  1384  001C5A  B4D8               	btfsc	status,2,c
  1385  001C5C  D00D               	goto	l960
  1386  001C5E  D7E7               	goto	l2790
  1387  001C60                     l2794:
  1388  001C60  2A0D               	incf	___xxtofl@exp,f,c
  1389  001C62  0E01               	movlw	1
  1390  001C64  260E               	addwf	___xxtofl@arg,f,c
  1391  001C66  0E00               	movlw	0
  1392  001C68  220F               	addwfc	___xxtofl@arg+1,f,c
  1393  001C6A  2210               	addwfc	___xxtofl@arg+2,f,c
  1394  001C6C  2211               	addwfc	___xxtofl@arg+3,f,c
  1395  001C6E  90D8               	bcf	status,0,c
  1396  001C70  3211               	rrcf	___xxtofl@arg+3,f,c
  1397  001C72  3210               	rrcf	___xxtofl@arg+2,f,c
  1398  001C74  320F               	rrcf	___xxtofl@arg+1,f,c
  1399  001C76  320E               	rrcf	___xxtofl@arg,f,c
  1400  001C78                     l960:
  1401  001C78  0E00               	movlw	0
  1402  001C7A  140E               	andwf	___xxtofl@arg,w,c
  1403  001C7C  6E08               	movwf	??___xxtofl& (0+255),c
  1404  001C7E  0E00               	movlw	0
  1405  001C80  140F               	andwf	___xxtofl@arg+1,w,c
  1406  001C82  6E09               	movwf	(??___xxtofl+1)& (0+255),c
  1407  001C84  0E00               	movlw	0
  1408  001C86  1410               	andwf	___xxtofl@arg+2,w,c
  1409  001C88  6E0A               	movwf	(??___xxtofl+2)& (0+255),c
  1410  001C8A  0EFF               	movlw	255
  1411  001C8C  1411               	andwf	___xxtofl@arg+3,w,c
  1412  001C8E  6E0B               	movwf	(??___xxtofl+3)& (0+255),c
  1413  001C90  5008               	movf	??___xxtofl,w,c
  1414  001C92  1009               	iorwf	??___xxtofl+1,w,c
  1415  001C94  100A               	iorwf	??___xxtofl+2,w,c
  1416  001C96  100B               	iorwf	??___xxtofl+3,w,c
  1417  001C98  B4D8               	btfsc	status,2,c
  1418  001C9A  D007               	goto	l2802
  1419  001C9C  D7E1               	goto	l2794
  1420  001C9E                     l2800:
  1421  001C9E  060D               	decf	___xxtofl@exp,f,c
  1422  001CA0  90D8               	bcf	status,0,c
  1423  001CA2  360E               	rlcf	___xxtofl@arg,f,c
  1424  001CA4  360F               	rlcf	___xxtofl@arg+1,f,c
  1425  001CA6  3610               	rlcf	___xxtofl@arg+2,f,c
  1426  001CA8  3611               	rlcf	___xxtofl@arg+3,f,c
  1427  001CAA                     l2802:
  1428  001CAA  BE10               	btfsc	___xxtofl@arg+2,7,c
  1429  001CAC  D003               	goto	u2580
  1430  001CAE  0E02               	movlw	2
  1431  001CB0  600D               	cpfslt	___xxtofl@exp,c
  1432  001CB2  D7F5               	goto	l2800
  1433  001CB4                     u2580:
  1434  001CB4  A00D               	btfss	___xxtofl@exp,0,c
  1435  001CB6  9E10               	bcf	___xxtofl@arg+2,7,c
  1436  001CB8  90D8               	bcf	status,0,c
  1437  001CBA  320D               	rrcf	___xxtofl@exp,f,c
  1438  001CBC  C00D  F008         	movff	___xxtofl@exp,??___xxtofl
  1439  001CC0  6A09               	clrf	(??___xxtofl+1)& (0+255),c
  1440  001CC2  6A0A               	clrf	(??___xxtofl+2)& (0+255),c
  1441  001CC4  6A0B               	clrf	(??___xxtofl+3)& (0+255),c
  1442  001CC6  C008  F00B         	movff	??___xxtofl,??___xxtofl+3
  1443  001CCA  6A0A               	clrf	??___xxtofl+2,c
  1444  001CCC  6A09               	clrf	??___xxtofl+1,c
  1445  001CCE  6A08               	clrf	??___xxtofl,c
  1446  001CD0  5008               	movf	??___xxtofl,w,c
  1447  001CD2  120E               	iorwf	___xxtofl@arg,f,c
  1448  001CD4  5009               	movf	??___xxtofl+1,w,c
  1449  001CD6  120F               	iorwf	___xxtofl@arg+1,f,c
  1450  001CD8  500A               	movf	??___xxtofl+2,w,c
  1451  001CDA  1210               	iorwf	___xxtofl@arg+2,f,c
  1452  001CDC  500B               	movf	??___xxtofl+3,w,c
  1453  001CDE  1211               	iorwf	___xxtofl@arg+3,f,c
  1454  001CE0  500C               	movf	___xxtofl@sign,w,c
  1455  001CE2  A4D8               	btfss	status,2,c
  1456  001CE4  AE07               	btfss	___xxtofl@val+3,7,c
  1457  001CE6  D001               	goto	l2818
  1458  001CE8  8E11               	bsf	___xxtofl@arg+3,7,c
  1459  001CEA                     l2818:
  1460  001CEA  C00E  F004         	movff	___xxtofl@arg,?___xxtofl
  1461  001CEE  C00F  F005         	movff	___xxtofl@arg+1,?___xxtofl+1
  1462  001CF2  C010  F006         	movff	___xxtofl@arg+2,?___xxtofl+2
  1463  001CF6  C011  F007         	movff	___xxtofl@arg+3,?___xxtofl+3
  1464  001CFA  0012               	return		;funcret
  1465  001CFC                     __end_of___xxtofl:
  1466                           	opt callstack 0
  1467                           
  1468 ;; *************** function ___fltol *****************
  1469 ;; Defined at:
  1470 ;;		line 43 in file "C:\Program Files (x86)\Microchip\xc8\v2.05\pic\sources\c99\common\fltol.c"
  1471 ;; Parameters:    Size  Location     Type
  1472 ;;  f1              4   42[COMRAM] unsigned char 
  1473 ;; Auto vars:     Size  Location     Type
  1474 ;;  exp1            1   51[COMRAM] unsigned char 
  1475 ;;  sign1           1   50[COMRAM] unsigned char 
  1476 ;; Return value:  Size  Location     Type
  1477 ;;                  4   42[COMRAM] long 
  1478 ;; Registers used:
  1479 ;;		wreg, status,2, status,0
  1480 ;; Tracked objects:
  1481 ;;		On entry : 0/0
  1482 ;;		On exit  : 0/0
  1483 ;;		Unchanged: 0/0
  1484 ;; Data sizes:     COMRAM   BANK0   BANK1   BANK2   BANK3   BANK4   BANK5   BANK6   BANK7   BANK8   BANK9  BANK10  BANK1
      +1  BANK12  BANK13  BANK14
  1485 ;;      Params:         4       0       0       0       0       0       0       0       0       0       0       0       
      +0       0       0       0
  1486 ;;      Locals:         2       0       0       0       0       0       0       0       0       0       0       0       
      +0       0       0       0
  1487 ;;      Temps:          4       0       0       0       0       0       0       0       0       0       0       0       
      +0       0       0       0
  1488 ;;      Totals:        10       0       0       0       0       0       0       0       0       0       0       0       
      +0       0       0       0
  1489 ;;Total ram usage:       10 bytes
  1490 ;; Hardware stack levels used:    1
  1491 ;; Hardware stack levels required when called:    1
  1492 ;; This function calls:
  1493 ;;		Nothing
  1494 ;; This function is called by:
  1495 ;;		_fijarVelocidad
  1496 ;; This function uses a non-reentrant model
  1497 ;;
  1498                           
  1499                           	psect	text5
  1500  00204C                     __ptext5:
  1501                           	opt callstack 0
  1502  00204C                     ___fltol:
  1503                           	opt callstack 27
  1504                           
  1505                           ;incstack = 0
  1506  00204C  342D               	rlcf	___fltol@f1+2,w,c
  1507  00204E  342E               	rlcf	___fltol@f1+3,w,c
  1508  002050  6E34               	movwf	___fltol@exp1,c
  1509  002052  5034               	movf	___fltol@exp1,w,c
  1510  002054  A4D8               	btfss	status,2,c
  1511  002056  D009               	goto	l2738
  1512  002058                     u2450:
  1513  002058  0E00               	movlw	0
  1514  00205A  6E2B               	movwf	?___fltol,c
  1515  00205C  0E00               	movlw	0
  1516  00205E  6E2C               	movwf	?___fltol+1,c
  1517  002060  0E00               	movlw	0
  1518  002062  6E2D               	movwf	?___fltol+2,c
  1519  002064  0E00               	movlw	0
  1520  002066  6E2E               	movwf	?___fltol+3,c
  1521  002068  0012               	return	
  1522  00206A                     l2738:
  1523  00206A  C02B  F02F         	movff	___fltol@f1,??___fltol
  1524  00206E  C02C  F030         	movff	___fltol@f1+1,??___fltol+1
  1525  002072  C02D  F031         	movff	___fltol@f1+2,??___fltol+2
  1526  002076  C02E  F032         	movff	___fltol@f1+3,??___fltol+3
  1527  00207A  0E20               	movlw	32
  1528  00207C  D005               	goto	u2460
  1529  00207E                     u2465:
  1530  00207E  90D8               	bcf	status,0,c
  1531  002080  3232               	rrcf	??___fltol+3,f,c
  1532  002082  3231               	rrcf	??___fltol+2,f,c
  1533  002084  3230               	rrcf	??___fltol+1,f,c
  1534  002086  322F               	rrcf	??___fltol,f,c
  1535  002088                     u2460:
  1536  002088  2EE8               	decfsz	wreg,f,c
  1537  00208A  D7F9               	goto	u2465
  1538  00208C  502F               	movf	??___fltol,w,c
  1539  00208E  6E33               	movwf	___fltol@sign1,c
  1540  002090  8E2D               	bsf	___fltol@f1+2,7,c
  1541  002092  0EFF               	movlw	255
  1542  002094  162B               	andwf	___fltol@f1,f,c
  1543  002096  0EFF               	movlw	255
  1544  002098  162C               	andwf	___fltol@f1+1,f,c
  1545  00209A  0EFF               	movlw	255
  1546  00209C  162D               	andwf	___fltol@f1+2,f,c
  1547  00209E  0E00               	movlw	0
  1548  0020A0  162E               	andwf	___fltol@f1+3,f,c
  1549  0020A2  0E96               	movlw	150
  1550  0020A4  5E34               	subwf	___fltol@exp1,f,c
  1551  0020A6  AE34               	btfss	___fltol@exp1,7,c
  1552  0020A8  D00D               	goto	l2758
  1553  0020AA  5034               	movf	___fltol@exp1,w,c
  1554  0020AC  0A80               	xorlw	128
  1555  0020AE  0F97               	addlw	151
  1556  0020B0  A0D8               	btfss	status,0,c
  1557  0020B2  D7D2               	goto	u2450
  1558  0020B4                     l2754:
  1559  0020B4  90D8               	bcf	status,0,c
  1560  0020B6  322E               	rrcf	___fltol@f1+3,f,c
  1561  0020B8  322D               	rrcf	___fltol@f1+2,f,c
  1562  0020BA  322C               	rrcf	___fltol@f1+1,f,c
  1563  0020BC  322B               	rrcf	___fltol@f1,f,c
  1564  0020BE  3E34               	incfsz	___fltol@exp1,f,c
  1565  0020C0  D7F9               	goto	l2754
  1566  0020C2  D00D               	goto	u2500
  1567  0020C4                     l2758:
  1568  0020C4  0E1F               	movlw	31
  1569  0020C6  6434               	cpfsgt	___fltol@exp1,c
  1570  0020C8  D007               	goto	l2766
  1571  0020CA  D7C6               	goto	u2450
  1572  0020CC                     l2764:
  1573  0020CC  90D8               	bcf	status,0,c
  1574  0020CE  362B               	rlcf	___fltol@f1,f,c
  1575  0020D0  362C               	rlcf	___fltol@f1+1,f,c
  1576  0020D2  362D               	rlcf	___fltol@f1+2,f,c
  1577  0020D4  362E               	rlcf	___fltol@f1+3,f,c
  1578  0020D6  0634               	decf	___fltol@exp1,f,c
  1579  0020D8                     l2766:
  1580  0020D8  5034               	movf	___fltol@exp1,w,c
  1581  0020DA  A4D8               	btfss	status,2,c
  1582  0020DC  D7F7               	goto	l2764
  1583  0020DE                     u2500:
  1584  0020DE  5033               	movf	___fltol@sign1,w,c
  1585  0020E0  B4D8               	btfsc	status,2,c
  1586  0020E2  D008               	goto	l2772
  1587  0020E4  1E2E               	comf	___fltol@f1+3,f,c
  1588  0020E6  1E2D               	comf	___fltol@f1+2,f,c
  1589  0020E8  1E2C               	comf	___fltol@f1+1,f,c
  1590  0020EA  6C2B               	negf	___fltol@f1,c
  1591  0020EC  0E00               	movlw	0
  1592  0020EE  222C               	addwfc	___fltol@f1+1,f,c
  1593  0020F0  222D               	addwfc	___fltol@f1+2,f,c
  1594  0020F2  222E               	addwfc	___fltol@f1+3,f,c
  1595  0020F4                     l2772:
  1596  0020F4  C02B  F02B         	movff	___fltol@f1,?___fltol
  1597  0020F8  C02C  F02C         	movff	___fltol@f1+1,?___fltol+1
  1598  0020FC  C02D  F02D         	movff	___fltol@f1+2,?___fltol+2
  1599  002100  C02E  F02E         	movff	___fltol@f1+3,?___fltol+3
  1600  002104  0012               	return		;funcret
  1601  002106                     __end_of___fltol:
  1602                           	opt callstack 0
  1603                           
  1604 ;; *************** function ___flmul *****************
  1605 ;; Defined at:
  1606 ;;		line 8 in file "C:\Program Files (x86)\Microchip\xc8\v2.05\pic\sources\c99\common\sprcmul.c"
  1607 ;; Parameters:    Size  Location     Type
  1608 ;;  b               4   17[COMRAM] long 
  1609 ;;  a               4   21[COMRAM] long 
  1610 ;; Auto vars:     Size  Location     Type
  1611 ;;  prod            4   36[COMRAM] struct .
  1612 ;;  grs             4   30[COMRAM] unsigned long 
  1613 ;;  temp            2   40[COMRAM] struct .
  1614 ;;  bexp            1   35[COMRAM] unsigned char 
  1615 ;;  aexp            1   34[COMRAM] unsigned char 
  1616 ;;  sign            1   29[COMRAM] unsigned char 
  1617 ;; Return value:  Size  Location     Type
  1618 ;;                  4   17[COMRAM] unsigned char 
  1619 ;; Registers used:
  1620 ;;		wreg, status,2, status,0, prodl, prodh
  1621 ;; Tracked objects:
  1622 ;;		On entry : 0/0
  1623 ;;		On exit  : 0/0
  1624 ;;		Unchanged: 0/0
  1625 ;; Data sizes:     COMRAM   BANK0   BANK1   BANK2   BANK3   BANK4   BANK5   BANK6   BANK7   BANK8   BANK9  BANK10  BANK1
      +1  BANK12  BANK13  BANK14
  1626 ;;      Params:         8       0       0       0       0       0       0       0       0       0       0       0       
      +0       0       0       0
  1627 ;;      Locals:        13       0       0       0       0       0       0       0       0       0       0       0       
      +0       0       0       0
  1628 ;;      Temps:          4       0       0       0       0       0       0       0       0       0       0       0       
      +0       0       0       0
  1629 ;;      Totals:        25       0       0       0       0       0       0       0       0       0       0       0       
      +0       0       0       0
  1630 ;;Total ram usage:       25 bytes
  1631 ;; Hardware stack levels used:    1
  1632 ;; Hardware stack levels required when called:    1
  1633 ;; This function calls:
  1634 ;;		Nothing
  1635 ;; This function is called by:
  1636 ;;		_fijarVelocidad
  1637 ;; This function uses a non-reentrant model
  1638 ;;
  1639                           
  1640                           	psect	text6
  1641  000F0A                     __ptext6:
  1642                           	opt callstack 0
  1643  000F0A                     ___flmul:
  1644                           	opt callstack 27
  1645                           
  1646                           ;incstack = 0
  1647  000F0A  5015               	movf	___flmul@b+3,w,c
  1648  000F0C  0B80               	andlw	128
  1649  000F0E  6E1E               	movwf	___flmul@sign,c
  1650  000F10  5015               	movf	___flmul@b+3,w,c
  1651  000F12  2415               	addwf	___flmul@b+3,w,c
  1652  000F14  6E24               	movwf	___flmul@bexp,c
  1653  000F16  BE14               	btfsc	___flmul@b+2,7,c
  1654  000F18  8024               	bsf	___flmul@bexp,0,c
  1655  000F1A  5024               	movf	___flmul@bexp,w,c
  1656  000F1C  B4D8               	btfsc	status,2,c
  1657  000F1E  D00D               	goto	l2616
  1658  000F20  2824               	incf	___flmul@bexp,w,c
  1659  000F22  A4D8               	btfss	status,2,c
  1660  000F24  D008               	goto	l2614
  1661  000F26  0E00               	movlw	0
  1662  000F28  6E12               	movwf	___flmul@b,c
  1663  000F2A  0E00               	movlw	0
  1664  000F2C  6E13               	movwf	___flmul@b+1,c
  1665  000F2E  0E00               	movlw	0
  1666  000F30  6E14               	movwf	___flmul@b+2,c
  1667  000F32  0E00               	movlw	0
  1668  000F34  6E15               	movwf	___flmul@b+3,c
  1669  000F36                     l2614:
  1670  000F36  8E14               	bsf	___flmul@b+2,7,c
  1671  000F38  D008               	goto	l2618
  1672  000F3A                     l2616:
  1673  000F3A  0E00               	movlw	0
  1674  000F3C  6E12               	movwf	___flmul@b,c
  1675  000F3E  0E00               	movlw	0
  1676  000F40  6E13               	movwf	___flmul@b+1,c
  1677  000F42  0E00               	movlw	0
  1678  000F44  6E14               	movwf	___flmul@b+2,c
  1679  000F46  0E00               	movlw	0
  1680  000F48  6E15               	movwf	___flmul@b+3,c
  1681  000F4A                     l2618:
  1682  000F4A  5019               	movf	___flmul@a+3,w,c
  1683  000F4C  0B80               	andlw	128
  1684  000F4E  1A1E               	xorwf	___flmul@sign,f,c
  1685  000F50  5019               	movf	___flmul@a+3,w,c
  1686  000F52  2419               	addwf	___flmul@a+3,w,c
  1687  000F54  6E23               	movwf	___flmul@aexp,c
  1688  000F56  BE18               	btfsc	___flmul@a+2,7,c
  1689  000F58  8023               	bsf	___flmul@aexp,0,c
  1690  000F5A  5023               	movf	___flmul@aexp,w,c
  1691  000F5C  B4D8               	btfsc	status,2,c
  1692  000F5E  D00D               	goto	l2634
  1693  000F60  2823               	incf	___flmul@aexp,w,c
  1694  000F62  A4D8               	btfss	status,2,c
  1695  000F64  D008               	goto	l2632
  1696  000F66  0E00               	movlw	0
  1697  000F68  6E16               	movwf	___flmul@a,c
  1698  000F6A  0E00               	movlw	0
  1699  000F6C  6E17               	movwf	___flmul@a+1,c
  1700  000F6E  0E00               	movlw	0
  1701  000F70  6E18               	movwf	___flmul@a+2,c
  1702  000F72  0E00               	movlw	0
  1703  000F74  6E19               	movwf	___flmul@a+3,c
  1704  000F76                     l2632:
  1705  000F76  8E18               	bsf	___flmul@a+2,7,c
  1706  000F78  D008               	goto	l912
  1707  000F7A                     l2634:
  1708  000F7A  0E00               	movlw	0
  1709  000F7C  6E16               	movwf	___flmul@a,c
  1710  000F7E  0E00               	movlw	0
  1711  000F80  6E17               	movwf	___flmul@a+1,c
  1712  000F82  0E00               	movlw	0
  1713  000F84  6E18               	movwf	___flmul@a+2,c
  1714  000F86  0E00               	movlw	0
  1715  000F88  6E19               	movwf	___flmul@a+3,c
  1716  000F8A                     l912:
  1717  000F8A  5023               	movf	___flmul@aexp,w,c
  1718  000F8C  B4D8               	btfsc	status,2,c
  1719  000F8E  D003               	goto	u2330
  1720  000F90  5024               	movf	___flmul@bexp,w,c
  1721  000F92  A4D8               	btfss	status,2,c
  1722  000F94  D009               	goto	l2642
  1723  000F96                     u2330:
  1724  000F96  0E00               	movlw	0
  1725  000F98  6E12               	movwf	?___flmul,c
  1726  000F9A  0E00               	movlw	0
  1727  000F9C  6E13               	movwf	?___flmul+1,c
  1728  000F9E  0E00               	movlw	0
  1729  000FA0  6E14               	movwf	?___flmul+2,c
  1730  000FA2  0E00               	movlw	0
  1731  000FA4  6E15               	movwf	?___flmul+3,c
  1732  000FA6  0012               	return	
  1733  000FA8                     l2642:
  1734  000FA8  5018               	movf	___flmul@a+2,w,c
  1735  000FAA  0212               	mulwf	___flmul@b,c
  1736  000FAC  CFF3 F029          	movff	prodl,___flmul@temp
  1737  000FB0  CFF4 F02A          	movff	prodh,___flmul@temp+1
  1738  000FB4  5029               	movf	___flmul@temp,w,c
  1739  000FB6  6E1F               	movwf	___flmul@grs,c
  1740  000FB8  6A20               	clrf	___flmul@grs+1,c
  1741  000FBA  6A21               	clrf	___flmul@grs+2,c
  1742  000FBC  6A22               	clrf	___flmul@grs+3,c
  1743  000FBE  502A               	movf	___flmul@temp+1,w,c
  1744  000FC0  6E25               	movwf	___flmul@prod,c
  1745  000FC2  6A26               	clrf	___flmul@prod+1,c
  1746  000FC4  6A27               	clrf	___flmul@prod+2,c
  1747  000FC6  6A28               	clrf	___flmul@prod+3,c
  1748  000FC8  5017               	movf	___flmul@a+1,w,c
  1749  000FCA  0213               	mulwf	___flmul@b+1,c
  1750  000FCC  CFF3 F029          	movff	prodl,___flmul@temp
  1751  000FD0  CFF4 F02A          	movff	prodh,___flmul@temp+1
  1752  000FD4  5029               	movf	___flmul@temp,w,c
  1753  000FD6  261F               	addwf	___flmul@grs,f,c
  1754  000FD8  0E00               	movlw	0
  1755  000FDA  2220               	addwfc	___flmul@grs+1,f,c
  1756  000FDC  2221               	addwfc	___flmul@grs+2,f,c
  1757  000FDE  2222               	addwfc	___flmul@grs+3,f,c
  1758  000FE0  502A               	movf	___flmul@temp+1,w,c
  1759  000FE2  2625               	addwf	___flmul@prod,f,c
  1760  000FE4  0E00               	movlw	0
  1761  000FE6  2226               	addwfc	___flmul@prod+1,f,c
  1762  000FE8  2227               	addwfc	___flmul@prod+2,f,c
  1763  000FEA  2228               	addwfc	___flmul@prod+3,f,c
  1764  000FEC  5016               	movf	___flmul@a,w,c
  1765  000FEE  0214               	mulwf	___flmul@b+2,c
  1766  000FF0  CFF3 F029          	movff	prodl,___flmul@temp
  1767  000FF4  CFF4 F02A          	movff	prodh,___flmul@temp+1
  1768  000FF8  5029               	movf	___flmul@temp,w,c
  1769  000FFA  261F               	addwf	___flmul@grs,f,c
  1770  000FFC  0E00               	movlw	0
  1771  000FFE  2220               	addwfc	___flmul@grs+1,f,c
  1772  001000  2221               	addwfc	___flmul@grs+2,f,c
  1773  001002  2222               	addwfc	___flmul@grs+3,f,c
  1774  001004  502A               	movf	___flmul@temp+1,w,c
  1775  001006  2625               	addwf	___flmul@prod,f,c
  1776  001008  0E00               	movlw	0
  1777  00100A  2226               	addwfc	___flmul@prod+1,f,c
  1778  00100C  2227               	addwfc	___flmul@prod+2,f,c
  1779  00100E  2228               	addwfc	___flmul@prod+3,f,c
  1780  001010  C021  F022         	movff	___flmul@grs+2,___flmul@grs+3
  1781  001014  C020  F021         	movff	___flmul@grs+1,___flmul@grs+2
  1782  001018  C01F  F020         	movff	___flmul@grs,___flmul@grs+1
  1783  00101C  6A1F               	clrf	___flmul@grs,c
  1784  00101E  5016               	movf	___flmul@a,w,c
  1785  001020  0213               	mulwf	___flmul@b+1,c
  1786  001022  CFF3 F029          	movff	prodl,___flmul@temp
  1787  001026  CFF4 F02A          	movff	prodh,___flmul@temp+1
  1788  00102A  5029               	movf	___flmul@temp,w,c
  1789  00102C  261F               	addwf	___flmul@grs,f,c
  1790  00102E  502A               	movf	___flmul@temp+1,w,c
  1791  001030  2220               	addwfc	___flmul@grs+1,f,c
  1792  001032  0E00               	movlw	0
  1793  001034  2221               	addwfc	___flmul@grs+2,f,c
  1794  001036  0E00               	movlw	0
  1795  001038  2222               	addwfc	___flmul@grs+3,f,c
  1796  00103A  5017               	movf	___flmul@a+1,w,c
  1797  00103C  0212               	mulwf	___flmul@b,c
  1798  00103E  CFF3 F029          	movff	prodl,___flmul@temp
  1799  001042  CFF4 F02A          	movff	prodh,___flmul@temp+1
  1800  001046  5029               	movf	___flmul@temp,w,c
  1801  001048  261F               	addwf	___flmul@grs,f,c
  1802  00104A  502A               	movf	___flmul@temp+1,w,c
  1803  00104C  2220               	addwfc	___flmul@grs+1,f,c
  1804  00104E  0E00               	movlw	0
  1805  001050  2221               	addwfc	___flmul@grs+2,f,c
  1806  001052  0E00               	movlw	0
  1807  001054  2222               	addwfc	___flmul@grs+3,f,c
  1808  001056  C021  F022         	movff	___flmul@grs+2,___flmul@grs+3
  1809  00105A  C020  F021         	movff	___flmul@grs+1,___flmul@grs+2
  1810  00105E  C01F  F020         	movff	___flmul@grs,___flmul@grs+1
  1811  001062  6A1F               	clrf	___flmul@grs,c
  1812  001064  5016               	movf	___flmul@a,w,c
  1813  001066  0212               	mulwf	___flmul@b,c
  1814  001068  CFF3 F029          	movff	prodl,___flmul@temp
  1815  00106C  CFF4 F02A          	movff	prodh,___flmul@temp+1
  1816  001070  5029               	movf	___flmul@temp,w,c
  1817  001072  261F               	addwf	___flmul@grs,f,c
  1818  001074  502A               	movf	___flmul@temp+1,w,c
  1819  001076  2220               	addwfc	___flmul@grs+1,f,c
  1820  001078  0E00               	movlw	0
  1821  00107A  2221               	addwfc	___flmul@grs+2,f,c
  1822  00107C  0E00               	movlw	0
  1823  00107E  2222               	addwfc	___flmul@grs+3,f,c
  1824  001080  5018               	movf	___flmul@a+2,w,c
  1825  001082  0213               	mulwf	___flmul@b+1,c
  1826  001084  CFF3 F029          	movff	prodl,___flmul@temp
  1827  001088  CFF4 F02A          	movff	prodh,___flmul@temp+1
  1828  00108C  5029               	movf	___flmul@temp,w,c
  1829  00108E  2625               	addwf	___flmul@prod,f,c
  1830  001090  502A               	movf	___flmul@temp+1,w,c
  1831  001092  2226               	addwfc	___flmul@prod+1,f,c
  1832  001094  0E00               	movlw	0
  1833  001096  2227               	addwfc	___flmul@prod+2,f,c
  1834  001098  0E00               	movlw	0
  1835  00109A  2228               	addwfc	___flmul@prod+3,f,c
  1836  00109C  5017               	movf	___flmul@a+1,w,c
  1837  00109E  0214               	mulwf	___flmul@b+2,c
  1838  0010A0  CFF3 F029          	movff	prodl,___flmul@temp
  1839  0010A4  CFF4 F02A          	movff	prodh,___flmul@temp+1
  1840  0010A8  5029               	movf	___flmul@temp,w,c
  1841  0010AA  2625               	addwf	___flmul@prod,f,c
  1842  0010AC  502A               	movf	___flmul@temp+1,w,c
  1843  0010AE  2226               	addwfc	___flmul@prod+1,f,c
  1844  0010B0  0E00               	movlw	0
  1845  0010B2  2227               	addwfc	___flmul@prod+2,f,c
  1846  0010B4  0E00               	movlw	0
  1847  0010B6  2228               	addwfc	___flmul@prod+3,f,c
  1848  0010B8  5018               	movf	___flmul@a+2,w,c
  1849  0010BA  0214               	mulwf	___flmul@b+2,c
  1850  0010BC  CFF3 F029          	movff	prodl,___flmul@temp
  1851  0010C0  CFF4 F02A          	movff	prodh,___flmul@temp+1
  1852  0010C4  5029               	movf	___flmul@temp,w,c
  1853  0010C6  6E1A               	movwf	??___flmul& (0+255),c
  1854  0010C8  502A               	movf	___flmul@temp+1,w,c
  1855  0010CA  6E1B               	movwf	(??___flmul+1)& (0+255),c
  1856  0010CC  6A1C               	clrf	(??___flmul+2)& (0+255),c
  1857  0010CE  6A1D               	clrf	(??___flmul+3)& (0+255),c
  1858  0010D0  C01C  F01D         	movff	??___flmul+2,??___flmul+3
  1859  0010D4  C01B  F01C         	movff	??___flmul+1,??___flmul+2
  1860  0010D8  C01A  F01B         	movff	??___flmul,??___flmul+1
  1861  0010DC  6A1A               	clrf	??___flmul,c
  1862  0010DE  501A               	movf	??___flmul,w,c
  1863  0010E0  2625               	addwf	___flmul@prod,f,c
  1864  0010E2  501B               	movf	??___flmul+1,w,c
  1865  0010E4  2226               	addwfc	___flmul@prod+1,f,c
  1866  0010E6  501C               	movf	??___flmul+2,w,c
  1867  0010E8  2227               	addwfc	___flmul@prod+2,f,c
  1868  0010EA  501D               	movf	??___flmul+3,w,c
  1869  0010EC  2228               	addwfc	___flmul@prod+3,f,c
  1870  0010EE  C01F  F01A         	movff	___flmul@grs,??___flmul
  1871  0010F2  C020  F01B         	movff	___flmul@grs+1,??___flmul+1
  1872  0010F6  C021  F01C         	movff	___flmul@grs+2,??___flmul+2
  1873  0010FA  C022  F01D         	movff	___flmul@grs+3,??___flmul+3
  1874  0010FE  0E19               	movlw	25
  1875  001100  D005               	goto	u2340
  1876  001102                     u2345:
  1877  001102  90D8               	bcf	status,0,c
  1878  001104  321D               	rrcf	??___flmul+3,f,c
  1879  001106  321C               	rrcf	??___flmul+2,f,c
  1880  001108  321B               	rrcf	??___flmul+1,f,c
  1881  00110A  321A               	rrcf	??___flmul,f,c
  1882  00110C                     u2340:
  1883  00110C  2EE8               	decfsz	wreg,f,c
  1884  00110E  D7F9               	goto	u2345
  1885  001110  501A               	movf	??___flmul,w,c
  1886  001112  2625               	addwf	___flmul@prod,f,c
  1887  001114  501B               	movf	??___flmul+1,w,c
  1888  001116  2226               	addwfc	___flmul@prod+1,f,c
  1889  001118  501C               	movf	??___flmul+2,w,c
  1890  00111A  2227               	addwfc	___flmul@prod+2,f,c
  1891  00111C  501D               	movf	??___flmul+3,w,c
  1892  00111E  2228               	addwfc	___flmul@prod+3,f,c
  1893  001120  C021  F022         	movff	___flmul@grs+2,___flmul@grs+3
  1894  001124  C020  F021         	movff	___flmul@grs+1,___flmul@grs+2
  1895  001128  C01F  F020         	movff	___flmul@grs,___flmul@grs+1
  1896  00112C  6A1F               	clrf	___flmul@grs,c
  1897  00112E  5023               	movf	___flmul@aexp,w,c
  1898  001130  C024  F01A         	movff	___flmul@bexp,??___flmul
  1899  001134  6A1B               	clrf	(??___flmul+1)& (0+255),c
  1900  001136  261A               	addwf	??___flmul,f,c
  1901  001138  0E00               	movlw	0
  1902  00113A  221B               	addwfc	??___flmul+1,f,c
  1903  00113C  0E82               	movlw	130
  1904  00113E  241A               	addwf	??___flmul,w,c
  1905  001140  6E29               	movwf	___flmul@temp,c
  1906  001142  0EFF               	movlw	255
  1907  001144  201B               	addwfc	??___flmul+1,w,c
  1908  001146  6E2A               	movwf	___flmul@temp+1,c
  1909  001148  D00F               	goto	l2690
  1910  00114A                     l2684:
  1911  00114A  90D8               	bcf	status,0,c
  1912  00114C  3625               	rlcf	___flmul@prod,f,c
  1913  00114E  3626               	rlcf	___flmul@prod+1,f,c
  1914  001150  3627               	rlcf	___flmul@prod+2,f,c
  1915  001152  3628               	rlcf	___flmul@prod+3,f,c
  1916  001154  BE22               	btfsc	___flmul@grs+3,7,c
  1917  001156  8025               	bsf	___flmul@prod,0,c
  1918  001158  90D8               	bcf	status,0,c
  1919  00115A  361F               	rlcf	___flmul@grs,f,c
  1920  00115C  3620               	rlcf	___flmul@grs+1,f,c
  1921  00115E  3621               	rlcf	___flmul@grs+2,f,c
  1922  001160  3622               	rlcf	___flmul@grs+3,f,c
  1923  001162  0629               	decf	___flmul@temp,f,c
  1924  001164  A0D8               	btfss	status,0,c
  1925  001166  062A               	decf	___flmul@temp+1,f,c
  1926  001168                     l2690:
  1927  001168  AE27               	btfss	___flmul@prod+2,7,c
  1928  00116A  D7EF               	goto	l2684
  1929  00116C  0E00               	movlw	0
  1930  00116E  6E23               	movwf	___flmul@aexp,c
  1931  001170  AE22               	btfss	___flmul@grs+3,7,c
  1932  001172  D017               	goto	l921
  1933  001174  0EFF               	movlw	255
  1934  001176  141F               	andwf	___flmul@grs,w,c
  1935  001178  6E1A               	movwf	??___flmul& (0+255),c
  1936  00117A  0EFF               	movlw	255
  1937  00117C  1420               	andwf	___flmul@grs+1,w,c
  1938  00117E  6E1B               	movwf	(??___flmul+1)& (0+255),c
  1939  001180  0EFF               	movlw	255
  1940  001182  1421               	andwf	___flmul@grs+2,w,c
  1941  001184  6E1C               	movwf	(??___flmul+2)& (0+255),c
  1942  001186  0E7F               	movlw	127
  1943  001188  1422               	andwf	___flmul@grs+3,w,c
  1944  00118A  6E1D               	movwf	(??___flmul+3)& (0+255),c
  1945  00118C  501A               	movf	??___flmul,w,c
  1946  00118E  101B               	iorwf	??___flmul+1,w,c
  1947  001190  101C               	iorwf	??___flmul+2,w,c
  1948  001192  101D               	iorwf	??___flmul+3,w,c
  1949  001194  B4D8               	btfsc	status,2,c
  1950  001196  D003               	goto	l922
  1951  001198                     u2380:
  1952  001198  0E01               	movlw	1
  1953  00119A  6E23               	movwf	___flmul@aexp,c
  1954  00119C  D002               	goto	l921
  1955  00119E                     l922:
  1956  00119E  B025               	btfsc	___flmul@prod,0,c
  1957  0011A0  D7FB               	goto	u2380
  1958  0011A2                     l921:
  1959  0011A2  5023               	movf	___flmul@aexp,w,c
  1960  0011A4  B4D8               	btfsc	status,2,c
  1961  0011A6  D01F               	goto	l2710
  1962  0011A8  0E01               	movlw	1
  1963  0011AA  2625               	addwf	___flmul@prod,f,c
  1964  0011AC  0E00               	movlw	0
  1965  0011AE  2226               	addwfc	___flmul@prod+1,f,c
  1966  0011B0  2227               	addwfc	___flmul@prod+2,f,c
  1967  0011B2  2228               	addwfc	___flmul@prod+3,f,c
  1968  0011B4  A028               	btfss	___flmul@prod+3,0,c
  1969  0011B6  D017               	goto	l2710
  1970  0011B8  C025  F01A         	movff	___flmul@prod,??___flmul
  1971  0011BC  C026  F01B         	movff	___flmul@prod+1,??___flmul+1
  1972  0011C0  C027  F01C         	movff	___flmul@prod+2,??___flmul+2
  1973  0011C4  C028  F01D         	movff	___flmul@prod+3,??___flmul+3
  1974  0011C8  341D               	rlcf	??___flmul+3,w,c
  1975  0011CA  321D               	rrcf	??___flmul+3,f,c
  1976  0011CC  321C               	rrcf	??___flmul+2,f,c
  1977  0011CE  321B               	rrcf	??___flmul+1,f,c
  1978  0011D0  321A               	rrcf	??___flmul,f,c
  1979  0011D2  C01A  F025         	movff	??___flmul,___flmul@prod
  1980  0011D6  C01B  F026         	movff	??___flmul+1,___flmul@prod+1
  1981  0011DA  C01C  F027         	movff	??___flmul+2,___flmul@prod+2
  1982  0011DE  C01D  F028         	movff	??___flmul+3,___flmul@prod+3
  1983  0011E2  4A29               	infsnz	___flmul@temp,f,c
  1984  0011E4  2A2A               	incf	___flmul@temp+1,f,c
  1985  0011E6                     l2710:
  1986  0011E6  BE2A               	btfsc	___flmul@temp+1,7,c
  1987  0011E8  D00D               	goto	l2714
  1988  0011EA  502A               	movf	___flmul@temp+1,w,c
  1989  0011EC  E103               	bnz	u2420
  1990  0011EE  2829               	incf	___flmul@temp,w,c
  1991  0011F0  A0D8               	btfss	status,0,c
  1992  0011F2  D008               	goto	l2714
  1993  0011F4                     u2420:
  1994  0011F4  0E00               	movlw	0
  1995  0011F6  6E25               	movwf	___flmul@prod,c
  1996  0011F8  0E00               	movlw	0
  1997  0011FA  6E26               	movwf	___flmul@prod+1,c
  1998  0011FC  0E80               	movlw	128
  1999  0011FE  6E27               	movwf	___flmul@prod+2,c
  2000  001200  0E7F               	movlw	127
  2001  001202  D020               	goto	L1
  2002  001204                     l2714:
  2003  001204  BE2A               	btfsc	___flmul@temp+1,7,c
  2004  001206  D005               	goto	u2430
  2005  001208  502A               	movf	___flmul@temp+1,w,c
  2006  00120A  E10E               	bnz	l929
  2007  00120C  0429               	decf	___flmul@temp,w,c
  2008  00120E  B0D8               	btfsc	status,0,c
  2009  001210  D00B               	goto	l929
  2010  001212                     u2430:
  2011  001212  0E00               	movlw	0
  2012  001214  6E25               	movwf	___flmul@prod,c
  2013  001216  0E00               	movlw	0
  2014  001218  6E26               	movwf	___flmul@prod+1,c
  2015  00121A  0E00               	movlw	0
  2016  00121C  6E27               	movwf	___flmul@prod+2,c
  2017  00121E  0E00               	movlw	0
  2018  001220  6E28               	movwf	___flmul@prod+3,c
  2019  001222  0E00               	movlw	0
  2020  001224  6E1E               	movwf	___flmul@sign,c
  2021  001226  D00F               	goto	l2726
  2022  001228                     l929:
  2023  001228  C029  F024         	movff	___flmul@temp,___flmul@bexp
  2024  00122C  0EFF               	movlw	255
  2025  00122E  1625               	andwf	___flmul@prod,f,c
  2026  001230  0EFF               	movlw	255
  2027  001232  1626               	andwf	___flmul@prod+1,f,c
  2028  001234  0E7F               	movlw	127
  2029  001236  1627               	andwf	___flmul@prod+2,f,c
  2030  001238  0E00               	movlw	0
  2031  00123A  1628               	andwf	___flmul@prod+3,f,c
  2032  00123C  B024               	btfsc	___flmul@bexp,0,c
  2033  00123E  8E27               	bsf	___flmul@prod+2,7,c
  2034  001240  90D8               	bcf	status,0,c
  2035  001242  3024               	rrcf	___flmul@bexp,w,c
  2036  001244                     L1:
  2037  001244  6E28               	movwf	___flmul@prod+3,c
  2038  001246                     l2726:
  2039  001246  501E               	movf	___flmul@sign,w,c
  2040  001248  1228               	iorwf	___flmul@prod+3,f,c
  2041  00124A  C025  F012         	movff	___flmul@prod,?___flmul
  2042  00124E  C026  F013         	movff	___flmul@prod+1,?___flmul+1
  2043  001252  C027  F014         	movff	___flmul@prod+2,?___flmul+2
  2044  001256  C028  F015         	movff	___flmul@prod+3,?___flmul+3
  2045  00125A  0012               	return		;funcret
  2046  00125C                     __end_of___flmul:
  2047                           	opt callstack 0
  2048                           
  2049 ;; *************** function ___fladd *****************
  2050 ;; Defined at:
  2051 ;;		line 10 in file "C:\Program Files (x86)\Microchip\xc8\v2.05\pic\sources\c99\common\sprcadd.c"
  2052 ;; Parameters:    Size  Location     Type
  2053 ;;  b               4   42[COMRAM] unsigned char 
  2054 ;;  a               4   46[COMRAM] unsigned char 
  2055 ;; Auto vars:     Size  Location     Type
  2056 ;;  grs             1   57[COMRAM] unsigned char 
  2057 ;;  bexp            1   56[COMRAM] unsigned char 
  2058 ;;  aexp            1   55[COMRAM] unsigned char 
  2059 ;;  signs           1   54[COMRAM] unsigned char 
  2060 ;; Return value:  Size  Location     Type
  2061 ;;                  4   42[COMRAM] unsigned char 
  2062 ;; Registers used:
  2063 ;;		wreg, status,2, status,0
  2064 ;; Tracked objects:
  2065 ;;		On entry : 0/0
  2066 ;;		On exit  : 0/0
  2067 ;;		Unchanged: 0/0
  2068 ;; Data sizes:     COMRAM   BANK0   BANK1   BANK2   BANK3   BANK4   BANK5   BANK6   BANK7   BANK8   BANK9  BANK10  BANK1
      +1  BANK12  BANK13  BANK14
  2069 ;;      Params:         8       0       0       0       0       0       0       0       0       0       0       0       
      +0       0       0       0
  2070 ;;      Locals:         4       0       0       0       0       0       0       0       0       0       0       0       
      +0       0       0       0
  2071 ;;      Temps:          4       0       0       0       0       0       0       0       0       0       0       0       
      +0       0       0       0
  2072 ;;      Totals:        16       0       0       0       0       0       0       0       0       0       0       0       
      +0       0       0       0
  2073 ;;Total ram usage:       16 bytes
  2074 ;; Hardware stack levels used:    1
  2075 ;; Hardware stack levels required when called:    1
  2076 ;; This function calls:
  2077 ;;		Nothing
  2078 ;; This function is called by:
  2079 ;;		_fijarVelocidad
  2080 ;; This function uses a non-reentrant model
  2081 ;;
  2082                           
  2083                           	psect	text7
  2084  0015AC                     __ptext7:
  2085                           	opt callstack 0
  2086  0015AC                     ___fladd:
  2087                           	opt callstack 27
  2088                           
  2089                           ;incstack = 0
  2090  0015AC  502E               	movf	___fladd@b+3,w,c
  2091  0015AE  0B80               	andlw	128
  2092  0015B0  6E37               	movwf	___fladd@signs,c
  2093  0015B2  502E               	movf	___fladd@b+3,w,c
  2094  0015B4  242E               	addwf	___fladd@b+3,w,c
  2095  0015B6  6E39               	movwf	___fladd@bexp,c
  2096  0015B8  BE2D               	btfsc	___fladd@b+2,7,c
  2097  0015BA  8039               	bsf	___fladd@bexp,0,c
  2098  0015BC  5039               	movf	___fladd@bexp,w,c
  2099  0015BE  B4D8               	btfsc	status,2,c
  2100  0015C0  D00D               	goto	l2416
  2101  0015C2  2839               	incf	___fladd@bexp,w,c
  2102  0015C4  A4D8               	btfss	status,2,c
  2103  0015C6  D008               	goto	l2412
  2104  0015C8  0E00               	movlw	0
  2105  0015CA  6E2B               	movwf	___fladd@b,c
  2106  0015CC  0E00               	movlw	0
  2107  0015CE  6E2C               	movwf	___fladd@b+1,c
  2108  0015D0  0E00               	movlw	0
  2109  0015D2  6E2D               	movwf	___fladd@b+2,c
  2110  0015D4  0E00               	movlw	0
  2111  0015D6  6E2E               	movwf	___fladd@b+3,c
  2112  0015D8                     l2412:
  2113  0015D8  8E2D               	bsf	___fladd@b+2,7,c
  2114  0015DA  D006               	goto	L2
  2115  0015DC                     l2416:
  2116  0015DC  0E00               	movlw	0
  2117  0015DE  6E2B               	movwf	___fladd@b,c
  2118  0015E0  0E00               	movlw	0
  2119  0015E2  6E2C               	movwf	___fladd@b+1,c
  2120  0015E4  0E00               	movlw	0
  2121  0015E6  6E2D               	movwf	___fladd@b+2,c
  2122  0015E8                     L2:
  2123  0015E8  0E00               	movlw	0
  2124  0015EA  6E2E               	movwf	___fladd@b+3,c
  2125  0015EC  5032               	movf	___fladd@a+3,w,c
  2126  0015EE  0B80               	andlw	128
  2127  0015F0  6E38               	movwf	___fladd@aexp,c
  2128  0015F2  5037               	movf	___fladd@signs,w,c
  2129  0015F4  1838               	xorwf	___fladd@aexp,w,c
  2130  0015F6  A4D8               	btfss	status,2,c
  2131  0015F8  8C37               	bsf	___fladd@signs,6,c
  2132  0015FA  5032               	movf	___fladd@a+3,w,c
  2133  0015FC  2432               	addwf	___fladd@a+3,w,c
  2134  0015FE  6E38               	movwf	___fladd@aexp,c
  2135  001600  BE31               	btfsc	___fladd@a+2,7,c
  2136  001602  8038               	bsf	___fladd@aexp,0,c
  2137  001604  5038               	movf	___fladd@aexp,w,c
  2138  001606  B4D8               	btfsc	status,2,c
  2139  001608  D00D               	goto	l2440
  2140  00160A  2838               	incf	___fladd@aexp,w,c
  2141  00160C  A4D8               	btfss	status,2,c
  2142  00160E  D008               	goto	l2436
  2143  001610  0E00               	movlw	0
  2144  001612  6E2F               	movwf	___fladd@a,c
  2145  001614  0E00               	movlw	0
  2146  001616  6E30               	movwf	___fladd@a+1,c
  2147  001618  0E00               	movlw	0
  2148  00161A  6E31               	movwf	___fladd@a+2,c
  2149  00161C  0E00               	movlw	0
  2150  00161E  6E32               	movwf	___fladd@a+3,c
  2151  001620                     l2436:
  2152  001620  8E31               	bsf	___fladd@a+2,7,c
  2153  001622  D006               	goto	L3
  2154  001624                     l2440:
  2155  001624  0E00               	movlw	0
  2156  001626  6E2F               	movwf	___fladd@a,c
  2157  001628  0E00               	movlw	0
  2158  00162A  6E30               	movwf	___fladd@a+1,c
  2159  00162C  0E00               	movlw	0
  2160  00162E  6E31               	movwf	___fladd@a+2,c
  2161  001630                     L3:
  2162  001630  0E00               	movlw	0
  2163  001632  6E32               	movwf	___fladd@a+3,c
  2164  001634  5039               	movf	___fladd@bexp,w,c
  2165  001636  5C38               	subwf	___fladd@aexp,w,c
  2166  001638  B0D8               	btfsc	status,0,c
  2167  00163A  D022               	goto	l2478
  2168  00163C  AC37               	btfss	___fladd@signs,6,c
  2169  00163E  D002               	goto	l2448
  2170  001640  0E80               	movlw	128
  2171  001642  1A37               	xorwf	___fladd@signs,f,c
  2172  001644                     l2448:
  2173  001644  C039  F03A         	movff	___fladd@bexp,___fladd@grs
  2174  001648  C038  F039         	movff	___fladd@aexp,___fladd@bexp
  2175  00164C  C03A  F038         	movff	___fladd@grs,___fladd@aexp
  2176  001650  C02B  F03A         	movff	___fladd@b,___fladd@grs
  2177  001654  C02F  F02B         	movff	___fladd@a,___fladd@b
  2178  001658  C03A  F02F         	movff	___fladd@grs,___fladd@a
  2179  00165C  C02C  F03A         	movff	___fladd@b+1,___fladd@grs
  2180  001660  C030  F02C         	movff	___fladd@a+1,___fladd@b+1
  2181  001664  C03A  F030         	movff	___fladd@grs,___fladd@a+1
  2182  001668  C02D  F03A         	movff	___fladd@b+2,___fladd@grs
  2183  00166C  C031  F02D         	movff	___fladd@a+2,___fladd@b+2
  2184  001670  C03A  F031         	movff	___fladd@grs,___fladd@a+2
  2185  001674  C02E  F03A         	movff	___fladd@b+3,___fladd@grs
  2186  001678  C032  F02E         	movff	___fladd@a+3,___fladd@b+3
  2187  00167C  C03A  F032         	movff	___fladd@grs,___fladd@a+3
  2188  001680                     l2478:
  2189  001680  0E00               	movlw	0
  2190  001682  6E3A               	movwf	___fladd@grs,c
  2191  001684  5039               	movf	___fladd@bexp,w,c
  2192  001686  C038  F033         	movff	___fladd@aexp,??___fladd
  2193  00168A  6A34               	clrf	(??___fladd+1)& (0+255),c
  2194  00168C  5E33               	subwf	??___fladd,f,c
  2195  00168E  0E00               	movlw	0
  2196  001690  5A34               	subwfb	??___fladd+1,f,c
  2197  001692  BE34               	btfsc	??___fladd+1,7,c
  2198  001694  D02C               	goto	l827
  2199  001696  5034               	movf	??___fladd+1,w,c
  2200  001698  E104               	bnz	u1960
  2201  00169A  0E1A               	movlw	26
  2202  00169C  5C33               	subwf	??___fladd,w,c
  2203  00169E  A0D8               	btfss	status,0,c
  2204  0016A0  D026               	goto	l827
  2205  0016A2                     u1960:
  2206  0016A2  502B               	movf	___fladd@b,w,c
  2207  0016A4  102C               	iorwf	___fladd@b+1,w,c
  2208  0016A6  102D               	iorwf	___fladd@b+2,w,c
  2209  0016A8  102E               	iorwf	___fladd@b+3,w,c
  2210  0016AA  B4D8               	btfsc	status,2,c
  2211  0016AC  D002               	goto	u1970
  2212  0016AE  0E01               	movlw	1
  2213  0016B0  D001               	goto	u1980
  2214  0016B2                     u1970:
  2215  0016B2  0E00               	movlw	0
  2216  0016B4                     u1980:
  2217  0016B4  6E3A               	movwf	___fladd@grs,c
  2218  0016B6  0E00               	movlw	0
  2219  0016B8  6E2B               	movwf	___fladd@b,c
  2220  0016BA  0E00               	movlw	0
  2221  0016BC  6E2C               	movwf	___fladd@b+1,c
  2222  0016BE  0E00               	movlw	0
  2223  0016C0  6E2D               	movwf	___fladd@b+2,c
  2224  0016C2  0E00               	movlw	0
  2225  0016C4  6E2E               	movwf	___fladd@b+3,c
  2226  0016C6  C038  F039         	movff	___fladd@aexp,___fladd@bexp
  2227  0016CA  D015               	goto	u2010
  2228  0016CC                     l828:
  2229  0016CC  A03A               	btfss	___fladd@grs,0,c
  2230  0016CE  D005               	goto	l2490
  2231  0016D0  90D8               	bcf	status,0,c
  2232  0016D2  303A               	rrcf	___fladd@grs,w,c
  2233  0016D4  0901               	iorlw	1
  2234  0016D6  6E3A               	movwf	___fladd@grs,c
  2235  0016D8  D002               	goto	l2492
  2236  0016DA                     l2490:
  2237  0016DA  90D8               	bcf	status,0,c
  2238  0016DC  323A               	rrcf	___fladd@grs,f,c
  2239  0016DE                     l2492:
  2240  0016DE  B02B               	btfsc	___fladd@b,0,c
  2241  0016E0  8E3A               	bsf	___fladd@grs,7,c
  2242  0016E2  342E               	rlcf	___fladd@b+3,w,c
  2243  0016E4  322E               	rrcf	___fladd@b+3,f,c
  2244  0016E6  322D               	rrcf	___fladd@b+2,f,c
  2245  0016E8  322C               	rrcf	___fladd@b+1,f,c
  2246  0016EA  322B               	rrcf	___fladd@b,f,c
  2247  0016EC  2A39               	incf	___fladd@bexp,f,c
  2248  0016EE                     l827:
  2249  0016EE  5038               	movf	___fladd@aexp,w,c
  2250  0016F0  5C39               	subwf	___fladd@bexp,w,c
  2251  0016F2  A0D8               	btfss	status,0,c
  2252  0016F4  D7EB               	goto	l828
  2253  0016F6                     u2010:
  2254  0016F6  BC37               	btfsc	___fladd@signs,6,c
  2255  0016F8  D028               	goto	l2524
  2256  0016FA  5039               	movf	___fladd@bexp,w,c
  2257  0016FC  A4D8               	btfss	status,2,c
  2258  0016FE  D009               	goto	l2506
  2259  001700  0E00               	movlw	0
  2260  001702  6E2B               	movwf	?___fladd,c
  2261  001704  0E00               	movlw	0
  2262  001706  6E2C               	movwf	?___fladd+1,c
  2263  001708  0E00               	movlw	0
  2264  00170A  6E2D               	movwf	?___fladd+2,c
  2265  00170C  0E00               	movlw	0
  2266  00170E  6E2E               	movwf	?___fladd+3,c
  2267  001710  0012               	return	
  2268  001712                     l2506:
  2269  001712  502F               	movf	___fladd@a,w,c
  2270  001714  262B               	addwf	___fladd@b,f,c
  2271  001716  5030               	movf	___fladd@a+1,w,c
  2272  001718  222C               	addwfc	___fladd@b+1,f,c
  2273  00171A  5031               	movf	___fladd@a+2,w,c
  2274  00171C  222D               	addwfc	___fladd@b+2,f,c
  2275  00171E  5032               	movf	___fladd@a+3,w,c
  2276  001720  222E               	addwfc	___fladd@b+3,f,c
  2277  001722  A02E               	btfss	___fladd@b+3,0,c
  2278  001724  D071               	goto	u2140
  2279  001726  A03A               	btfss	___fladd@grs,0,c
  2280  001728  D005               	goto	l2514
  2281  00172A  90D8               	bcf	status,0,c
  2282  00172C  303A               	rrcf	___fladd@grs,w,c
  2283  00172E  0901               	iorlw	1
  2284  001730  6E3A               	movwf	___fladd@grs,c
  2285  001732  D002               	goto	l2516
  2286  001734                     l2514:
  2287  001734  90D8               	bcf	status,0,c
  2288  001736  323A               	rrcf	___fladd@grs,f,c
  2289  001738                     l2516:
  2290  001738  B02B               	btfsc	___fladd@b,0,c
  2291  00173A  8E3A               	bsf	___fladd@grs,7,c
  2292  00173C  342E               	rlcf	___fladd@b+3,w,c
  2293  00173E  322E               	rrcf	___fladd@b+3,f,c
  2294  001740  322D               	rrcf	___fladd@b+2,f,c
  2295  001742  322C               	rrcf	___fladd@b+1,f,c
  2296  001744  322B               	rrcf	___fladd@b,f,c
  2297  001746  2A39               	incf	___fladd@bexp,f,c
  2298  001748  D05F               	goto	u2140
  2299  00174A                     l2524:
  2300  00174A  502F               	movf	___fladd@a,w,c
  2301  00174C  5C2B               	subwf	___fladd@b,w,c
  2302  00174E  5030               	movf	___fladd@a+1,w,c
  2303  001750  582C               	subwfb	___fladd@b+1,w,c
  2304  001752  5031               	movf	___fladd@a+2,w,c
  2305  001754  582D               	subwfb	___fladd@b+2,w,c
  2306  001756  502E               	movf	___fladd@b+3,w,c
  2307  001758  0A80               	xorlw	128
  2308  00175A  6E33               	movwf	??___fladd& (0+255),c
  2309  00175C  5032               	movf	___fladd@a+3,w,c
  2310  00175E  0A80               	xorlw	128
  2311  001760  5833               	subwfb	??___fladd& (0+255),w,c
  2312  001762  B0D8               	btfsc	status,0,c
  2313  001764  D025               	goto	l2534
  2314  001766  502B               	movf	___fladd@b,w,c
  2315  001768  5C2F               	subwf	___fladd@a,w,c
  2316  00176A  6E33               	movwf	??___fladd& (0+255),c
  2317  00176C  502C               	movf	___fladd@b+1,w,c
  2318  00176E  5830               	subwfb	___fladd@a+1,w,c
  2319  001770  6E34               	movwf	(??___fladd+1)& (0+255),c
  2320  001772  502D               	movf	___fladd@b+2,w,c
  2321  001774  5831               	subwfb	___fladd@a+2,w,c
  2322  001776  6E35               	movwf	(??___fladd+2)& (0+255),c
  2323  001778  502E               	movf	___fladd@b+3,w,c
  2324  00177A  5832               	subwfb	___fladd@a+3,w,c
  2325  00177C  6E36               	movwf	(??___fladd+3)& (0+255),c
  2326  00177E  0EFF               	movlw	255
  2327  001780  2433               	addwf	??___fladd,w,c
  2328  001782  6E2B               	movwf	___fladd@b,c
  2329  001784  0EFF               	movlw	255
  2330  001786  2034               	addwfc	??___fladd+1,w,c
  2331  001788  6E2C               	movwf	___fladd@b+1,c
  2332  00178A  0EFF               	movlw	255
  2333  00178C  2035               	addwfc	??___fladd+2,w,c
  2334  00178E  6E2D               	movwf	___fladd@b+2,c
  2335  001790  0EFF               	movlw	255
  2336  001792  2036               	addwfc	??___fladd+3,w,c
  2337  001794  6E2E               	movwf	___fladd@b+3,c
  2338  001796  0E80               	movlw	128
  2339  001798  1A37               	xorwf	___fladd@signs,f,c
  2340  00179A  6C3A               	negf	___fladd@grs,c
  2341  00179C  503A               	movf	___fladd@grs,w,c
  2342  00179E  A4D8               	btfss	status,2,c
  2343  0017A0  D00F               	goto	l843
  2344  0017A2  0E01               	movlw	1
  2345  0017A4  262B               	addwf	___fladd@b,f,c
  2346  0017A6  0E00               	movlw	0
  2347  0017A8  222C               	addwfc	___fladd@b+1,f,c
  2348  0017AA  222D               	addwfc	___fladd@b+2,f,c
  2349  0017AC  222E               	addwfc	___fladd@b+3,f,c
  2350  0017AE  D008               	goto	l843
  2351  0017B0                     l2534:
  2352  0017B0  502F               	movf	___fladd@a,w,c
  2353  0017B2  5E2B               	subwf	___fladd@b,f,c
  2354  0017B4  5030               	movf	___fladd@a+1,w,c
  2355  0017B6  5A2C               	subwfb	___fladd@b+1,f,c
  2356  0017B8  5031               	movf	___fladd@a+2,w,c
  2357  0017BA  5A2D               	subwfb	___fladd@b+2,f,c
  2358  0017BC  5032               	movf	___fladd@a+3,w,c
  2359  0017BE  5A2E               	subwfb	___fladd@b+3,f,c
  2360  0017C0                     l843:
  2361  0017C0  502B               	movf	___fladd@b,w,c
  2362  0017C2  102C               	iorwf	___fladd@b+1,w,c
  2363  0017C4  102D               	iorwf	___fladd@b+2,w,c
  2364  0017C6  102E               	iorwf	___fladd@b+3,w,c
  2365  0017C8  A4D8               	btfss	status,2,c
  2366  0017CA  D01C               	goto	l2558
  2367  0017CC  503A               	movf	___fladd@grs,w,c
  2368  0017CE  A4D8               	btfss	status,2,c
  2369  0017D0  D019               	goto	l2558
  2370  0017D2  0E00               	movlw	0
  2371  0017D4  6E2B               	movwf	?___fladd,c
  2372  0017D6  0E00               	movlw	0
  2373  0017D8  6E2C               	movwf	?___fladd+1,c
  2374  0017DA  0E00               	movlw	0
  2375  0017DC  6E2D               	movwf	?___fladd+2,c
  2376  0017DE  0E00               	movlw	0
  2377  0017E0  6E2E               	movwf	?___fladd+3,c
  2378  0017E2  0012               	return	
  2379  0017E4                     l2542:
  2380  0017E4  90D8               	bcf	status,0,c
  2381  0017E6  362B               	rlcf	___fladd@b,f,c
  2382  0017E8  362C               	rlcf	___fladd@b+1,f,c
  2383  0017EA  362D               	rlcf	___fladd@b+2,f,c
  2384  0017EC  362E               	rlcf	___fladd@b+3,f,c
  2385  0017EE  BE3A               	btfsc	___fladd@grs,7,c
  2386  0017F0  802B               	bsf	___fladd@b,0,c
  2387  0017F2  A03A               	btfss	___fladd@grs,0,c
  2388  0017F4  D002               	goto	l2552
  2389  0017F6  80D8               	bsf	status,0,c
  2390  0017F8  D001               	goto	L4
  2391  0017FA                     l2552:
  2392  0017FA  90D8               	bcf	status,0,c
  2393  0017FC                     L4:
  2394  0017FC  363A               	rlcf	___fladd@grs,f,c
  2395  0017FE  5039               	movf	___fladd@bexp,w,c
  2396  001800  A4D8               	btfss	status,2,c
  2397  001802  0639               	decf	___fladd@bexp,f,c
  2398  001804                     l2558:
  2399  001804  AE2D               	btfss	___fladd@b+2,7,c
  2400  001806  D7EE               	goto	l2542
  2401  001808                     u2140:
  2402  001808  0E00               	movlw	0
  2403  00180A  6E38               	movwf	___fladd@aexp,c
  2404  00180C  AE3A               	btfss	___fladd@grs,7,c
  2405  00180E  D00B               	goto	l852
  2406  001810  C03A  F033         	movff	___fladd@grs,??___fladd
  2407  001814  0E7F               	movlw	127
  2408  001816  1633               	andwf	??___fladd,f,c
  2409  001818  B4D8               	btfsc	status,2,c
  2410  00181A  D003               	goto	l853
  2411  00181C                     u2160:
  2412  00181C  0E01               	movlw	1
  2413  00181E  6E38               	movwf	___fladd@aexp,c
  2414  001820  D002               	goto	l852
  2415  001822                     l853:
  2416  001822  B02B               	btfsc	___fladd@b,0,c
  2417  001824  D7FB               	goto	u2160
  2418  001826                     l852:
  2419  001826  5038               	movf	___fladd@aexp,w,c
  2420  001828  B4D8               	btfsc	status,2,c
  2421  00182A  D020               	goto	l2578
  2422  00182C  0E01               	movlw	1
  2423  00182E  262B               	addwf	___fladd@b,f,c
  2424  001830  0E00               	movlw	0
  2425  001832  222C               	addwfc	___fladd@b+1,f,c
  2426  001834  222D               	addwfc	___fladd@b+2,f,c
  2427  001836  222E               	addwfc	___fladd@b+3,f,c
  2428  001838  A02E               	btfss	___fladd@b+3,0,c
  2429  00183A  D018               	goto	l2578
  2430  00183C  C02B  F033         	movff	___fladd@b,??___fladd
  2431  001840  C02C  F034         	movff	___fladd@b+1,??___fladd+1
  2432  001844  C02D  F035         	movff	___fladd@b+2,??___fladd+2
  2433  001848  C02E  F036         	movff	___fladd@b+3,??___fladd+3
  2434  00184C  3436               	rlcf	??___fladd+3,w,c
  2435  00184E  3236               	rrcf	??___fladd+3,f,c
  2436  001850  3235               	rrcf	??___fladd+2,f,c
  2437  001852  3234               	rrcf	??___fladd+1,f,c
  2438  001854  3233               	rrcf	??___fladd,f,c
  2439  001856  C033  F02B         	movff	??___fladd,___fladd@b
  2440  00185A  C034  F02C         	movff	??___fladd+1,___fladd@b+1
  2441  00185E  C035  F02D         	movff	??___fladd+2,___fladd@b+2
  2442  001862  C036  F02E         	movff	??___fladd+3,___fladd@b+3
  2443  001866  2839               	incf	___fladd@bexp,w,c
  2444  001868  A4D8               	btfss	status,2,c
  2445  00186A  2A39               	incf	___fladd@bexp,f,c
  2446  00186C                     l2578:
  2447  00186C  2839               	incf	___fladd@bexp,w,c
  2448  00186E  B4D8               	btfsc	status,2,c
  2449  001870  D003               	goto	u2220
  2450  001872  5039               	movf	___fladd@bexp,w,c
  2451  001874  A4D8               	btfss	status,2,c
  2452  001876  D00D               	goto	l2586
  2453  001878                     u2220:
  2454  001878  0E00               	movlw	0
  2455  00187A  6E2B               	movwf	___fladd@b,c
  2456  00187C  0E00               	movlw	0
  2457  00187E  6E2C               	movwf	___fladd@b+1,c
  2458  001880  0E00               	movlw	0
  2459  001882  6E2D               	movwf	___fladd@b+2,c
  2460  001884  0E00               	movlw	0
  2461  001886  6E2E               	movwf	___fladd@b+3,c
  2462  001888  5039               	movf	___fladd@bexp,w,c
  2463  00188A  A4D8               	btfss	status,2,c
  2464  00188C  D002               	goto	l2586
  2465  00188E  0E00               	movlw	0
  2466  001890  6E37               	movwf	___fladd@signs,c
  2467  001892                     l2586:
  2468  001892  A039               	btfss	___fladd@bexp,0,c
  2469  001894  D002               	goto	l2590
  2470  001896  8E2D               	bsf	___fladd@b+2,7,c
  2471  001898  D001               	goto	l2592
  2472  00189A                     l2590:
  2473  00189A  9E2D               	bcf	___fladd@b+2,7,c
  2474  00189C                     l2592:
  2475  00189C  90D8               	bcf	status,0,c
  2476  00189E  3039               	rrcf	___fladd@bexp,w,c
  2477  0018A0  6E2E               	movwf	___fladd@b+3,c
  2478  0018A2  BE37               	btfsc	___fladd@signs,7,c
  2479  0018A4  8E2E               	bsf	___fladd@b+3,7,c
  2480  0018A6  C02B  F02B         	movff	___fladd@b,?___fladd
  2481  0018AA  C02C  F02C         	movff	___fladd@b+1,?___fladd+1
  2482  0018AE  C02D  F02D         	movff	___fladd@b+2,?___fladd+2
  2483  0018B2  C02E  F02E         	movff	___fladd@b+3,?___fladd+3
  2484  0018B6  0012               	return		;funcret
  2485  0018B8                     __end_of___fladd:
  2486                           	opt callstack 0
  2487                           
  2488 ;; *************** function _dirreccion *****************
  2489 ;; Defined at:
  2490 ;;		line 153 in file "sensores.c"
  2491 ;; Parameters:    Size  Location     Type
  2492 ;;  degree          1    wreg     unsigned char 
  2493 ;; Auto vars:     Size  Location     Type
  2494 ;;  degree          1    5[COMRAM] unsigned char 
  2495 ;;  tiempo_1        1    6[COMRAM] unsigned char 
  2496 ;; Return value:  Size  Location     Type
  2497 ;;                  1    wreg      void 
  2498 ;; Registers used:
  2499 ;;		wreg, status,2, status,0
  2500 ;; Tracked objects:
  2501 ;;		On entry : 0/0
  2502 ;;		On exit  : 0/0
  2503 ;;		Unchanged: 0/0
  2504 ;; Data sizes:     COMRAM   BANK0   BANK1   BANK2   BANK3   BANK4   BANK5   BANK6   BANK7   BANK8   BANK9  BANK10  BANK1
      +1  BANK12  BANK13  BANK14
  2505 ;;      Params:         0       0       0       0       0       0       0       0       0       0       0       0       
      +0       0       0       0
  2506 ;;      Locals:         2       0       0       0       0       0       0       0       0       0       0       0       
      +0       0       0       0
  2507 ;;      Temps:          2       0       0       0       0       0       0       0       0       0       0       0       
      +0       0       0       0
  2508 ;;      Totals:         4       0       0       0       0       0       0       0       0       0       0       0       
      +0       0       0       0
  2509 ;;Total ram usage:        4 bytes
  2510 ;; Hardware stack levels used:    1
  2511 ;; Hardware stack levels required when called:    1
  2512 ;; This function calls:
  2513 ;;		Nothing
  2514 ;; This function is called by:
  2515 ;;		_terminal
  2516 ;; This function uses a non-reentrant model
  2517 ;;
  2518                           
  2519                           	psect	text8
  2520  0022EE                     __ptext8:
  2521                           	opt callstack 0
  2522  0022EE                     _dirreccion:
  2523                           	opt callstack 28
  2524                           
  2525                           ;incstack = 0
  2526                           ;dirreccion@degree stored from wreg
  2527  0022EE  6E06               	movwf	dirreccion@degree,c
  2528                           
  2529                           ;sensores.c: 154:     unsigned char tiempo_1 = 15;
  2530  0022F0  0E0F               	movlw	15
  2531  0022F2  6E07               	movwf	dirreccion@tiempo_1,c
  2532                           
  2533                           ;sensores.c: 155:     switch(degree){
  2534  0022F4  D007               	goto	l2874
  2535  0022F6                     l2866:
  2536                           
  2537                           ;sensores.c: 157:             tiempo_1 = 15;
  2538  0022F6  0E0F               	movlw	15
  2539  0022F8  D003               	goto	L6
  2540  0022FA                     l2868:
  2541                           
  2542                           ;sensores.c: 160:             tiempo_1 = 23;
  2543  0022FA  0E17               	movlw	23
  2544  0022FC  D001               	goto	L6
  2545  0022FE                     l2870:
  2546                           
  2547                           ;sensores.c: 163:             tiempo_1 = 5;
  2548  0022FE  0E05               	movlw	5
  2549  002300                     L6:
  2550  002300  6E07               	movwf	dirreccion@tiempo_1,c
  2551                           
  2552                           ;sensores.c: 164:             break;
  2553  002302  D011               	goto	l199
  2554  002304                     l2874:
  2555  002304  5006               	movf	dirreccion@degree,w,c
  2556  002306  6E04               	movwf	??_dirreccion& (0+255),c
  2557  002308  6A05               	clrf	(??_dirreccion+1)& (0+255),c
  2558                           
  2559                           ; Switch on 2 bytes has been partitioned into a top level switch of size 1, and 1 sub-sw
      +                          itches
  2560                           ; Switch size 1, requested type "simple"
  2561                           ; Number of cases is 1, Range of values is 0 to 0
  2562                           ; switch strategies available:
  2563                           ; Name         Instructions Cycles
  2564                           ; simple_byte            4     3 (average)
  2565                           ;	Chosen strategy is simple_byte
  2566  00230A  5005               	movf	??_dirreccion+1,w,c
  2567  00230C  0A00               	xorlw	0	; case 0
  2568  00230E  A4D8               	btfss	status,2,c
  2569  002310  D00A               	goto	l199
  2570                           
  2571                           ; Switch size 1, requested type "simple"
  2572                           ; Number of cases is 3, Range of values is 0 to 180
  2573                           ; switch strategies available:
  2574                           ; Name         Instructions Cycles
  2575                           ; simple_byte           10     6 (average)
  2576                           ;	Chosen strategy is simple_byte
  2577  002312  5004               	movf	??_dirreccion,w,c
  2578  002314  0A00               	xorlw	0	; case 0
  2579  002316  B4D8               	btfsc	status,2,c
  2580  002318  D7F0               	goto	l2868
  2581  00231A  0A5A               	xorlw	90	; case 90
  2582  00231C  B4D8               	btfsc	status,2,c
  2583  00231E  D7EB               	goto	l2866
  2584  002320  0AEE               	xorlw	238	; case 180
  2585  002322  B4D8               	btfsc	status,2,c
  2586  002324  D7EC               	goto	l2870
  2587  002326                     l199:
  2588                           
  2589                           ;sensores.c: 166:     if(PORTDbits.RD4 != 1){
  2590  002326  B883               	btfsc	3971,4,c	;volatile
  2591  002328  D006               	goto	l2878
  2592                           
  2593                           ;sensores.c: 167:         TIME_MAX = tiempo_1;
  2594  00232A  C007  F0F3         	movff	dirreccion@tiempo_1,_TIME_MAX
  2595  00232E  0100               	movlb	0	; () banked
  2596  002330  6BF4               	clrf	(_TIME_MAX+1)& (0+255),b
  2597                           
  2598                           ;sensores.c: 168:         PORTDbits.RD4 = 1;
  2599  002332  8883               	bsf	3971,4,c	;volatile
  2600                           
  2601                           ;sensores.c: 169:     }
  2602  002334  D00A               	goto	l2882
  2603  002336                     l2878:
  2604                           
  2605                           ;sensores.c: 171:         TIME_MAX = 200 - tiempo_1;
  2606  002336  5007               	movf	dirreccion@tiempo_1,w,c
  2607  002338  08C8               	sublw	200
  2608  00233A  0100               	movlb	0	; () banked
  2609  00233C  6FF3               	movwf	_TIME_MAX& (0+255),b
  2610  00233E  0E00               	movlw	0
  2611  002340  A0D8               	btfss	status,0,c
  2612  002342  2AE8               	incf	wreg,f,c
  2613  002344  0800               	sublw	0
  2614  002346  6FF4               	movwf	(_TIME_MAX+1)& (0+255),b
  2615                           
  2616                           ; BSR set to: 0
  2617                           ;sensores.c: 172:         PORTDbits.RD4 = 0;
  2618  002348  9883               	bcf	3971,4,c	;volatile
  2619  00234A                     l2882:
  2620                           
  2621                           ; BSR set to: 0
  2622                           ;sensores.c: 174:     contador_timer_5 = 0;
  2623  00234A  0E00               	movlw	0
  2624  00234C  6F91               	movwf	(_contador_timer_5+1)& (0+255),b
  2625  00234E  0E00               	movlw	0
  2626  002350  6F90               	movwf	_contador_timer_5& (0+255),b
  2627                           
  2628                           ; BSR set to: 0
  2629                           ;sensores.c: 175:     T5CONbits.TMR5ON = 1;
  2630  002352  010F               	movlb	15	; () banked
  2631  002354  8122               	bsf	34,0,b	;volatile
  2632                           
  2633                           ; BSR set to: 15
  2634  002356  0012               	return		;funcret
  2635  002358                     __end_of_dirreccion:
  2636                           	opt callstack 0
  2637                           
  2638 ;; *************** function _sprintf *****************
  2639 ;; Defined at:
  2640 ;;		line 9 in file "C:\Program Files (x86)\Microchip\xc8\v2.05\pic\sources\c99\common\nf_sprintf.c"
  2641 ;; Parameters:    Size  Location     Type
  2642 ;;  s               2    6[BANK0 ] PTR unsigned char 
  2643 ;;		 -> main@text_adc(20), 
  2644 ;;  fmt             2    8[BANK0 ] PTR const unsigned char 
  2645 ;;		 -> STR_1(7), 
  2646 ;; Auto vars:     Size  Location     Type
  2647 ;;  f               6   18[BANK0 ] struct _IO_FILE
  2648 ;;  ap              2   16[BANK0 ] PTR void [1]
  2649 ;;		 -> ?_sprintf(2), 
  2650 ;;  ret             2    0        int 
  2651 ;; Return value:  Size  Location     Type
  2652 ;;                  2    6[BANK0 ] int 
  2653 ;; Registers used:
  2654 ;;		wreg, fsr1l, fsr1h, fsr2l, fsr2h, status,2, status,0, tblptrl, tblptrh, tblptru, prodl, prodh, cstack
  2655 ;; Tracked objects:
  2656 ;;		On entry : 0/0
  2657 ;;		On exit  : 0/0
  2658 ;;		Unchanged: 0/0
  2659 ;; Data sizes:     COMRAM   BANK0   BANK1   BANK2   BANK3   BANK4   BANK5   BANK6   BANK7   BANK8   BANK9  BANK10  BANK1
      +1  BANK12  BANK13  BANK14
  2660 ;;      Params:         0       8       0       0       0       0       0       0       0       0       0       0       
      +0       0       0       0
  2661 ;;      Locals:         0      10       0       0       0       0       0       0       0       0       0       0       
      +0       0       0       0
  2662 ;;      Temps:          0       0       0       0       0       0       0       0       0       0       0       0       
      +0       0       0       0
  2663 ;;      Totals:         0      18       0       0       0       0       0       0       0       0       0       0       
      +0       0       0       0
  2664 ;;Total ram usage:       18 bytes
  2665 ;; Hardware stack levels used:    1
  2666 ;; Hardware stack levels required when called:    8
  2667 ;; This function calls:
  2668 ;;		_vfprintf
  2669 ;; This function is called by:
  2670 ;;		_main
  2671 ;; This function uses a non-reentrant model
  2672 ;;
  2673                           
  2674                           	psect	text9
  2675  0023B2                     __ptext9:
  2676                           	opt callstack 0
  2677  0023B2                     _sprintf:
  2678                           	opt callstack 22
  2679                           
  2680                           ; BSR set to: 15
  2681                           ;incstack = 0
  2682  0023B2  0ECE               	movlw	low (?_sprintf+4)
  2683  0023B4  0100               	movlb	0	; () banked
  2684  0023B6  6FD4               	movwf	sprintf@ap& (0+255),b
  2685  0023B8  0E00               	movlw	high (?_sprintf+4)
  2686  0023BA  6FD5               	movwf	(sprintf@ap+1)& (0+255),b
  2687  0023BC  C0CA  F0D6         	movff	sprintf@s,sprintf@f
  2688  0023C0  C0CB  F0D7         	movff	sprintf@s+1,sprintf@f+1
  2689                           
  2690                           ; BSR set to: 0
  2691  0023C4  0E00               	movlw	0
  2692  0023C6  6FD9               	movwf	(sprintf@f+3)& (0+255),b
  2693  0023C8  0E00               	movlw	0
  2694  0023CA  6FD8               	movwf	(sprintf@f+2)& (0+255),b
  2695                           
  2696                           ; BSR set to: 0
  2697  0023CC  0E00               	movlw	0
  2698  0023CE  6FDB               	movwf	(sprintf@f+5)& (0+255),b
  2699  0023D0  0E00               	movlw	0
  2700  0023D2  6FDA               	movwf	(sprintf@f+4)& (0+255),b
  2701                           
  2702                           ; BSR set to: 0
  2703  0023D4  0ED6               	movlw	low sprintf@f
  2704  0023D6  6FC4               	movwf	vfprintf@fp& (0+255),b
  2705  0023D8  0E00               	movlw	high sprintf@f
  2706  0023DA  6FC5               	movwf	(vfprintf@fp+1)& (0+255),b
  2707  0023DC  C0CC  F0C6         	movff	sprintf@fmt,vfprintf@fmt
  2708  0023E0  C0CD  F0C7         	movff	sprintf@fmt+1,vfprintf@fmt+1
  2709  0023E4  0ED4               	movlw	low sprintf@ap
  2710  0023E6  6FC8               	movwf	vfprintf@ap& (0+255),b
  2711  0023E8  0E00               	movlw	high sprintf@ap
  2712  0023EA  6FC9               	movwf	(vfprintf@ap+1)& (0+255),b
  2713  0023EC  ECAC  F011         	call	_vfprintf	;wreg free
  2714  0023F0  0100               	movlb	0	; () banked
  2715  0023F2  51D8               	movf	(sprintf@f+2)& (0+255),w,b
  2716  0023F4  25CA               	addwf	sprintf@s& (0+255),w,b
  2717  0023F6  6ED9               	movwf	fsr2l,c
  2718  0023F8  51D9               	movf	(sprintf@f+3)& (0+255),w,b
  2719  0023FA  21CB               	addwfc	(sprintf@s+1)& (0+255),w,b
  2720  0023FC  6EDA               	movwf	fsr2h,c
  2721  0023FE  0E00               	movlw	0
  2722  002400  6EDF               	movwf	indf2,c
  2723                           
  2724                           ; BSR set to: 0
  2725  002402  0012               	return		;funcret
  2726  002404                     __end_of_sprintf:
  2727                           	opt callstack 0
  2728                           
  2729 ;; *************** function _vfprintf *****************
  2730 ;; Defined at:
  2731 ;;		line 1368 in file "C:\Program Files (x86)\Microchip\xc8\v2.05\pic\sources\c99\common\doprnt.c"
  2732 ;; Parameters:    Size  Location     Type
  2733 ;;  fp              2    0[BANK0 ] PTR struct _IO_FILE
  2734 ;;		 -> sprintf@f(6), 
  2735 ;;  fmt             2    2[BANK0 ] PTR const unsigned char 
  2736 ;;		 -> STR_1(7), 
  2737 ;;  ap              2    4[BANK0 ] PTR PTR void 
  2738 ;;		 -> sprintf@ap(2), 
  2739 ;; Auto vars:     Size  Location     Type
  2740 ;;  cfmt            2   85[COMRAM] PTR unsigned char 
  2741 ;;		 -> STR_1(7), 
  2742 ;; Return value:  Size  Location     Type
  2743 ;;                  2    0[BANK0 ] int 
  2744 ;; Registers used:
  2745 ;;		wreg, fsr1l, fsr1h, fsr2l, fsr2h, status,2, status,0, tblptrl, tblptrh, tblptru, prodl, prodh, cstack
  2746 ;; Tracked objects:
  2747 ;;		On entry : 0/0
  2748 ;;		On exit  : 0/0
  2749 ;;		Unchanged: 0/0
  2750 ;; Data sizes:     COMRAM   BANK0   BANK1   BANK2   BANK3   BANK4   BANK5   BANK6   BANK7   BANK8   BANK9  BANK10  BANK1
      +1  BANK12  BANK13  BANK14
  2751 ;;      Params:         0       6       0       0       0       0       0       0       0       0       0       0       
      +0       0       0       0
  2752 ;;      Locals:         2       0       0       0       0       0       0       0       0       0       0       0       
      +0       0       0       0
  2753 ;;      Temps:          0       0       0       0       0       0       0       0       0       0       0       0       
      +0       0       0       0
  2754 ;;      Totals:         2       6       0       0       0       0       0       0       0       0       0       0       
      +0       0       0       0
  2755 ;;Total ram usage:        8 bytes
  2756 ;; Hardware stack levels used:    1
  2757 ;; Hardware stack levels required when called:    7
  2758 ;; This function calls:
  2759 ;;		_vfpfcnvrt
  2760 ;; This function is called by:
  2761 ;;		_sprintf
  2762 ;; This function uses a non-reentrant model
  2763 ;;
  2764                           
  2765                           	psect	text10
  2766  002358                     __ptext10:
  2767                           	opt callstack 0
  2768  002358                     _vfprintf:
  2769                           	opt callstack 22
  2770                           
  2771                           ;C:\Program Files (x86)\Microchip\xc8\v2.05\pic\sources\c99\common\doprnt.c: 1368: int v
      +                          fprintf(FILE *fp, const char *fmt, va_list ap);C:\Program Files (x86)\Microchip\xc8\v2.0
      +                          5\pic\sources\c99\common\doprnt.c: 1369: {;C:\Program Files (x86)\Microchip\xc8\v2.05\pi
      +                          c\sources\c99\common\doprnt.c: 1371:     char *cfmt;;C:\Program Files (x86)\Microchip\xc
      +                          8\v2.05\pic\sources\c99\common\doprnt.c: 1373:     cfmt = (char *)fmt;
  2772                           
  2773                           ; BSR set to: 0
  2774                           ;incstack = 0
  2775  002358  C0C6  F056         	movff	vfprintf@fmt,vfprintf@cfmt
  2776  00235C  C0C7  F057         	movff	vfprintf@fmt+1,vfprintf@cfmt+1
  2777                           
  2778                           ;C:\Program Files (x86)\Microchip\xc8\v2.05\pic\sources\c99\common\doprnt.c: 1374:     n
      +                          out = 0;
  2779  002360  0E00               	movlw	0
  2780  002362  0100               	movlb	0	; () banked
  2781  002364  6F89               	movwf	(_nout+1)& (0+255),b
  2782  002366  0E00               	movlw	0
  2783  002368  6F88               	movwf	_nout& (0+255),b
  2784                           
  2785                           ;C:\Program Files (x86)\Microchip\xc8\v2.05\pic\sources\c99\common\doprnt.c: 1375:     w
      +                          hile (*cfmt) {
  2786  00236A  D013               	goto	l3442
  2787  00236C                     l3440:
  2788                           
  2789                           ; BSR set to: 0
  2790                           ;C:\Program Files (x86)\Microchip\xc8\v2.05\pic\sources\c99\common\doprnt.c: 1376:      
      +                             nout += vfpfcnvrt(fp, &cfmt, ap);
  2791  00236C  C0C4  F03F         	movff	vfprintf@fp,vfpfcnvrt@fp
  2792  002370  C0C5  F040         	movff	vfprintf@fp+1,vfpfcnvrt@fp+1
  2793  002374  0E56               	movlw	low vfprintf@cfmt
  2794  002376  6E41               	movwf	vfpfcnvrt@fmt,c
  2795  002378  0E00               	movlw	high vfprintf@cfmt
  2796  00237A  6E42               	movwf	vfpfcnvrt@fmt+1,c
  2797  00237C  C0C8  F043         	movff	vfprintf@ap,vfpfcnvrt@ap
  2798  002380  C0C9  F044         	movff	vfprintf@ap+1,vfpfcnvrt@ap+1
  2799  002384  EC2E  F009         	call	_vfpfcnvrt	;wreg free
  2800  002388  503F               	movf	?_vfpfcnvrt,w,c
  2801  00238A  0100               	movlb	0	; () banked
  2802  00238C  2788               	addwf	_nout& (0+255),f,b
  2803  00238E  5040               	movf	?_vfpfcnvrt+1,w,c
  2804  002390  2389               	addwfc	(_nout+1)& (0+255),f,b
  2805  002392                     l3442:
  2806                           
  2807                           ; BSR set to: 0
  2808                           ;C:\Program Files (x86)\Microchip\xc8\v2.05\pic\sources\c99\common\doprnt.c: 1375:     w
      +                          hile (*cfmt) {
  2809  002392  C056  FFF6         	movff	vfprintf@cfmt,tblptrl
  2810  002396  C057  FFF7         	movff	vfprintf@cfmt+1,tblptrh
  2811  00239A                     	if	0	;tblptru may be non-zero
  2812  00239A                     	endif
  2813  00239A                     	if	1	;Program memory is > 0xFFFF, there are 3 active tblptr bytes
  2814  00239A  0E00               	movlw	low (__mediumconst shr (0+16))
  2815  00239C  6EF8               	movwf	tblptru,c
  2816  00239E                     	endif
  2817  00239E  0008               	tblrd		*
  2818  0023A0  50F5               	movf	tablat,w,c
  2819  0023A2  0900               	iorlw	0
  2820  0023A4  A4D8               	btfss	status,2,c
  2821  0023A6  D7E2               	goto	l3440
  2822                           
  2823                           ; BSR set to: 0
  2824                           ;C:\Program Files (x86)\Microchip\xc8\v2.05\pic\sources\c99\common\doprnt.c: 1378:     r
      +                          eturn nout;
  2825  0023A8  C088  F0C4         	movff	_nout,?_vfprintf
  2826  0023AC  C089  F0C5         	movff	_nout+1,?_vfprintf+1
  2827                           
  2828                           ; BSR set to: 0
  2829  0023B0  0012               	return		;funcret
  2830  0023B2                     __end_of_vfprintf:
  2831                           	opt callstack 0
  2832                           
  2833 ;; *************** function _vfpfcnvrt *****************
  2834 ;; Defined at:
  2835 ;;		line 670 in file "C:\Program Files (x86)\Microchip\xc8\v2.05\pic\sources\c99\common\doprnt.c"
  2836 ;; Parameters:    Size  Location     Type
  2837 ;;  fp              2   62[COMRAM] PTR struct _IO_FILE
  2838 ;;		 -> sprintf@f(6), 
  2839 ;;  fmt             2   64[COMRAM] PTR PTR unsigned char 
  2840 ;;		 -> vfprintf@cfmt(2), 
  2841 ;;  ap              2   66[COMRAM] PTR PTR void 
  2842 ;;		 -> sprintf@ap(2), 
  2843 ;; Auto vars:     Size  Location     Type
  2844 ;;  llu             8   72[COMRAM] unsigned long long 
  2845 ;;  ll              8    0        long long 
  2846 ;;  f               4    0        long long 
  2847 ;;  vp              3    0        PTR void 
  2848 ;;  ct              3    0        unsigned char [3]
  2849 ;;  cp              3    0        PTR unsigned char 
  2850 ;;  done            2   81[COMRAM] int 
  2851 ;;  i               2    0        int 
  2852 ;;  c               1   80[COMRAM] unsigned char 
  2853 ;; Return value:  Size  Location     Type
  2854 ;;                  2   62[COMRAM] int 
  2855 ;; Registers used:
  2856 ;;		wreg, fsr1l, fsr1h, fsr2l, fsr2h, status,2, status,0, tblptrl, tblptrh, tblptru, prodl, prodh, cstack
  2857 ;; Tracked objects:
  2858 ;;		On entry : 0/0
  2859 ;;		On exit  : 0/0
  2860 ;;		Unchanged: 0/0
  2861 ;; Data sizes:     COMRAM   BANK0   BANK1   BANK2   BANK3   BANK4   BANK5   BANK6   BANK7   BANK8   BANK9  BANK10  BANK1
      +1  BANK12  BANK13  BANK14
  2862 ;;      Params:         6       0       0       0       0       0       0       0       0       0       0       0       
      +0       0       0       0
  2863 ;;      Locals:        13       0       0       0       0       0       0       0       0       0       0       0       
      +0       0       0       0
  2864 ;;      Temps:          4       0       0       0       0       0       0       0       0       0       0       0       
      +0       0       0       0
  2865 ;;      Totals:        23       0       0       0       0       0       0       0       0       0       0       0       
      +0       0       0       0
  2866 ;;Total ram usage:       23 bytes
  2867 ;; Hardware stack levels used:    1
  2868 ;; Hardware stack levels required when called:    6
  2869 ;; This function calls:
  2870 ;;		_atoi
  2871 ;;		_ctoa
  2872 ;;		_fputc
  2873 ;;		_isdigit
  2874 ;;		_utoa
  2875 ;; This function is called by:
  2876 ;;		_vfprintf
  2877 ;; This function uses a non-reentrant model
  2878 ;;
  2879                           
  2880                           	psect	text11
  2881  00125C                     __ptext11:
  2882                           	opt callstack 0
  2883  00125C                     _vfpfcnvrt:
  2884                           	opt callstack 22
  2885                           
  2886                           ;C:\Program Files (x86)\Microchip\xc8\v2.05\pic\sources\c99\common\doprnt.c: 670: static
      +                           int vfpfcnvrt(FILE *fp, char *fmt[], va_list ap);C:\Program Files (x86)\Microchip\xc8\v
      +                          2.05\pic\sources\c99\common\doprnt.c: 671: {;C:\Program Files (x86)\Microchip\xc8\v2.05\
      +                          pic\sources\c99\common\doprnt.c: 672:     char c, *cp, ct[3];;C:\Program Files (x86)\Mic
      +                          rochip\xc8\v2.05\pic\sources\c99\common\doprnt.c: 673:     int done, i;;C:\Program Files
      +                           (x86)\Microchip\xc8\v2.05\pic\sources\c99\common\doprnt.c: 674:     long long ll;
  2887                           
  2888                           ; BSR set to: 0
  2889                           ;incstack = 0
  2890  00125C  C041  FFD9         	movff	vfpfcnvrt@fmt,fsr2l
  2891  001260  C042  FFDA         	movff	vfpfcnvrt@fmt+1,fsr2h
  2892  001264  CFDE FFF6          	movff	postinc2,tblptrl
  2893  001268  CFDD FFF7          	movff	postdec2,tblptrh
  2894  00126C                     	if	0	;tblptru may be non-zero
  2895  00126C                     	endif
  2896  00126C                     	if	1	;Program memory is > 0xFFFF, there are 3 active tblptr bytes
  2897  00126C  0E00               	movlw	low (__mediumconst shr (0+16))
  2898  00126E  6EF8               	movwf	tblptru,c
  2899  001270                     	endif
  2900  001270  0008               	tblrd		*
  2901  001272  50F5               	movf	tablat,w,c
  2902  001274  0A25               	xorlw	37
  2903  001276  A4D8               	btfss	status,2,c
  2904  001278  D17D               	goto	l3422
  2905                           
  2906                           ;C:\Program Files (x86)\Microchip\xc8\v2.05\pic\sources\c99\common\doprnt.c: 681:       
      +                            ++*fmt;
  2907  00127A  C041  FFD9         	movff	vfpfcnvrt@fmt,fsr2l
  2908  00127E  C042  FFDA         	movff	vfpfcnvrt@fmt+1,fsr2h
  2909  001282  2ADE               	incf	postinc2,f,c
  2910  001284  0E00               	movlw	0
  2911  001286  22DD               	addwfc	postdec2,f,c
  2912                           
  2913                           ;C:\Program Files (x86)\Microchip\xc8\v2.05\pic\sources\c99\common\doprnt.c: 683:       
      +                            flags = width = 0;
  2914  001288  0E00               	movlw	0
  2915  00128A  6E59               	movwf	_width+1,c
  2916  00128C  0E00               	movlw	0
  2917  00128E  6E58               	movwf	_width,c
  2918  001290  C058  F08C         	movff	_width,_flags
  2919  001294  C059  F08D         	movff	_width+1,_flags+1
  2920                           
  2921                           ;C:\Program Files (x86)\Microchip\xc8\v2.05\pic\sources\c99\common\doprnt.c: 684:       
      +                            prec = -1;
  2922  001298  0100               	movlb	0	; () banked
  2923  00129A  698A               	setf	_prec& (0+255),b
  2924  00129C  698B               	setf	(_prec+1)& (0+255),b
  2925                           
  2926                           ; BSR set to: 0
  2927                           ;C:\Program Files (x86)\Microchip\xc8\v2.05\pic\sources\c99\common\doprnt.c: 688:       
      +                            done = 0;
  2928  00129E  0E00               	movlw	0
  2929  0012A0  6E53               	movwf	vfpfcnvrt@done+1,c
  2930  0012A2  0E00               	movlw	0
  2931  0012A4  D019               	goto	L7
  2932  0012A6                     l3342:
  2933                           
  2934                           ;C:\Program Files (x86)\Microchip\xc8\v2.05\pic\sources\c99\common\doprnt.c: 692:       
      +                                        flags |= (1 << 0);
  2935  0012A6  0100               	movlb	0	; () banked
  2936  0012A8  818C               	bsf	_flags& (0+255),0,b
  2937  0012AA                     l3344:
  2938                           
  2939                           ; BSR set to: 0
  2940                           ;C:\Program Files (x86)\Microchip\xc8\v2.05\pic\sources\c99\common\doprnt.c: 693:       
      +                                        ++*fmt;
  2941  0012AA  C041  FFD9         	movff	vfpfcnvrt@fmt,fsr2l
  2942  0012AE  C042  FFDA         	movff	vfpfcnvrt@fmt+1,fsr2h
  2943  0012B2  2ADE               	incf	postinc2,f,c
  2944  0012B4  0E00               	movlw	0
  2945  0012B6  22DD               	addwfc	postdec2,f,c
  2946                           
  2947                           ;C:\Program Files (x86)\Microchip\xc8\v2.05\pic\sources\c99\common\doprnt.c: 694:       
      +                                        break;
  2948  0012B8  D034               	goto	l3368
  2949  0012BA                     l3346:
  2950                           
  2951                           ;C:\Program Files (x86)\Microchip\xc8\v2.05\pic\sources\c99\common\doprnt.c: 696:       
      +                                        flags |= (1 << 1);
  2952  0012BA  0100               	movlb	0	; () banked
  2953  0012BC  838C               	bsf	_flags& (0+255),1,b
  2954  0012BE  D7F5               	goto	l3344
  2955  0012C0                     l3350:
  2956                           
  2957                           ;C:\Program Files (x86)\Microchip\xc8\v2.05\pic\sources\c99\common\doprnt.c: 700:       
      +                                        flags |= (1 << 2);
  2958  0012C0  0100               	movlb	0	; () banked
  2959  0012C2  858C               	bsf	_flags& (0+255),2,b
  2960  0012C4  D7F2               	goto	l3344
  2961  0012C6                     l3354:
  2962                           
  2963                           ;C:\Program Files (x86)\Microchip\xc8\v2.05\pic\sources\c99\common\doprnt.c: 704:       
      +                                        flags |= (1 << 3);
  2964  0012C6  0100               	movlb	0	; () banked
  2965  0012C8  878C               	bsf	_flags& (0+255),3,b
  2966  0012CA  D7EF               	goto	l3344
  2967  0012CC                     l3358:
  2968                           
  2969                           ;C:\Program Files (x86)\Microchip\xc8\v2.05\pic\sources\c99\common\doprnt.c: 708:       
      +                                        flags |= (1 << 4);
  2970  0012CC  0100               	movlb	0	; () banked
  2971  0012CE  898C               	bsf	_flags& (0+255),4,b
  2972  0012D0  D7EC               	goto	l3344
  2973  0012D2                     l3362:
  2974                           
  2975                           ;C:\Program Files (x86)\Microchip\xc8\v2.05\pic\sources\c99\common\doprnt.c: 712:       
      +                                        done = 1;
  2976  0012D2  0E00               	movlw	0
  2977  0012D4  6E53               	movwf	vfpfcnvrt@done+1,c
  2978  0012D6  0E01               	movlw	1
  2979  0012D8                     L7:
  2980  0012D8  6E52               	movwf	vfpfcnvrt@done,c
  2981                           
  2982                           ;C:\Program Files (x86)\Microchip\xc8\v2.05\pic\sources\c99\common\doprnt.c: 713:       
      +                                        break;
  2983  0012DA  D023               	goto	l3368
  2984  0012DC                     l3366:
  2985  0012DC  C041  FFD9         	movff	vfpfcnvrt@fmt,fsr2l
  2986  0012E0  C042  FFDA         	movff	vfpfcnvrt@fmt+1,fsr2h
  2987  0012E4  CFDE FFF6          	movff	postinc2,tblptrl
  2988  0012E8  CFDD FFF7          	movff	postdec2,tblptrh
  2989  0012EC                     	if	0	;tblptru may be non-zero
  2990  0012EC                     	endif
  2991  0012EC                     	if	1	;Program memory is > 0xFFFF, there are 3 active tblptr bytes
  2992  0012EC  0E00               	movlw	low (__mediumconst shr (0+16))
  2993  0012EE  6EF8               	movwf	tblptru,c
  2994  0012F0                     	endif
  2995  0012F0  0008               	tblrd		*
  2996  0012F2  50F5               	movf	tablat,w,c
  2997  0012F4  6E45               	movwf	??_vfpfcnvrt& (0+255),c
  2998  0012F6  6A46               	clrf	(??_vfpfcnvrt+1)& (0+255),c
  2999                           
  3000                           ; Switch on 2 bytes has been partitioned into a top level switch of size 1, and 1 sub-sw
      +                          itches
  3001                           ; Switch size 1, requested type "simple"
  3002                           ; Number of cases is 1, Range of values is 0 to 0
  3003                           ; switch strategies available:
  3004                           ; Name         Instructions Cycles
  3005                           ; simple_byte            4     3 (average)
  3006                           ;	Chosen strategy is simple_byte
  3007  0012F8  5046               	movf	??_vfpfcnvrt+1,w,c
  3008  0012FA  0A00               	xorlw	0	; case 0
  3009  0012FC  A4D8               	btfss	status,2,c
  3010  0012FE  D7E9               	goto	l3362
  3011                           
  3012                           ; Switch size 1, requested type "simple"
  3013                           ; Number of cases is 5, Range of values is 32 to 48
  3014                           ; switch strategies available:
  3015                           ; Name         Instructions Cycles
  3016                           ; simple_byte           16     9 (average)
  3017                           ;	Chosen strategy is simple_byte
  3018  001300  5045               	movf	??_vfpfcnvrt,w,c
  3019  001302  0A20               	xorlw	32	; case 32
  3020  001304  B4D8               	btfsc	status,2,c
  3021  001306  D7DF               	goto	l3354
  3022  001308  0A03               	xorlw	3	; case 35
  3023  00130A  B4D8               	btfsc	status,2,c
  3024  00130C  D7DF               	goto	l3358
  3025  00130E  0A08               	xorlw	8	; case 43
  3026  001310  B4D8               	btfsc	status,2,c
  3027  001312  D7D6               	goto	l3350
  3028  001314  0A06               	xorlw	6	; case 45
  3029  001316  B4D8               	btfsc	status,2,c
  3030  001318  D7C6               	goto	l3342
  3031  00131A  0A1D               	xorlw	29	; case 48
  3032  00131C  B4D8               	btfsc	status,2,c
  3033  00131E  D7CD               	goto	l3346
  3034  001320  D7D8               	goto	l3362
  3035  001322                     l3368:
  3036                           
  3037                           ;C:\Program Files (x86)\Microchip\xc8\v2.05\pic\sources\c99\common\doprnt.c: 689:       
      +                            while (!done) {
  3038  001322  5052               	movf	vfpfcnvrt@done,w,c
  3039  001324  1053               	iorwf	vfpfcnvrt@done+1,w,c
  3040  001326  B4D8               	btfsc	status,2,c
  3041  001328  D7D9               	goto	l3366
  3042                           
  3043                           ;C:\Program Files (x86)\Microchip\xc8\v2.05\pic\sources\c99\common\doprnt.c: 716:       
      +                            if (flags & (1 << 0)) {
  3044  00132A  0100               	movlb	0	; () banked
  3045  00132C  B18C               	btfsc	_flags& (0+255),0,b
  3046                           
  3047                           ; BSR set to: 0
  3048                           ;C:\Program Files (x86)\Microchip\xc8\v2.05\pic\sources\c99\common\doprnt.c: 717:       
      +                                flags &= ~(1 << 1);
  3049  00132E  938C               	bcf	_flags& (0+255),1,b
  3050                           
  3051                           ; BSR set to: 0
  3052                           ;C:\Program Files (x86)\Microchip\xc8\v2.05\pic\sources\c99\common\doprnt.c: 723:       
      +                            if ((*fmt)[0] == '*') {
  3053  001330  C041  FFD9         	movff	vfpfcnvrt@fmt,fsr2l
  3054  001334  C042  FFDA         	movff	vfpfcnvrt@fmt+1,fsr2h
  3055  001338  CFDE FFF6          	movff	postinc2,tblptrl
  3056  00133C  CFDD FFF7          	movff	postdec2,tblptrh
  3057  001340                     	if	0	;tblptru may be non-zero
  3058  001340                     	endif
  3059  001340                     	if	1	;Program memory is > 0xFFFF, there are 3 active tblptr bytes
  3060  001340  0E00               	movlw	low (__mediumconst shr (0+16))
  3061  001342  6EF8               	movwf	tblptru,c
  3062  001344                     	endif
  3063  001344  0008               	tblrd		*
  3064  001346  50F5               	movf	tablat,w,c
  3065  001348  0A2A               	xorlw	42
  3066  00134A  A4D8               	btfss	status,2,c
  3067  00134C  D023               	goto	l3380
  3068                           
  3069                           ; BSR set to: 0
  3070                           ;C:\Program Files (x86)\Microchip\xc8\v2.05\pic\sources\c99\common\doprnt.c: 724:       
      +                                ++*fmt;
  3071  00134E  C041  FFD9         	movff	vfpfcnvrt@fmt,fsr2l
  3072  001352  C042  FFDA         	movff	vfpfcnvrt@fmt+1,fsr2h
  3073  001356  2ADE               	incf	postinc2,f,c
  3074  001358  0E00               	movlw	0
  3075  00135A  22DD               	addwfc	postdec2,f,c
  3076                           
  3077                           ;C:\Program Files (x86)\Microchip\xc8\v2.05\pic\sources\c99\common\doprnt.c: 725:       
      +                                width = (*(int *)__va_arg(*(int **)ap, (int)0));
  3078  00135C  C043  FFD9         	movff	vfpfcnvrt@ap,fsr2l
  3079  001360  C044  FFDA         	movff	vfpfcnvrt@ap+1,fsr2h
  3080  001364  CFDF F045          	movff	indf2,??_vfpfcnvrt
  3081  001368  0E02               	movlw	2
  3082  00136A  26DE               	addwf	postinc2,f,c
  3083  00136C  CFDF F046          	movff	indf2,??_vfpfcnvrt+1
  3084  001370  0E00               	movlw	0
  3085  001372  22DD               	addwfc	postdec2,f,c
  3086  001374  C045  FFD9         	movff	??_vfpfcnvrt,fsr2l
  3087  001378  C046  FFDA         	movff	??_vfpfcnvrt+1,fsr2h
  3088  00137C  CFDE F058          	movff	postinc2,_width
  3089  001380  CFDD F059          	movff	postdec2,_width+1
  3090                           
  3091                           ; BSR set to: 0
  3092                           ;C:\Program Files (x86)\Microchip\xc8\v2.05\pic\sources\c99\common\doprnt.c: 726:       
      +                                if (width < 0) {
  3093  001384  AE59               	btfss	_width+1,7,c
  3094  001386  D041               	goto	u3210
  3095                           
  3096                           ; BSR set to: 0
  3097                           ;C:\Program Files (x86)\Microchip\xc8\v2.05\pic\sources\c99\common\doprnt.c: 727:       
      +                                    flags |= (1 << 0);
  3098  001388  818C               	bsf	_flags& (0+255),0,b
  3099                           
  3100                           ;C:\Program Files (x86)\Microchip\xc8\v2.05\pic\sources\c99\common\doprnt.c: 728:       
      +                                    width = -width;
  3101  00138A  6C58               	negf	_width,c
  3102  00138C  1E59               	comf	_width+1,f,c
  3103  00138E  B0D8               	btfsc	status,0,c
  3104  001390  2A59               	incf	_width+1,f,c
  3105  001392  D03B               	goto	u3210
  3106  001394                     l3380:
  3107                           
  3108                           ; BSR set to: 0
  3109                           ;C:\Program Files (x86)\Microchip\xc8\v2.05\pic\sources\c99\common\doprnt.c: 731:       
      +                                width = atoi(*fmt);
  3110  001394  C041  FFD9         	movff	vfpfcnvrt@fmt,fsr2l
  3111  001398  C042  FFDA         	movff	vfpfcnvrt@fmt+1,fsr2h
  3112  00139C  CFDE F00B          	movff	postinc2,atoi@s
  3113  0013A0  CFDD F00C          	movff	postdec2,atoi@s+1
  3114  0013A4  EC34  F00D         	call	_atoi	;wreg free
  3115  0013A8  C00B  F058         	movff	?_atoi,_width
  3116  0013AC  C00C  F059         	movff	?_atoi+1,_width+1
  3117                           
  3118                           ;C:\Program Files (x86)\Microchip\xc8\v2.05\pic\sources\c99\common\doprnt.c: 732:       
      +                                while ((0 ? isdigit((*fmt)[0]) : ((unsigned)((*fmt)[0])-'0') < 10)) {
  3119  0013B0  D007               	goto	l3384
  3120  0013B2                     l3382:
  3121                           
  3122                           ;C:\Program Files (x86)\Microchip\xc8\v2.05\pic\sources\c99\common\doprnt.c: 733:       
      +                                    ++*fmt;
  3123  0013B2  C041  FFD9         	movff	vfpfcnvrt@fmt,fsr2l
  3124  0013B6  C042  FFDA         	movff	vfpfcnvrt@fmt+1,fsr2h
  3125  0013BA  2ADE               	incf	postinc2,f,c
  3126  0013BC  0E00               	movlw	0
  3127  0013BE  22DD               	addwfc	postdec2,f,c
  3128  0013C0                     l3384:
  3129  0013C0  0ED0               	movlw	208
  3130  0013C2  6E45               	movwf	??_vfpfcnvrt& (0+255),c
  3131  0013C4  0EFF               	movlw	255
  3132  0013C6  6E46               	movwf	(??_vfpfcnvrt+1)& (0+255),c
  3133  0013C8  C041  FFD9         	movff	vfpfcnvrt@fmt,fsr2l
  3134  0013CC  C042  FFDA         	movff	vfpfcnvrt@fmt+1,fsr2h
  3135  0013D0  CFDE FFF6          	movff	postinc2,tblptrl
  3136  0013D4  CFDD FFF7          	movff	postdec2,tblptrh
  3137  0013D8                     	if	0	;tblptru may be non-zero
  3138  0013D8                     	endif
  3139  0013D8                     	if	1	;Program memory is > 0xFFFF, there are 3 active tblptr bytes
  3140  0013D8  0E00               	movlw	low (__mediumconst shr (0+16))
  3141  0013DA  6EF8               	movwf	tblptru,c
  3142  0013DC                     	endif
  3143  0013DC  0008               	tblrd		*
  3144  0013DE  50F5               	movf	tablat,w,c
  3145  0013E0  6E47               	movwf	(??_vfpfcnvrt+2)& (0+255),c
  3146  0013E2  6A48               	clrf	(??_vfpfcnvrt+3)& (0+255),c
  3147  0013E4  5045               	movf	??_vfpfcnvrt,w,c
  3148  0013E6  2647               	addwf	??_vfpfcnvrt+2,f,c
  3149  0013E8  5046               	movf	??_vfpfcnvrt+1,w,c
  3150  0013EA  2248               	addwfc	??_vfpfcnvrt+3,f,c
  3151  0013EC  5048               	movf	??_vfpfcnvrt+3,w,c
  3152  0013EE  E106               	bnz	u3190
  3153  0013F0  0E0A               	movlw	10
  3154  0013F2  5C47               	subwf	??_vfpfcnvrt+2,w,c
  3155  0013F4  B0D8               	btfsc	status,0,c
  3156  0013F6  D002               	goto	u3190
  3157  0013F8  0E01               	movlw	1
  3158  0013FA  D001               	goto	u3200
  3159  0013FC                     u3190:
  3160  0013FC  0E00               	movlw	0
  3161  0013FE                     u3200:
  3162  0013FE  6E54               	movwf	_vfpfcnvrt$983,c
  3163  001400  6A55               	clrf	_vfpfcnvrt$983+1,c
  3164  001402  5054               	movf	_vfpfcnvrt$983,w,c
  3165  001404  1055               	iorwf	_vfpfcnvrt$983+1,w,c
  3166  001406  A4D8               	btfss	status,2,c
  3167  001408  D7D4               	goto	l3382
  3168  00140A                     u3210:
  3169                           
  3170                           ;C:\Program Files (x86)\Microchip\xc8\v2.05\pic\sources\c99\common\doprnt.c: 792:       
      +                            if (*fmt[0] == 'c') {
  3171  00140A  C041  FFD9         	movff	vfpfcnvrt@fmt,fsr2l
  3172  00140E  C042  FFDA         	movff	vfpfcnvrt@fmt+1,fsr2h
  3173  001412  CFDE FFF6          	movff	postinc2,tblptrl
  3174  001416  CFDD FFF7          	movff	postdec2,tblptrh
  3175  00141A                     	if	0	;tblptru may be non-zero
  3176  00141A                     	endif
  3177  00141A                     	if	1	;Program memory is > 0xFFFF, there are 3 active tblptr bytes
  3178  00141A  0E00               	movlw	low (__mediumconst shr (0+16))
  3179  00141C  6EF8               	movwf	tblptru,c
  3180  00141E                     	endif
  3181  00141E  0008               	tblrd		*
  3182  001420  50F5               	movf	tablat,w,c
  3183  001422  0A63               	xorlw	99
  3184  001424  A4D8               	btfss	status,2,c
  3185  001426  D026               	goto	l3398
  3186                           
  3187                           ;C:\Program Files (x86)\Microchip\xc8\v2.05\pic\sources\c99\common\doprnt.c: 793:       
      +                                ++*fmt;
  3188  001428  C041  FFD9         	movff	vfpfcnvrt@fmt,fsr2l
  3189  00142C  C042  FFDA         	movff	vfpfcnvrt@fmt+1,fsr2h
  3190  001430  2ADE               	incf	postinc2,f,c
  3191  001432  0E00               	movlw	0
  3192  001434  22DD               	addwfc	postdec2,f,c
  3193                           
  3194                           ;C:\Program Files (x86)\Microchip\xc8\v2.05\pic\sources\c99\common\doprnt.c: 794:       
      +                                c = (unsigned char)(*(int *)__va_arg(*(int **)ap, (int)0));
  3195  001436  C043  FFD9         	movff	vfpfcnvrt@ap,fsr2l
  3196  00143A  C044  FFDA         	movff	vfpfcnvrt@ap+1,fsr2h
  3197  00143E  CFDF F045          	movff	indf2,??_vfpfcnvrt
  3198  001442  0E02               	movlw	2
  3199  001444  26DE               	addwf	postinc2,f,c
  3200  001446  CFDF F046          	movff	indf2,??_vfpfcnvrt+1
  3201  00144A  0E00               	movlw	0
  3202  00144C  22DD               	addwfc	postdec2,f,c
  3203  00144E  C045  FFD9         	movff	??_vfpfcnvrt,fsr2l
  3204  001452  C046  FFDA         	movff	??_vfpfcnvrt+1,fsr2h
  3205  001456  50DF               	movf	indf2,w,c
  3206  001458  6E51               	movwf	vfpfcnvrt@c,c
  3207                           
  3208                           ;C:\Program Files (x86)\Microchip\xc8\v2.05\pic\sources\c99\common\doprnt.c: 795:       
      +                                return ctoa(fp, c);
  3209  00145A  C03F  F01F         	movff	vfpfcnvrt@fp,ctoa@fp
  3210  00145E  C040  F020         	movff	vfpfcnvrt@fp+1,ctoa@fp+1
  3211  001462  C051  F021         	movff	vfpfcnvrt@c,ctoa@c
  3212  001466  EC02  F012         	call	_ctoa	;wreg free
  3213  00146A  C01F  F03F         	movff	?_ctoa,?_vfpfcnvrt
  3214  00146E  C020  F040         	movff	?_ctoa+1,?_vfpfcnvrt+1
  3215  001472  0012               	return	
  3216  001474                     l3398:
  3217                           
  3218                           ;C:\Program Files (x86)\Microchip\xc8\v2.05\pic\sources\c99\common\doprnt.c: 1182:      
      +                             if (*fmt[0] == 'u') {
  3219  001474  C041  FFD9         	movff	vfpfcnvrt@fmt,fsr2l
  3220  001478  C042  FFDA         	movff	vfpfcnvrt@fmt+1,fsr2h
  3221  00147C  CFDE FFF6          	movff	postinc2,tblptrl
  3222  001480  CFDD FFF7          	movff	postdec2,tblptrh
  3223  001484                     	if	0	;tblptru may be non-zero
  3224  001484                     	endif
  3225  001484                     	if	1	;Program memory is > 0xFFFF, there are 3 active tblptr bytes
  3226  001484  0E00               	movlw	low (__mediumconst shr (0+16))
  3227  001486  6EF8               	movwf	tblptru,c
  3228  001488                     	endif
  3229  001488  0008               	tblrd		*
  3230  00148A  50F5               	movf	tablat,w,c
  3231  00148C  0A75               	xorlw	117
  3232  00148E  A4D8               	btfss	status,2,c
  3233  001490  D040               	goto	l3406
  3234                           
  3235                           ;C:\Program Files (x86)\Microchip\xc8\v2.05\pic\sources\c99\common\doprnt.c: 1184:      
      +                                 ++*fmt;
  3236  001492  C041  FFD9         	movff	vfpfcnvrt@fmt,fsr2l
  3237  001496  C042  FFDA         	movff	vfpfcnvrt@fmt+1,fsr2h
  3238  00149A  2ADE               	incf	postinc2,f,c
  3239  00149C  0E00               	movlw	0
  3240  00149E  22DD               	addwfc	postdec2,f,c
  3241                           
  3242                           ;C:\Program Files (x86)\Microchip\xc8\v2.05\pic\sources\c99\common\doprnt.c: 1185:      
      +                                 llu = (unsigned long long)(*(unsigned int *)__va_arg(*(unsigned int **)ap, (unsig
      +                          ned int)0));
  3243  0014A0  C043  FFD9         	movff	vfpfcnvrt@ap,fsr2l
  3244  0014A4  C044  FFDA         	movff	vfpfcnvrt@ap+1,fsr2h
  3245  0014A8  CFDF F045          	movff	indf2,??_vfpfcnvrt
  3246  0014AC  0E02               	movlw	2
  3247  0014AE  26DE               	addwf	postinc2,f,c
  3248  0014B0  CFDF F046          	movff	indf2,??_vfpfcnvrt+1
  3249  0014B4  0E00               	movlw	0
  3250  0014B6  22DD               	addwfc	postdec2,f,c
  3251  0014B8  C045  FFD9         	movff	??_vfpfcnvrt,fsr2l
  3252  0014BC  C046  FFDA         	movff	??_vfpfcnvrt+1,fsr2h
  3253  0014C0  CFDE F047          	movff	postinc2,??_vfpfcnvrt+2
  3254  0014C4  CFDD F048          	movff	postdec2,??_vfpfcnvrt+3
  3255  0014C8  C047  F049         	movff	??_vfpfcnvrt+2,vfpfcnvrt@llu
  3256  0014CC  C048  F04A         	movff	??_vfpfcnvrt+3,vfpfcnvrt@llu+1
  3257  0014D0  6A4B               	clrf	vfpfcnvrt@llu+2,c
  3258  0014D2  6A4C               	clrf	vfpfcnvrt@llu+3,c
  3259  0014D4  6A4D               	clrf	vfpfcnvrt@llu+4,c
  3260  0014D6  6A4E               	clrf	vfpfcnvrt@llu+5,c
  3261  0014D8  6A4F               	clrf	vfpfcnvrt@llu+6,c
  3262  0014DA  6A50               	clrf	vfpfcnvrt@llu+7,c
  3263                           
  3264                           ;C:\Program Files (x86)\Microchip\xc8\v2.05\pic\sources\c99\common\doprnt.c: 1187:      
      +                                 return utoa(fp, llu);
  3265  0014DC  C03F  F01F         	movff	vfpfcnvrt@fp,utoa@fp
  3266  0014E0  C040  F020         	movff	vfpfcnvrt@fp+1,utoa@fp+1
  3267  0014E4  C049  F021         	movff	vfpfcnvrt@llu,utoa@d
  3268  0014E8  C04A  F022         	movff	vfpfcnvrt@llu+1,utoa@d+1
  3269  0014EC  C04B  F023         	movff	vfpfcnvrt@llu+2,utoa@d+2
  3270  0014F0  C04C  F024         	movff	vfpfcnvrt@llu+3,utoa@d+3
  3271  0014F4  C04D  F025         	movff	vfpfcnvrt@llu+4,utoa@d+4
  3272  0014F8  C04E  F026         	movff	vfpfcnvrt@llu+5,utoa@d+5
  3273  0014FC  C04F  F027         	movff	vfpfcnvrt@llu+6,utoa@d+6
  3274  001500  C050  F028         	movff	vfpfcnvrt@llu+7,utoa@d+7
  3275  001504  EC5C  F00C         	call	_utoa	;wreg free
  3276  001508  C01F  F03F         	movff	?_utoa,?_vfpfcnvrt
  3277  00150C  C020  F040         	movff	?_utoa+1,?_vfpfcnvrt+1
  3278  001510  0012               	return	
  3279  001512                     l3406:
  3280                           
  3281                           ;C:\Program Files (x86)\Microchip\xc8\v2.05\pic\sources\c99\common\doprnt.c: 1350:      
      +                             if ((*fmt)[0] == '%') {
  3282  001512  C041  FFD9         	movff	vfpfcnvrt@fmt,fsr2l
  3283  001516  C042  FFDA         	movff	vfpfcnvrt@fmt+1,fsr2h
  3284  00151A  CFDE FFF6          	movff	postinc2,tblptrl
  3285  00151E  CFDD FFF7          	movff	postdec2,tblptrh
  3286  001522                     	if	0	;tblptru may be non-zero
  3287  001522                     	endif
  3288  001522                     	if	1	;Program memory is > 0xFFFF, there are 3 active tblptr bytes
  3289  001522  0E00               	movlw	low (__mediumconst shr (0+16))
  3290  001524  6EF8               	movwf	tblptru,c
  3291  001526                     	endif
  3292  001526  0008               	tblrd		*
  3293  001528  50F5               	movf	tablat,w,c
  3294  00152A  0A25               	xorlw	37
  3295  00152C  A4D8               	btfss	status,2,c
  3296  00152E  D016               	goto	l3416
  3297                           
  3298                           ;C:\Program Files (x86)\Microchip\xc8\v2.05\pic\sources\c99\common\doprnt.c: 1351:      
      +                                 ++*fmt;
  3299  001530  C041  FFD9         	movff	vfpfcnvrt@fmt,fsr2l
  3300  001534  C042  FFDA         	movff	vfpfcnvrt@fmt+1,fsr2h
  3301  001538  2ADE               	incf	postinc2,f,c
  3302  00153A  0E00               	movlw	0
  3303  00153C  22DD               	addwfc	postdec2,f,c
  3304                           
  3305                           ;C:\Program Files (x86)\Microchip\xc8\v2.05\pic\sources\c99\common\doprnt.c: 1352:      
      +                                 fputc((int)'%', fp);
  3306  00153E  0E00               	movlw	0
  3307  001540  6E05               	movwf	fputc@c+1,c
  3308  001542  0E25               	movlw	37
  3309  001544  6E04               	movwf	fputc@c,c
  3310  001546  C03F  F006         	movff	vfpfcnvrt@fp,fputc@fp
  3311  00154A  C040  F007         	movff	vfpfcnvrt@fp+1,fputc@fp+1
  3312  00154E  ECDA  F010         	call	_fputc	;wreg free
  3313  001552                     l3412:
  3314                           
  3315                           ;C:\Program Files (x86)\Microchip\xc8\v2.05\pic\sources\c99\common\doprnt.c: 1353:      
      +                                 return 1;
  3316  001552  0E00               	movlw	0
  3317  001554  6E40               	movwf	?_vfpfcnvrt+1,c
  3318  001556  0E01               	movlw	1
  3319  001558  6E3F               	movwf	?_vfpfcnvrt,c
  3320  00155A  0012               	return	
  3321  00155C                     l3416:
  3322                           
  3323                           ;C:\Program Files (x86)\Microchip\xc8\v2.05\pic\sources\c99\common\doprnt.c: 1357:      
      +                             ++*fmt;
  3324  00155C  C041  FFD9         	movff	vfpfcnvrt@fmt,fsr2l
  3325  001560  C042  FFDA         	movff	vfpfcnvrt@fmt+1,fsr2h
  3326  001564  2ADE               	incf	postinc2,f,c
  3327  001566  0E00               	movlw	0
  3328  001568  22DD               	addwfc	postdec2,f,c
  3329                           
  3330                           ;C:\Program Files (x86)\Microchip\xc8\v2.05\pic\sources\c99\common\doprnt.c: 1358:      
      +                             return 0;
  3331  00156A  0E00               	movlw	0
  3332  00156C  6E40               	movwf	?_vfpfcnvrt+1,c
  3333  00156E  0E00               	movlw	0
  3334  001570  6E3F               	movwf	?_vfpfcnvrt,c
  3335  001572  0012               	return	
  3336  001574                     l3422:
  3337                           
  3338                           ;C:\Program Files (x86)\Microchip\xc8\v2.05\pic\sources\c99\common\doprnt.c: 1362:     f
      +                          putc((int)(*fmt)[0], fp);
  3339  001574  C041  FFD9         	movff	vfpfcnvrt@fmt,fsr2l
  3340  001578  C042  FFDA         	movff	vfpfcnvrt@fmt+1,fsr2h
  3341  00157C  CFDE FFF6          	movff	postinc2,tblptrl
  3342  001580  CFDD FFF7          	movff	postdec2,tblptrh
  3343  001584                     	if	0	;tblptru may be non-zero
  3344  001584                     	endif
  3345  001584                     	if	1	;Program memory is > 0xFFFF, there are 3 active tblptr bytes
  3346  001584  0E00               	movlw	low (__mediumconst shr (0+16))
  3347  001586  6EF8               	movwf	tblptru,c
  3348  001588                     	endif
  3349  001588  0008               	tblrd		*
  3350  00158A  50F5               	movf	tablat,w,c
  3351  00158C  6E04               	movwf	fputc@c,c
  3352  00158E  6A05               	clrf	fputc@c+1,c
  3353  001590  C03F  F006         	movff	vfpfcnvrt@fp,fputc@fp
  3354  001594  C040  F007         	movff	vfpfcnvrt@fp+1,fputc@fp+1
  3355  001598  ECDA  F010         	call	_fputc	;wreg free
  3356                           
  3357                           ;C:\Program Files (x86)\Microchip\xc8\v2.05\pic\sources\c99\common\doprnt.c: 1363:     +
      +                          +*fmt;
  3358  00159C  C041  FFD9         	movff	vfpfcnvrt@fmt,fsr2l
  3359  0015A0  C042  FFDA         	movff	vfpfcnvrt@fmt+1,fsr2h
  3360  0015A4  2ADE               	incf	postinc2,f,c
  3361  0015A6  0E00               	movlw	0
  3362  0015A8  22DD               	addwfc	postdec2,f,c
  3363  0015AA  D7D3               	goto	l3412
  3364  0015AC                     __end_of_vfpfcnvrt:
  3365                           	opt callstack 0
  3366                           
  3367 ;; *************** function _utoa *****************
  3368 ;; Defined at:
  3369 ;;		line 593 in file "C:\Program Files (x86)\Microchip\xc8\v2.05\pic\sources\c99\common\doprnt.c"
  3370 ;; Parameters:    Size  Location     Type
  3371 ;;  fp              2   30[COMRAM] PTR struct _IO_FILE
  3372 ;;		 -> sprintf@f(6), 
  3373 ;;  d               8   32[COMRAM] unsigned long long 
  3374 ;; Auto vars:     Size  Location     Type
  3375 ;;  n               8   52[COMRAM] unsigned long long 
  3376 ;;  i               2   60[COMRAM] int 
  3377 ;;  w               2   50[COMRAM] int 
  3378 ;;  p               2   48[COMRAM] int 
  3379 ;; Return value:  Size  Location     Type
  3380 ;;                  2   30[COMRAM] int 
  3381 ;; Registers used:
  3382 ;;		wreg, fsr1l, fsr1h, fsr2l, fsr2h, status,2, status,0, cstack
  3383 ;; Tracked objects:
  3384 ;;		On entry : 0/0
  3385 ;;		On exit  : 0/0
  3386 ;;		Unchanged: 0/0
  3387 ;; Data sizes:     COMRAM   BANK0   BANK1   BANK2   BANK3   BANK4   BANK5   BANK6   BANK7   BANK8   BANK9  BANK10  BANK1
      +1  BANK12  BANK13  BANK14
  3388 ;;      Params:        10       0       0       0       0       0       0       0       0       0       0       0       
      +0       0       0       0
  3389 ;;      Locals:        14       0       0       0       0       0       0       0       0       0       0       0       
      +0       0       0       0
  3390 ;;      Temps:          8       0       0       0       0       0       0       0       0       0       0       0       
      +0       0       0       0
  3391 ;;      Totals:        32       0       0       0       0       0       0       0       0       0       0       0       
      +0       0       0       0
  3392 ;;Total ram usage:       32 bytes
  3393 ;; Hardware stack levels used:    1
  3394 ;; Hardware stack levels required when called:    5
  3395 ;; This function calls:
  3396 ;;		___lodiv
  3397 ;;		___lomod
  3398 ;;		_pad
  3399 ;; This function is called by:
  3400 ;;		_vfpfcnvrt
  3401 ;; This function uses a non-reentrant model
  3402 ;;
  3403                           
  3404                           	psect	text12
  3405  0018B8                     __ptext12:
  3406                           	opt callstack 0
  3407  0018B8                     _utoa:
  3408                           	opt callstack 22
  3409                           
  3410                           ;C:\Program Files (x86)\Microchip\xc8\v2.05\pic\sources\c99\common\doprnt.c: 593: static
      +                           int utoa(FILE *fp, unsigned long long d);C:\Program Files (x86)\Microchip\xc8\v2.05\pic
      +                          \sources\c99\common\doprnt.c: 594: {;C:\Program Files (x86)\Microchip\xc8\v2.05\pic\sour
      +                          ces\c99\common\doprnt.c: 595:     int i, p, w;;C:\Program Files (x86)\Microchip\xc8\v2.0
      +                          5\pic\sources\c99\common\doprnt.c: 596:     unsigned long long n;;C:\Program Files (x86)
      +                          \Microchip\xc8\v2.05\pic\sources\c99\common\doprnt.c: 599:     if (!(prec < 0)) {
  3411                           
  3412                           ;incstack = 0
  3413  0018B8  0100               	movlb	0	; () banked
  3414  0018BA  AF8B               	btfss	(_prec+1)& (0+255),7,b
  3415                           
  3416                           ; BSR set to: 0
  3417                           ;C:\Program Files (x86)\Microchip\xc8\v2.05\pic\sources\c99\common\doprnt.c: 600:       
      +                            flags &= ~(1 << 1);
  3418  0018BC  938C               	bcf	_flags& (0+255),1,b
  3419                           
  3420                           ; BSR set to: 0
  3421                           ;C:\Program Files (x86)\Microchip\xc8\v2.05\pic\sources\c99\common\doprnt.c: 602:     p 
      +                          = (0 < prec) ? prec : 1;
  3422  0018BE  BF8B               	btfsc	(_prec+1)& (0+255),7,b
  3423  0018C0  D005               	goto	u3010
  3424  0018C2  518B               	movf	(_prec+1)& (0+255),w,b
  3425  0018C4  E108               	bnz	l250
  3426  0018C6  058A               	decf	_prec& (0+255),w,b
  3427  0018C8  B0D8               	btfsc	status,0,c
  3428  0018CA  D005               	goto	l250
  3429  0018CC                     u3010:
  3430                           
  3431                           ; BSR set to: 0
  3432  0018CC  0E00               	movlw	0
  3433  0018CE  6E32               	movwf	utoa@p+1,c
  3434  0018D0  0E01               	movlw	1
  3435  0018D2  6E31               	movwf	utoa@p,c
  3436  0018D4  D004               	goto	l252
  3437  0018D6                     l250:
  3438                           
  3439                           ; BSR set to: 0
  3440  0018D6  C08A  F031         	movff	_prec,utoa@p
  3441  0018DA  C08B  F032         	movff	_prec+1,utoa@p+1
  3442  0018DE                     l252:
  3443                           
  3444                           ; BSR set to: 0
  3445                           ;C:\Program Files (x86)\Microchip\xc8\v2.05\pic\sources\c99\common\doprnt.c: 603:     w 
      +                          = width;
  3446  0018DE  C058  F033         	movff	_width,utoa@w
  3447  0018E2  C059  F034         	movff	_width+1,utoa@w+1
  3448                           
  3449                           ;C:\Program Files (x86)\Microchip\xc8\v2.05\pic\sources\c99\common\doprnt.c: 606:     n 
      +                          = d;
  3450  0018E6  C021  F035         	movff	utoa@d,utoa@n
  3451  0018EA  C022  F036         	movff	utoa@d+1,utoa@n+1
  3452  0018EE  C023  F037         	movff	utoa@d+2,utoa@n+2
  3453  0018F2  C024  F038         	movff	utoa@d+3,utoa@n+3
  3454  0018F6  C025  F039         	movff	utoa@d+4,utoa@n+4
  3455  0018FA  C026  F03A         	movff	utoa@d+5,utoa@n+5
  3456  0018FE  C027  F03B         	movff	utoa@d+6,utoa@n+6
  3457  001902  C028  F03C         	movff	utoa@d+7,utoa@n+7
  3458                           
  3459                           ; BSR set to: 0
  3460                           ;C:\Program Files (x86)\Microchip\xc8\v2.05\pic\sources\c99\common\doprnt.c: 607:     i 
      +                          = sizeof(dbuf) - 1;
  3461  001906  0E00               	movlw	0
  3462  001908  6E3E               	movwf	utoa@i+1,c
  3463  00190A  0E1F               	movlw	31
  3464  00190C  6E3D               	movwf	utoa@i,c
  3465                           
  3466                           ; BSR set to: 0
  3467                           ;C:\Program Files (x86)\Microchip\xc8\v2.05\pic\sources\c99\common\doprnt.c: 608:     db
      +                          uf[i] = '\0';
  3468  00190E  0E00               	movlw	0
  3469  001910  6FB9               	movwf	(_dbuf+31)& (0+255),b
  3470                           
  3471                           ;C:\Program Files (x86)\Microchip\xc8\v2.05\pic\sources\c99\common\doprnt.c: 609:     wh
      +                          ile (i && (n || (0 < p) || ((0 < w) && (flags & (1 << 1))))) {
  3472  001912  D076               	goto	l3276
  3473  001914                     l3266:
  3474                           
  3475                           ;C:\Program Files (x86)\Microchip\xc8\v2.05\pic\sources\c99\common\doprnt.c: 610:       
      +                            --i;
  3476  001914  063D               	decf	utoa@i,f,c
  3477  001916  A0D8               	btfss	status,0,c
  3478  001918  063E               	decf	utoa@i+1,f,c
  3479                           
  3480                           ;C:\Program Files (x86)\Microchip\xc8\v2.05\pic\sources\c99\common\doprnt.c: 611:       
      +                            dbuf[i] = '0' + (n % 10);
  3481  00191A  0E9A               	movlw	low _dbuf
  3482  00191C  243D               	addwf	utoa@i,w,c
  3483  00191E  6ED9               	movwf	fsr2l,c
  3484  001920  0E00               	movlw	high _dbuf
  3485  001922  203E               	addwfc	utoa@i+1,w,c
  3486  001924  6EDA               	movwf	fsr2h,c
  3487  001926  C035  F004         	movff	utoa@n,___lomod@dividend
  3488  00192A  C036  F005         	movff	utoa@n+1,___lomod@dividend+1
  3489  00192E  C037  F006         	movff	utoa@n+2,___lomod@dividend+2
  3490  001932  C038  F007         	movff	utoa@n+3,___lomod@dividend+3
  3491  001936  C039  F008         	movff	utoa@n+4,___lomod@dividend+4
  3492  00193A  C03A  F009         	movff	utoa@n+5,___lomod@dividend+5
  3493  00193E  C03B  F00A         	movff	utoa@n+6,___lomod@dividend+6
  3494  001942  C03C  F00B         	movff	utoa@n+7,___lomod@dividend+7
  3495  001946  0E0A               	movlw	10
  3496  001948  6E0C               	movwf	___lomod@divisor,c
  3497  00194A  0E00               	movlw	0
  3498  00194C  6E0D               	movwf	___lomod@divisor+1,c
  3499  00194E  0E00               	movlw	0
  3500  001950  6E0E               	movwf	___lomod@divisor+2,c
  3501  001952  0E00               	movlw	0
  3502  001954  6E0F               	movwf	___lomod@divisor+3,c
  3503  001956  0E00               	movlw	0
  3504  001958  6E10               	movwf	___lomod@divisor+4,c
  3505  00195A  0E00               	movlw	0
  3506  00195C  6E11               	movwf	___lomod@divisor+5,c
  3507  00195E  0E00               	movlw	0
  3508  001960  6E12               	movwf	___lomod@divisor+6,c
  3509  001962  0E00               	movlw	0
  3510  001964  6E13               	movwf	___lomod@divisor+7,c
  3511  001966  EC83  F010         	call	___lomod	;wreg free
  3512  00196A  C004  F029         	movff	?___lomod,??_utoa
  3513  00196E  C005  F02A         	movff	?___lomod+1,??_utoa+1
  3514  001972  C006  F02B         	movff	?___lomod+2,??_utoa+2
  3515  001976  C007  F02C         	movff	?___lomod+3,??_utoa+3
  3516  00197A  C008  F02D         	movff	?___lomod+4,??_utoa+4
  3517  00197E  C009  F02E         	movff	?___lomod+5,??_utoa+5
  3518  001982  C00A  F02F         	movff	?___lomod+6,??_utoa+6
  3519  001986  C00B  F030         	movff	?___lomod+7,??_utoa+7
  3520  00198A  5029               	movf	??_utoa,w,c
  3521  00198C  0F30               	addlw	48
  3522  00198E  6EDF               	movwf	indf2,c
  3523                           
  3524                           ;C:\Program Files (x86)\Microchip\xc8\v2.05\pic\sources\c99\common\doprnt.c: 612:       
      +                            --p;
  3525  001990  0631               	decf	utoa@p,f,c
  3526  001992  A0D8               	btfss	status,0,c
  3527  001994  0632               	decf	utoa@p+1,f,c
  3528                           
  3529                           ;C:\Program Files (x86)\Microchip\xc8\v2.05\pic\sources\c99\common\doprnt.c: 613:       
      +                            --w;
  3530  001996  0633               	decf	utoa@w,f,c
  3531  001998  A0D8               	btfss	status,0,c
  3532  00199A  0634               	decf	utoa@w+1,f,c
  3533                           
  3534                           ;C:\Program Files (x86)\Microchip\xc8\v2.05\pic\sources\c99\common\doprnt.c: 614:       
      +                            n = n / 10;
  3535  00199C  C035  F004         	movff	utoa@n,___lodiv@dividend
  3536  0019A0  C036  F005         	movff	utoa@n+1,___lodiv@dividend+1
  3537  0019A4  C037  F006         	movff	utoa@n+2,___lodiv@dividend+2
  3538  0019A8  C038  F007         	movff	utoa@n+3,___lodiv@dividend+3
  3539  0019AC  C039  F008         	movff	utoa@n+4,___lodiv@dividend+4
  3540  0019B0  C03A  F009         	movff	utoa@n+5,___lodiv@dividend+5
  3541  0019B4  C03B  F00A         	movff	utoa@n+6,___lodiv@dividend+6
  3542  0019B8  C03C  F00B         	movff	utoa@n+7,___lodiv@dividend+7
  3543  0019BC  0E0A               	movlw	10
  3544  0019BE  6E0C               	movwf	___lodiv@divisor,c
  3545  0019C0  0E00               	movlw	0
  3546  0019C2  6E0D               	movwf	___lodiv@divisor+1,c
  3547  0019C4  0E00               	movlw	0
  3548  0019C6  6E0E               	movwf	___lodiv@divisor+2,c
  3549  0019C8  0E00               	movlw	0
  3550  0019CA  6E0F               	movwf	___lodiv@divisor+3,c
  3551  0019CC  0E00               	movlw	0
  3552  0019CE  6E10               	movwf	___lodiv@divisor+4,c
  3553  0019D0  0E00               	movlw	0
  3554  0019D2  6E11               	movwf	___lodiv@divisor+5,c
  3555  0019D4  0E00               	movlw	0
  3556  0019D6  6E12               	movwf	___lodiv@divisor+6,c
  3557  0019D8  0E00               	movlw	0
  3558  0019DA  6E13               	movwf	___lodiv@divisor+7,c
  3559  0019DC  EC5D  F00F         	call	___lodiv	;wreg free
  3560  0019E0  C004  F035         	movff	?___lodiv,utoa@n
  3561  0019E4  C005  F036         	movff	?___lodiv+1,utoa@n+1
  3562  0019E8  C006  F037         	movff	?___lodiv+2,utoa@n+2
  3563  0019EC  C007  F038         	movff	?___lodiv+3,utoa@n+3
  3564  0019F0  C008  F039         	movff	?___lodiv+4,utoa@n+4
  3565  0019F4  C009  F03A         	movff	?___lodiv+5,utoa@n+5
  3566  0019F8  C00A  F03B         	movff	?___lodiv+6,utoa@n+6
  3567  0019FC  C00B  F03C         	movff	?___lodiv+7,utoa@n+7
  3568  001A00                     l3276:
  3569                           
  3570                           ;C:\Program Files (x86)\Microchip\xc8\v2.05\pic\sources\c99\common\doprnt.c: 609:     wh
      +                          ile (i && (n || (0 < p) || ((0 < w) && (flags & (1 << 1))))) {
  3571  001A00  503D               	movf	utoa@i,w,c
  3572  001A02  103E               	iorwf	utoa@i+1,w,c
  3573  001A04  B4D8               	btfsc	status,2,c
  3574  001A06  D01B               	goto	u3060
  3575  001A08  5035               	movf	utoa@n,w,c
  3576  001A0A  1036               	iorwf	utoa@n+1,w,c
  3577  001A0C  1037               	iorwf	utoa@n+2,w,c
  3578  001A0E  1038               	iorwf	utoa@n+3,w,c
  3579  001A10  1039               	iorwf	utoa@n+4,w,c
  3580  001A12  103A               	iorwf	utoa@n+5,w,c
  3581  001A14  103B               	iorwf	utoa@n+6,w,c
  3582  001A16  103C               	iorwf	utoa@n+7,w,c
  3583  001A18  A4D8               	btfss	status,2,c
  3584  001A1A  D77C               	goto	l3266
  3585  001A1C  BE32               	btfsc	utoa@p+1,7,c
  3586  001A1E  D005               	goto	u3040
  3587  001A20  5032               	movf	utoa@p+1,w,c
  3588  001A22  E102               	bnz	u3041
  3589  001A24  0431               	decf	utoa@p,w,c
  3590  001A26  B0D8               	btfsc	status,0,c
  3591  001A28                     u3041:
  3592  001A28  D775               	goto	l3266
  3593  001A2A                     u3040:
  3594  001A2A  BE34               	btfsc	utoa@w+1,7,c
  3595  001A2C  D008               	goto	u3060
  3596  001A2E  5034               	movf	utoa@w+1,w,c
  3597  001A30  E103               	bnz	u3050
  3598  001A32  0433               	decf	utoa@w,w,c
  3599  001A34  A0D8               	btfss	status,0,c
  3600  001A36  D003               	goto	u3060
  3601  001A38                     u3050:
  3602  001A38  0100               	movlb	0	; () banked
  3603  001A3A  B38C               	btfsc	_flags& (0+255),1,b
  3604  001A3C  D76B               	goto	l3266
  3605  001A3E                     u3060:
  3606                           
  3607                           ;C:\Program Files (x86)\Microchip\xc8\v2.05\pic\sources\c99\common\doprnt.c: 618:     re
      +                          turn pad(fp, &dbuf[i], w);
  3608  001A3E  C01F  F014         	movff	utoa@fp,pad@fp
  3609  001A42  C020  F015         	movff	utoa@fp+1,pad@fp+1
  3610  001A46  0E9A               	movlw	low _dbuf
  3611  001A48  243D               	addwf	utoa@i,w,c
  3612  001A4A  6E16               	movwf	pad@buf,c
  3613  001A4C  0E00               	movlw	high _dbuf
  3614  001A4E  203E               	addwfc	utoa@i+1,w,c
  3615  001A50  6E17               	movwf	pad@buf+1,c
  3616  001A52  C033  F018         	movff	utoa@w,pad@p
  3617  001A56  C034  F019         	movff	utoa@w+1,pad@p+1
  3618  001A5A  EC2A  F011         	call	_pad	;wreg free
  3619  001A5E  C014  F01F         	movff	?_pad,?_utoa
  3620  001A62  C015  F020         	movff	?_pad+1,?_utoa+1
  3621  001A66  0012               	return		;funcret
  3622  001A68                     __end_of_utoa:
  3623                           	opt callstack 0
  3624                           
  3625 ;; *************** function ___lomod *****************
  3626 ;; Defined at:
  3627 ;;		line 9 in file "C:\Program Files (x86)\Microchip\xc8\v2.05\pic\sources\c99\common\lomod.c"
  3628 ;; Parameters:    Size  Location     Type
  3629 ;;  dividend        8    3[COMRAM] unsigned long long 
  3630 ;;  divisor         8   11[COMRAM] unsigned long long 
  3631 ;; Auto vars:     Size  Location     Type
  3632 ;;  counter         1   19[COMRAM] unsigned char 
  3633 ;; Return value:  Size  Location     Type
  3634 ;;                  8    3[COMRAM] unsigned long long 
  3635 ;; Registers used:
  3636 ;;		wreg, status,2, status,0
  3637 ;; Tracked objects:
  3638 ;;		On entry : 0/0
  3639 ;;		On exit  : 0/0
  3640 ;;		Unchanged: 0/0
  3641 ;; Data sizes:     COMRAM   BANK0   BANK1   BANK2   BANK3   BANK4   BANK5   BANK6   BANK7   BANK8   BANK9  BANK10  BANK1
      +1  BANK12  BANK13  BANK14
  3642 ;;      Params:        16       0       0       0       0       0       0       0       0       0       0       0       
      +0       0       0       0
  3643 ;;      Locals:         1       0       0       0       0       0       0       0       0       0       0       0       
      +0       0       0       0
  3644 ;;      Temps:          0       0       0       0       0       0       0       0       0       0       0       0       
      +0       0       0       0
  3645 ;;      Totals:        17       0       0       0       0       0       0       0       0       0       0       0       
      +0       0       0       0
  3646 ;;Total ram usage:       17 bytes
  3647 ;; Hardware stack levels used:    1
  3648 ;; Hardware stack levels required when called:    1
  3649 ;; This function calls:
  3650 ;;		Nothing
  3651 ;; This function is called by:
  3652 ;;		_utoa
  3653 ;; This function uses a non-reentrant model
  3654 ;;
  3655                           
  3656                           	psect	text13
  3657  002106                     __ptext13:
  3658                           	opt callstack 0
  3659  002106                     ___lomod:
  3660                           	opt callstack 25
  3661                           
  3662                           ;incstack = 0
  3663  002106  500C               	movf	___lomod@divisor,w,c
  3664  002108  100D               	iorwf	___lomod@divisor+1,w,c
  3665  00210A  100E               	iorwf	___lomod@divisor+2,w,c
  3666  00210C  100F               	iorwf	___lomod@divisor+3,w,c
  3667  00210E  1010               	iorwf	___lomod@divisor+4,w,c
  3668  002110  1011               	iorwf	___lomod@divisor+5,w,c
  3669  002112  1012               	iorwf	___lomod@divisor+6,w,c
  3670  002114  1013               	iorwf	___lomod@divisor+7,w,c
  3671  002116  B4D8               	btfsc	status,2,c
  3672  002118  D03C               	goto	l746
  3673  00211A  0E01               	movlw	1
  3674  00211C  6E14               	movwf	___lomod@counter,c
  3675  00211E  D00A               	goto	l3218
  3676  002120                     l3216:
  3677  002120  90D8               	bcf	status,0,c
  3678  002122  360C               	rlcf	___lomod@divisor,f,c
  3679  002124  360D               	rlcf	___lomod@divisor+1,f,c
  3680  002126  360E               	rlcf	___lomod@divisor+2,f,c
  3681  002128  360F               	rlcf	___lomod@divisor+3,f,c
  3682  00212A  3610               	rlcf	___lomod@divisor+4,f,c
  3683  00212C  3611               	rlcf	___lomod@divisor+5,f,c
  3684  00212E  3612               	rlcf	___lomod@divisor+6,f,c
  3685  002130  3613               	rlcf	___lomod@divisor+7,f,c
  3686  002132  2A14               	incf	___lomod@counter,f,c
  3687  002134                     l3218:
  3688  002134  AE13               	btfss	___lomod@divisor+7,7,c
  3689  002136  D7F4               	goto	l3216
  3690  002138                     u2950:
  3691  002138  500C               	movf	___lomod@divisor,w,c
  3692  00213A  5C04               	subwf	___lomod@dividend,w,c
  3693  00213C  500D               	movf	___lomod@divisor+1,w,c
  3694  00213E  5805               	subwfb	___lomod@dividend+1,w,c
  3695  002140  500E               	movf	___lomod@divisor+2,w,c
  3696  002142  5806               	subwfb	___lomod@dividend+2,w,c
  3697  002144  500F               	movf	___lomod@divisor+3,w,c
  3698  002146  5807               	subwfb	___lomod@dividend+3,w,c
  3699  002148  5010               	movf	___lomod@divisor+4,w,c
  3700  00214A  5808               	subwfb	___lomod@dividend+4,w,c
  3701  00214C  5011               	movf	___lomod@divisor+5,w,c
  3702  00214E  5809               	subwfb	___lomod@dividend+5,w,c
  3703  002150  5012               	movf	___lomod@divisor+6,w,c
  3704  002152  580A               	subwfb	___lomod@dividend+6,w,c
  3705  002154  5013               	movf	___lomod@divisor+7,w,c
  3706  002156  580B               	subwfb	___lomod@dividend+7,w,c
  3707  002158  A0D8               	btfss	status,0,c
  3708  00215A  D010               	goto	l3224
  3709  00215C  500C               	movf	___lomod@divisor,w,c
  3710  00215E  5E04               	subwf	___lomod@dividend,f,c
  3711  002160  500D               	movf	___lomod@divisor+1,w,c
  3712  002162  5A05               	subwfb	___lomod@dividend+1,f,c
  3713  002164  500E               	movf	___lomod@divisor+2,w,c
  3714  002166  5A06               	subwfb	___lomod@dividend+2,f,c
  3715  002168  500F               	movf	___lomod@divisor+3,w,c
  3716  00216A  5A07               	subwfb	___lomod@dividend+3,f,c
  3717  00216C  5010               	movf	___lomod@divisor+4,w,c
  3718  00216E  5A08               	subwfb	___lomod@dividend+4,f,c
  3719  002170  5011               	movf	___lomod@divisor+5,w,c
  3720  002172  5A09               	subwfb	___lomod@dividend+5,f,c
  3721  002174  5012               	movf	___lomod@divisor+6,w,c
  3722  002176  5A0A               	subwfb	___lomod@dividend+6,f,c
  3723  002178  5013               	movf	___lomod@divisor+7,w,c
  3724  00217A  5A0B               	subwfb	___lomod@dividend+7,f,c
  3725  00217C                     l3224:
  3726  00217C  90D8               	bcf	status,0,c
  3727  00217E  3213               	rrcf	___lomod@divisor+7,f,c
  3728  002180  3212               	rrcf	___lomod@divisor+6,f,c
  3729  002182  3211               	rrcf	___lomod@divisor+5,f,c
  3730  002184  3210               	rrcf	___lomod@divisor+4,f,c
  3731  002186  320F               	rrcf	___lomod@divisor+3,f,c
  3732  002188  320E               	rrcf	___lomod@divisor+2,f,c
  3733  00218A  320D               	rrcf	___lomod@divisor+1,f,c
  3734  00218C  320C               	rrcf	___lomod@divisor,f,c
  3735  00218E  2E14               	decfsz	___lomod@counter,f,c
  3736  002190  D7D3               	goto	u2950
  3737  002192                     l746:
  3738  002192  C004  F004         	movff	___lomod@dividend,?___lomod
  3739  002196  C005  F005         	movff	___lomod@dividend+1,?___lomod+1
  3740  00219A  C006  F006         	movff	___lomod@dividend+2,?___lomod+2
  3741  00219E  C007  F007         	movff	___lomod@dividend+3,?___lomod+3
  3742  0021A2  C008  F008         	movff	___lomod@dividend+4,?___lomod+4
  3743  0021A6  C009  F009         	movff	___lomod@dividend+5,?___lomod+5
  3744  0021AA  C00A  F00A         	movff	___lomod@dividend+6,?___lomod+6
  3745  0021AE  C00B  F00B         	movff	___lomod@dividend+7,?___lomod+7
  3746  0021B2  0012               	return		;funcret
  3747  0021B4                     __end_of___lomod:
  3748                           	opt callstack 0
  3749                           
  3750 ;; *************** function ___lodiv *****************
  3751 ;; Defined at:
  3752 ;;		line 9 in file "C:\Program Files (x86)\Microchip\xc8\v2.05\pic\sources\c99\common\lodiv.c"
  3753 ;; Parameters:    Size  Location     Type
  3754 ;;  dividend        8    3[COMRAM] unsigned long long 
  3755 ;;  divisor         8   11[COMRAM] unsigned long long 
  3756 ;; Auto vars:     Size  Location     Type
  3757 ;;  quotient        8   19[COMRAM] unsigned long long 
  3758 ;;  counter         1   27[COMRAM] unsigned char 
  3759 ;; Return value:  Size  Location     Type
  3760 ;;                  8    3[COMRAM] unsigned long long 
  3761 ;; Registers used:
  3762 ;;		wreg, fsr2l, fsr2h, status,2, status,0
  3763 ;; Tracked objects:
  3764 ;;		On entry : 0/0
  3765 ;;		On exit  : 0/0
  3766 ;;		Unchanged: 0/0
  3767 ;; Data sizes:     COMRAM   BANK0   BANK1   BANK2   BANK3   BANK4   BANK5   BANK6   BANK7   BANK8   BANK9  BANK10  BANK1
      +1  BANK12  BANK13  BANK14
  3768 ;;      Params:        16       0       0       0       0       0       0       0       0       0       0       0       
      +0       0       0       0
  3769 ;;      Locals:         9       0       0       0       0       0       0       0       0       0       0       0       
      +0       0       0       0
  3770 ;;      Temps:          0       0       0       0       0       0       0       0       0       0       0       0       
      +0       0       0       0
  3771 ;;      Totals:        25       0       0       0       0       0       0       0       0       0       0       0       
      +0       0       0       0
  3772 ;;Total ram usage:       25 bytes
  3773 ;; Hardware stack levels used:    1
  3774 ;; Hardware stack levels required when called:    1
  3775 ;; This function calls:
  3776 ;;		Nothing
  3777 ;; This function is called by:
  3778 ;;		_utoa
  3779 ;; This function uses a non-reentrant model
  3780 ;;
  3781                           
  3782                           	psect	text14
  3783  001EBA                     __ptext14:
  3784                           	opt callstack 0
  3785  001EBA                     ___lodiv:
  3786                           	opt callstack 25
  3787                           
  3788                           ;incstack = 0
  3789  001EBA  EE20  F014         	lfsr	2,___lodiv@quotient
  3790  001EBE  0E07               	movlw	7
  3791  001EC0                     u2901:
  3792  001EC0  6ADE               	clrf	postinc2,c
  3793  001EC2  06E8               	decf	wreg,f,c
  3794  001EC4  E2FD               	bc	u2901
  3795  001EC6  500C               	movf	___lodiv@divisor,w,c
  3796  001EC8  100D               	iorwf	___lodiv@divisor+1,w,c
  3797  001ECA  100E               	iorwf	___lodiv@divisor+2,w,c
  3798  001ECC  100F               	iorwf	___lodiv@divisor+3,w,c
  3799  001ECE  1010               	iorwf	___lodiv@divisor+4,w,c
  3800  001ED0  1011               	iorwf	___lodiv@divisor+5,w,c
  3801  001ED2  1012               	iorwf	___lodiv@divisor+6,w,c
  3802  001ED4  1013               	iorwf	___lodiv@divisor+7,w,c
  3803  001ED6  B4D8               	btfsc	status,2,c
  3804  001ED8  D046               	goto	l736
  3805  001EDA  0E01               	movlw	1
  3806  001EDC  6E1C               	movwf	___lodiv@counter,c
  3807  001EDE  D00A               	goto	l3198
  3808  001EE0                     l3196:
  3809  001EE0  90D8               	bcf	status,0,c
  3810  001EE2  360C               	rlcf	___lodiv@divisor,f,c
  3811  001EE4  360D               	rlcf	___lodiv@divisor+1,f,c
  3812  001EE6  360E               	rlcf	___lodiv@divisor+2,f,c
  3813  001EE8  360F               	rlcf	___lodiv@divisor+3,f,c
  3814  001EEA  3610               	rlcf	___lodiv@divisor+4,f,c
  3815  001EEC  3611               	rlcf	___lodiv@divisor+5,f,c
  3816  001EEE  3612               	rlcf	___lodiv@divisor+6,f,c
  3817  001EF0  3613               	rlcf	___lodiv@divisor+7,f,c
  3818  001EF2  2A1C               	incf	___lodiv@counter,f,c
  3819  001EF4                     l3198:
  3820  001EF4  AE13               	btfss	___lodiv@divisor+7,7,c
  3821  001EF6  D7F4               	goto	l3196
  3822  001EF8                     u2920:
  3823  001EF8  90D8               	bcf	status,0,c
  3824  001EFA  3614               	rlcf	___lodiv@quotient,f,c
  3825  001EFC  3615               	rlcf	___lodiv@quotient+1,f,c
  3826  001EFE  3616               	rlcf	___lodiv@quotient+2,f,c
  3827  001F00  3617               	rlcf	___lodiv@quotient+3,f,c
  3828  001F02  3618               	rlcf	___lodiv@quotient+4,f,c
  3829  001F04  3619               	rlcf	___lodiv@quotient+5,f,c
  3830  001F06  361A               	rlcf	___lodiv@quotient+6,f,c
  3831  001F08  361B               	rlcf	___lodiv@quotient+7,f,c
  3832  001F0A  500C               	movf	___lodiv@divisor,w,c
  3833  001F0C  5C04               	subwf	___lodiv@dividend,w,c
  3834  001F0E  500D               	movf	___lodiv@divisor+1,w,c
  3835  001F10  5805               	subwfb	___lodiv@dividend+1,w,c
  3836  001F12  500E               	movf	___lodiv@divisor+2,w,c
  3837  001F14  5806               	subwfb	___lodiv@dividend+2,w,c
  3838  001F16  500F               	movf	___lodiv@divisor+3,w,c
  3839  001F18  5807               	subwfb	___lodiv@dividend+3,w,c
  3840  001F1A  5010               	movf	___lodiv@divisor+4,w,c
  3841  001F1C  5808               	subwfb	___lodiv@dividend+4,w,c
  3842  001F1E  5011               	movf	___lodiv@divisor+5,w,c
  3843  001F20  5809               	subwfb	___lodiv@dividend+5,w,c
  3844  001F22  5012               	movf	___lodiv@divisor+6,w,c
  3845  001F24  580A               	subwfb	___lodiv@dividend+6,w,c
  3846  001F26  5013               	movf	___lodiv@divisor+7,w,c
  3847  001F28  580B               	subwfb	___lodiv@dividend+7,w,c
  3848  001F2A  A0D8               	btfss	status,0,c
  3849  001F2C  D011               	goto	l3208
  3850  001F2E  500C               	movf	___lodiv@divisor,w,c
  3851  001F30  5E04               	subwf	___lodiv@dividend,f,c
  3852  001F32  500D               	movf	___lodiv@divisor+1,w,c
  3853  001F34  5A05               	subwfb	___lodiv@dividend+1,f,c
  3854  001F36  500E               	movf	___lodiv@divisor+2,w,c
  3855  001F38  5A06               	subwfb	___lodiv@dividend+2,f,c
  3856  001F3A  500F               	movf	___lodiv@divisor+3,w,c
  3857  001F3C  5A07               	subwfb	___lodiv@dividend+3,f,c
  3858  001F3E  5010               	movf	___lodiv@divisor+4,w,c
  3859  001F40  5A08               	subwfb	___lodiv@dividend+4,f,c
  3860  001F42  5011               	movf	___lodiv@divisor+5,w,c
  3861  001F44  5A09               	subwfb	___lodiv@dividend+5,f,c
  3862  001F46  5012               	movf	___lodiv@divisor+6,w,c
  3863  001F48  5A0A               	subwfb	___lodiv@dividend+6,f,c
  3864  001F4A  5013               	movf	___lodiv@divisor+7,w,c
  3865  001F4C  5A0B               	subwfb	___lodiv@dividend+7,f,c
  3866  001F4E  8014               	bsf	___lodiv@quotient,0,c
  3867  001F50                     l3208:
  3868  001F50  90D8               	bcf	status,0,c
  3869  001F52  3213               	rrcf	___lodiv@divisor+7,f,c
  3870  001F54  3212               	rrcf	___lodiv@divisor+6,f,c
  3871  001F56  3211               	rrcf	___lodiv@divisor+5,f,c
  3872  001F58  3210               	rrcf	___lodiv@divisor+4,f,c
  3873  001F5A  320F               	rrcf	___lodiv@divisor+3,f,c
  3874  001F5C  320E               	rrcf	___lodiv@divisor+2,f,c
  3875  001F5E  320D               	rrcf	___lodiv@divisor+1,f,c
  3876  001F60  320C               	rrcf	___lodiv@divisor,f,c
  3877  001F62  2E1C               	decfsz	___lodiv@counter,f,c
  3878  001F64  D7C9               	goto	u2920
  3879  001F66                     l736:
  3880  001F66  C014  F004         	movff	___lodiv@quotient,?___lodiv
  3881  001F6A  C015  F005         	movff	___lodiv@quotient+1,?___lodiv+1
  3882  001F6E  C016  F006         	movff	___lodiv@quotient+2,?___lodiv+2
  3883  001F72  C017  F007         	movff	___lodiv@quotient+3,?___lodiv+3
  3884  001F76  C018  F008         	movff	___lodiv@quotient+4,?___lodiv+4
  3885  001F7A  C019  F009         	movff	___lodiv@quotient+5,?___lodiv+5
  3886  001F7E  C01A  F00A         	movff	___lodiv@quotient+6,?___lodiv+6
  3887  001F82  C01B  F00B         	movff	___lodiv@quotient+7,?___lodiv+7
  3888  001F86  0012               	return		;funcret
  3889  001F88                     __end_of___lodiv:
  3890                           	opt callstack 0
  3891                           
  3892 ;; *************** function _ctoa *****************
  3893 ;; Defined at:
  3894 ;;		line 259 in file "C:\Program Files (x86)\Microchip\xc8\v2.05\pic\sources\c99\common\doprnt.c"
  3895 ;; Parameters:    Size  Location     Type
  3896 ;;  fp              2   30[COMRAM] PTR struct _IO_FILE
  3897 ;;		 -> sprintf@f(6), 
  3898 ;;  c               1   32[COMRAM] unsigned char 
  3899 ;; Auto vars:     Size  Location     Type
  3900 ;;  w               2   33[COMRAM] int 
  3901 ;;  l               2    0        int 
  3902 ;; Return value:  Size  Location     Type
  3903 ;;                  2   30[COMRAM] int 
  3904 ;; Registers used:
  3905 ;;		wreg, fsr1l, fsr1h, fsr2l, fsr2h, status,2, status,0, cstack
  3906 ;; Tracked objects:
  3907 ;;		On entry : 0/0
  3908 ;;		On exit  : 0/0
  3909 ;;		Unchanged: 0/0
  3910 ;; Data sizes:     COMRAM   BANK0   BANK1   BANK2   BANK3   BANK4   BANK5   BANK6   BANK7   BANK8   BANK9  BANK10  BANK1
      +1  BANK12  BANK13  BANK14
  3911 ;;      Params:         3       0       0       0       0       0       0       0       0       0       0       0       
      +0       0       0       0
  3912 ;;      Locals:         2       0       0       0       0       0       0       0       0       0       0       0       
      +0       0       0       0
  3913 ;;      Temps:          0       0       0       0       0       0       0       0       0       0       0       0       
      +0       0       0       0
  3914 ;;      Totals:         5       0       0       0       0       0       0       0       0       0       0       0       
      +0       0       0       0
  3915 ;;Total ram usage:        5 bytes
  3916 ;; Hardware stack levels used:    1
  3917 ;; Hardware stack levels required when called:    5
  3918 ;; This function calls:
  3919 ;;		_pad
  3920 ;; This function is called by:
  3921 ;;		_vfpfcnvrt
  3922 ;; This function uses a non-reentrant model
  3923 ;;
  3924                           
  3925                           	psect	text15
  3926  002404                     __ptext15:
  3927                           	opt callstack 0
  3928  002404                     _ctoa:
  3929                           	opt callstack 22
  3930                           
  3931                           ;C:\Program Files (x86)\Microchip\xc8\v2.05\pic\sources\c99\common\doprnt.c: 259: static
      +                           int ctoa(FILE *fp, char c);C:\Program Files (x86)\Microchip\xc8\v2.05\pic\sources\c99\c
      +                          ommon\doprnt.c: 260: {;C:\Program Files (x86)\Microchip\xc8\v2.05\pic\sources\c99\common
      +                          \doprnt.c: 261:     int l, w;;C:\Program Files (x86)\Microchip\xc8\v2.05\pic\sources\c99
      +                          \common\doprnt.c: 264:     w = width ? width - 1 : width;
  3932                           
  3933                           ;incstack = 0
  3934  002404  5058               	movf	_width,w,c
  3935  002406  1059               	iorwf	_width+1,w,c
  3936  002408  A4D8               	btfss	status,2,c
  3937  00240A  D005               	goto	l3244
  3938  00240C  C058  F022         	movff	_width,ctoa@w
  3939  002410  C059  F023         	movff	_width+1,ctoa@w+1
  3940  002414  D006               	goto	l3246
  3941  002416                     l3244:
  3942  002416  0EFF               	movlw	255
  3943  002418  2458               	addwf	_width,w,c
  3944  00241A  6E22               	movwf	ctoa@w,c
  3945  00241C  0EFF               	movlw	255
  3946  00241E  2059               	addwfc	_width+1,w,c
  3947  002420  6E23               	movwf	ctoa@w+1,c
  3948  002422                     l3246:
  3949                           
  3950                           ;C:\Program Files (x86)\Microchip\xc8\v2.05\pic\sources\c99\common\doprnt.c: 267:     db
      +                          uf[0] = c;
  3951  002422  C021  F09A         	movff	ctoa@c,_dbuf
  3952                           
  3953                           ;C:\Program Files (x86)\Microchip\xc8\v2.05\pic\sources\c99\common\doprnt.c: 268:     db
      +                          uf[1] = '\0';
  3954  002426  0E00               	movlw	0
  3955  002428  0100               	movlb	0	; () banked
  3956  00242A  6F9B               	movwf	(_dbuf+1)& (0+255),b
  3957                           
  3958                           ; BSR set to: 0
  3959                           ;C:\Program Files (x86)\Microchip\xc8\v2.05\pic\sources\c99\common\doprnt.c: 269:     re
      +                          turn pad(fp, &dbuf[0], w);
  3960  00242C  C01F  F014         	movff	ctoa@fp,pad@fp
  3961  002430  C020  F015         	movff	ctoa@fp+1,pad@fp+1
  3962  002434  0E9A               	movlw	low _dbuf
  3963  002436  6E16               	movwf	pad@buf,c
  3964  002438  0E00               	movlw	high _dbuf
  3965  00243A  6E17               	movwf	pad@buf+1,c
  3966  00243C  C022  F018         	movff	ctoa@w,pad@p
  3967  002440  C023  F019         	movff	ctoa@w+1,pad@p+1
  3968  002444  EC2A  F011         	call	_pad	;wreg free
  3969  002448  C014  F01F         	movff	?_pad,?_ctoa
  3970  00244C  C015  F020         	movff	?_pad+1,?_ctoa+1
  3971  002450  0012               	return		;funcret
  3972  002452                     __end_of_ctoa:
  3973                           	opt callstack 0
  3974                           
  3975 ;; *************** function _pad *****************
  3976 ;; Defined at:
  3977 ;;		line 72 in file "C:\Program Files (x86)\Microchip\xc8\v2.05\pic\sources\c99\common\doprnt.c"
  3978 ;; Parameters:    Size  Location     Type
  3979 ;;  fp              2   19[COMRAM] PTR struct _IO_FILE
  3980 ;;		 -> sprintf@f(6), 
  3981 ;;  buf             2   21[COMRAM] PTR unsigned char 
  3982 ;;		 -> dbuf(32), 
  3983 ;;  p               2   23[COMRAM] int 
  3984 ;; Auto vars:     Size  Location     Type
  3985 ;;  w               2   28[COMRAM] int 
  3986 ;;  i               2   26[COMRAM] int 
  3987 ;; Return value:  Size  Location     Type
  3988 ;;                  2   19[COMRAM] int 
  3989 ;; Registers used:
  3990 ;;		wreg, fsr1l, fsr1h, fsr2l, fsr2h, status,2, status,0, cstack
  3991 ;; Tracked objects:
  3992 ;;		On entry : 0/0
  3993 ;;		On exit  : 0/0
  3994 ;;		Unchanged: 0/0
  3995 ;; Data sizes:     COMRAM   BANK0   BANK1   BANK2   BANK3   BANK4   BANK5   BANK6   BANK7   BANK8   BANK9  BANK10  BANK1
      +1  BANK12  BANK13  BANK14
  3996 ;;      Params:         6       0       0       0       0       0       0       0       0       0       0       0       
      +0       0       0       0
  3997 ;;      Locals:         4       0       0       0       0       0       0       0       0       0       0       0       
      +0       0       0       0
  3998 ;;      Temps:          1       0       0       0       0       0       0       0       0       0       0       0       
      +0       0       0       0
  3999 ;;      Totals:        11       0       0       0       0       0       0       0       0       0       0       0       
      +0       0       0       0
  4000 ;;Total ram usage:       11 bytes
  4001 ;; Hardware stack levels used:    1
  4002 ;; Hardware stack levels required when called:    4
  4003 ;; This function calls:
  4004 ;;		_fputc
  4005 ;;		_fputs
  4006 ;;		_strlen
  4007 ;; This function is called by:
  4008 ;;		_ctoa
  4009 ;;		_utoa
  4010 ;; This function uses a non-reentrant model
  4011 ;;
  4012                           
  4013                           	psect	text16
  4014  002254                     __ptext16:
  4015                           	opt callstack 0
  4016  002254                     _pad:
  4017                           	opt callstack 22
  4018                           
  4019                           ;C:\Program Files (x86)\Microchip\xc8\v2.05\pic\sources\c99\common\doprnt.c: 72: static 
      +                          int pad(FILE *fp, char *buf, int p);C:\Program Files (x86)\Microchip\xc8\v2.05\pic\sourc
      +                          es\c99\common\doprnt.c: 73: {;C:\Program Files (x86)\Microchip\xc8\v2.05\pic\sources\c99
      +                          \common\doprnt.c: 74:     int i, w;;C:\Program Files (x86)\Microchip\xc8\v2.05\pic\sourc
      +                          es\c99\common\doprnt.c: 77:     if (flags & (1 << 0)) {
  4020                           
  4021                           ;incstack = 0
  4022  002254  0100               	movlb	0	; () banked
  4023  002256  A18C               	btfss	_flags& (0+255),0,b
  4024  002258  D00A               	goto	l3162
  4025                           
  4026                           ; BSR set to: 0
  4027                           ;C:\Program Files (x86)\Microchip\xc8\v2.05\pic\sources\c99\common\doprnt.c: 78:        
      +                           fputs((const char *)buf, fp);
  4028  00225A  C016  F00D         	movff	pad@buf,fputs@s
  4029  00225E  C017  F00E         	movff	pad@buf+1,fputs@s+1
  4030  002262  C014  F00F         	movff	pad@fp,fputs@fp
  4031  002266  C015  F010         	movff	pad@fp+1,fputs@fp+1
  4032  00226A  EC66  F012         	call	_fputs	;wreg free
  4033  00226E                     l3162:
  4034                           
  4035                           ;C:\Program Files (x86)\Microchip\xc8\v2.05\pic\sources\c99\common\doprnt.c: 82:     w =
      +                           (p < 0) ? 0 : p;
  4036  00226E  BE19               	btfsc	pad@p+1,7,c
  4037  002270  D005               	goto	l3166
  4038  002272  C018  F01D         	movff	pad@p,pad@w
  4039  002276  C019  F01E         	movff	pad@p+1,pad@w+1
  4040  00227A  D004               	goto	l233
  4041  00227C                     l3166:
  4042  00227C  0E00               	movlw	0
  4043  00227E  6E1E               	movwf	pad@w+1,c
  4044  002280  0E00               	movlw	0
  4045  002282  6E1D               	movwf	pad@w,c
  4046  002284                     l233:
  4047                           
  4048                           ;C:\Program Files (x86)\Microchip\xc8\v2.05\pic\sources\c99\common\doprnt.c: 83:     i =
      +                           0;
  4049  002284  0E00               	movlw	0
  4050  002286  6E1C               	movwf	pad@i+1,c
  4051  002288  0E00               	movlw	0
  4052  00228A  6E1B               	movwf	pad@i,c
  4053                           
  4054                           ;C:\Program Files (x86)\Microchip\xc8\v2.05\pic\sources\c99\common\doprnt.c: 84:     whi
      +                          le (i < w) {
  4055  00228C  D00C               	goto	l3172
  4056  00228E                     l3168:
  4057                           
  4058                           ;C:\Program Files (x86)\Microchip\xc8\v2.05\pic\sources\c99\common\doprnt.c: 85:        
      +                           fputc(' ', fp);
  4059  00228E  0E00               	movlw	0
  4060  002290  6E05               	movwf	fputc@c+1,c
  4061  002292  0E20               	movlw	32
  4062  002294  6E04               	movwf	fputc@c,c
  4063  002296  C014  F006         	movff	pad@fp,fputc@fp
  4064  00229A  C015  F007         	movff	pad@fp+1,fputc@fp+1
  4065  00229E  ECDA  F010         	call	_fputc	;wreg free
  4066                           
  4067                           ;C:\Program Files (x86)\Microchip\xc8\v2.05\pic\sources\c99\common\doprnt.c: 86:        
      +                           ++i;
  4068  0022A2  4A1B               	infsnz	pad@i,f,c
  4069  0022A4  2A1C               	incf	pad@i+1,f,c
  4070  0022A6                     l3172:
  4071                           
  4072                           ;C:\Program Files (x86)\Microchip\xc8\v2.05\pic\sources\c99\common\doprnt.c: 84:     whi
      +                          le (i < w) {
  4073  0022A6  501D               	movf	pad@w,w,c
  4074  0022A8  5C1B               	subwf	pad@i,w,c
  4075  0022AA  501C               	movf	pad@i+1,w,c
  4076  0022AC  0A80               	xorlw	128
  4077  0022AE  6E1A               	movwf	??_pad& (0+255),c
  4078  0022B0  501E               	movf	pad@w+1,w,c
  4079  0022B2  0A80               	xorlw	128
  4080  0022B4  581A               	subwfb	??_pad& (0+255),w,c
  4081  0022B6  A0D8               	btfss	status,0,c
  4082  0022B8  D7EA               	goto	l3168
  4083                           
  4084                           ;C:\Program Files (x86)\Microchip\xc8\v2.05\pic\sources\c99\common\doprnt.c: 90:     if 
      +                          (!(flags & (1 << 0))) {
  4085  0022BA  0100               	movlb	0	; () banked
  4086  0022BC  B18C               	btfsc	_flags& (0+255),0,b
  4087  0022BE  D00A               	goto	l3176
  4088                           
  4089                           ; BSR set to: 0
  4090                           ;C:\Program Files (x86)\Microchip\xc8\v2.05\pic\sources\c99\common\doprnt.c: 91:        
      +                           fputs((const char *)buf, fp);
  4091  0022C0  C016  F00D         	movff	pad@buf,fputs@s
  4092  0022C4  C017  F00E         	movff	pad@buf+1,fputs@s+1
  4093  0022C8  C014  F00F         	movff	pad@fp,fputs@fp
  4094  0022CC  C015  F010         	movff	pad@fp+1,fputs@fp+1
  4095  0022D0  EC66  F012         	call	_fputs	;wreg free
  4096  0022D4                     l3176:
  4097                           
  4098                           ;C:\Program Files (x86)\Microchip\xc8\v2.05\pic\sources\c99\common\doprnt.c: 94:     ret
      +                          urn strlen(buf) + w;
  4099  0022D4  C016  F004         	movff	pad@buf,strlen@s
  4100  0022D8  C017  F005         	movff	pad@buf+1,strlen@s+1
  4101  0022DC  ECB2  F012         	call	_strlen	;wreg free
  4102  0022E0  501D               	movf	pad@w,w,c
  4103  0022E2  2404               	addwf	?_strlen,w,c
  4104  0022E4  6E14               	movwf	?_pad,c
  4105  0022E6  501E               	movf	pad@w+1,w,c
  4106  0022E8  2005               	addwfc	?_strlen+1,w,c
  4107  0022EA  6E15               	movwf	?_pad+1,c
  4108  0022EC  0012               	return		;funcret
  4109  0022EE                     __end_of_pad:
  4110                           	opt callstack 0
  4111                           
  4112 ;; *************** function _strlen *****************
  4113 ;; Defined at:
  4114 ;;		line 12 in file "C:\Program Files (x86)\Microchip\xc8\v2.05\pic\sources\c99\common\strlen.c"
  4115 ;; Parameters:    Size  Location     Type
  4116 ;;  s               2    3[COMRAM] PTR const unsigned char 
  4117 ;;		 -> dbuf(32), 
  4118 ;; Auto vars:     Size  Location     Type
  4119 ;;  a               2    5[COMRAM] PTR const unsigned char 
  4120 ;;		 -> dbuf(32), 
  4121 ;; Return value:  Size  Location     Type
  4122 ;;                  2    3[COMRAM] unsigned int 
  4123 ;; Registers used:
  4124 ;;		wreg, fsr2l, fsr2h, status,2, status,0
  4125 ;; Tracked objects:
  4126 ;;		On entry : 0/0
  4127 ;;		On exit  : 0/0
  4128 ;;		Unchanged: 0/0
  4129 ;; Data sizes:     COMRAM   BANK0   BANK1   BANK2   BANK3   BANK4   BANK5   BANK6   BANK7   BANK8   BANK9  BANK10  BANK1
      +1  BANK12  BANK13  BANK14
  4130 ;;      Params:         2       0       0       0       0       0       0       0       0       0       0       0       
      +0       0       0       0
  4131 ;;      Locals:         2       0       0       0       0       0       0       0       0       0       0       0       
      +0       0       0       0
  4132 ;;      Temps:          0       0       0       0       0       0       0       0       0       0       0       0       
      +0       0       0       0
  4133 ;;      Totals:         4       0       0       0       0       0       0       0       0       0       0       0       
      +0       0       0       0
  4134 ;;Total ram usage:        4 bytes
  4135 ;; Hardware stack levels used:    1
  4136 ;; Hardware stack levels required when called:    1
  4137 ;; This function calls:
  4138 ;;		Nothing
  4139 ;; This function is called by:
  4140 ;;		_pad
  4141 ;; This function uses a non-reentrant model
  4142 ;;
  4143                           
  4144                           	psect	text17
  4145  002564                     __ptext17:
  4146                           	opt callstack 0
  4147  002564                     _strlen:
  4148                           	opt callstack 24
  4149                           
  4150                           ;incstack = 0
  4151  002564  C004  F006         	movff	strlen@s,strlen@a
  4152  002568  C005  F007         	movff	strlen@s+1,strlen@a+1
  4153  00256C  D002               	goto	l3152
  4154  00256E                     l3150:
  4155  00256E  4A04               	infsnz	strlen@s,f,c
  4156  002570  2A05               	incf	strlen@s+1,f,c
  4157  002572                     l3152:
  4158  002572  C004  FFD9         	movff	strlen@s,fsr2l
  4159  002576  C005  FFDA         	movff	strlen@s+1,fsr2h
  4160  00257A  50DF               	movf	indf2,w,c
  4161  00257C  A4D8               	btfss	status,2,c
  4162  00257E  D7F7               	goto	l3150
  4163  002580  5006               	movf	strlen@a,w,c
  4164  002582  5C04               	subwf	strlen@s,w,c
  4165  002584  6E04               	movwf	?_strlen,c
  4166  002586  5007               	movf	strlen@a+1,w,c
  4167  002588  5805               	subwfb	strlen@s+1,w,c
  4168  00258A  6E05               	movwf	?_strlen+1,c
  4169  00258C  0012               	return		;funcret
  4170  00258E                     __end_of_strlen:
  4171                           	opt callstack 0
  4172                           
  4173 ;; *************** function _fputs *****************
  4174 ;; Defined at:
  4175 ;;		line 8 in file "C:\Program Files (x86)\Microchip\xc8\v2.05\pic\sources\c99\common\nf_fputs.c"
  4176 ;; Parameters:    Size  Location     Type
  4177 ;;  s               2   12[COMRAM] PTR const unsigned char 
  4178 ;;		 -> dbuf(32), 
  4179 ;;  fp              2   14[COMRAM] PTR struct _IO_FILE
  4180 ;;		 -> sprintf@f(6), 
  4181 ;; Auto vars:     Size  Location     Type
  4182 ;;  i               2   17[COMRAM] int 
  4183 ;;  c               1   16[COMRAM] unsigned char 
  4184 ;; Return value:  Size  Location     Type
  4185 ;;                  2   12[COMRAM] int 
  4186 ;; Registers used:
  4187 ;;		wreg, fsr1l, fsr1h, fsr2l, fsr2h, status,2, status,0, cstack
  4188 ;; Tracked objects:
  4189 ;;		On entry : 0/0
  4190 ;;		On exit  : 0/0
  4191 ;;		Unchanged: 0/0
  4192 ;; Data sizes:     COMRAM   BANK0   BANK1   BANK2   BANK3   BANK4   BANK5   BANK6   BANK7   BANK8   BANK9  BANK10  BANK1
      +1  BANK12  BANK13  BANK14
  4193 ;;      Params:         4       0       0       0       0       0       0       0       0       0       0       0       
      +0       0       0       0
  4194 ;;      Locals:         3       0       0       0       0       0       0       0       0       0       0       0       
      +0       0       0       0
  4195 ;;      Temps:          0       0       0       0       0       0       0       0       0       0       0       0       
      +0       0       0       0
  4196 ;;      Totals:         7       0       0       0       0       0       0       0       0       0       0       0       
      +0       0       0       0
  4197 ;;Total ram usage:        7 bytes
  4198 ;; Hardware stack levels used:    1
  4199 ;; Hardware stack levels required when called:    3
  4200 ;; This function calls:
  4201 ;;		_fputc
  4202 ;; This function is called by:
  4203 ;;		_pad
  4204 ;; This function uses a non-reentrant model
  4205 ;;
  4206                           
  4207                           	psect	text18
  4208  0024CC                     __ptext18:
  4209                           	opt callstack 0
  4210  0024CC                     _fputs:
  4211                           	opt callstack 22
  4212                           
  4213                           ;incstack = 0
  4214  0024CC  0E00               	movlw	0
  4215  0024CE  6E13               	movwf	fputs@i+1,c
  4216  0024D0  0E00               	movlw	0
  4217  0024D2  6E12               	movwf	fputs@i,c
  4218  0024D4  D00B               	goto	l3146
  4219  0024D6                     l3142:
  4220  0024D6  C011  F004         	movff	fputs@c,fputc@c
  4221  0024DA  6A05               	clrf	fputc@c+1,c
  4222  0024DC  C00F  F006         	movff	fputs@fp,fputc@fp
  4223  0024E0  C010  F007         	movff	fputs@fp+1,fputc@fp+1
  4224  0024E4  ECDA  F010         	call	_fputc	;wreg free
  4225  0024E8  4A12               	infsnz	fputs@i,f,c
  4226  0024EA  2A13               	incf	fputs@i+1,f,c
  4227  0024EC                     l3146:
  4228  0024EC  5012               	movf	fputs@i,w,c
  4229  0024EE  240D               	addwf	fputs@s,w,c
  4230  0024F0  6ED9               	movwf	fsr2l,c
  4231  0024F2  5013               	movf	fputs@i+1,w,c
  4232  0024F4  200E               	addwfc	fputs@s+1,w,c
  4233  0024F6  6EDA               	movwf	fsr2h,c
  4234  0024F8  50DF               	movf	indf2,w,c
  4235  0024FA  6E11               	movwf	fputs@c,c
  4236  0024FC  5011               	movf	fputs@c,w,c
  4237  0024FE  B4D8               	btfsc	status,2,c
  4238  002500  0012               	return	
  4239  002502  D7E9               	goto	l3142
  4240  002504                     __end_of_fputs:
  4241                           	opt callstack 0
  4242                           
  4243 ;; *************** function _fputc *****************
  4244 ;; Defined at:
  4245 ;;		line 8 in file "C:\Program Files (x86)\Microchip\xc8\v2.05\pic\sources\c99\common\nf_fputc.c"
  4246 ;; Parameters:    Size  Location     Type
  4247 ;;  c               2    3[COMRAM] int 
  4248 ;;  fp              2    5[COMRAM] PTR struct _IO_FILE
  4249 ;;		 -> sprintf@f(6), 
  4250 ;; Auto vars:     Size  Location     Type
  4251 ;;		None
  4252 ;; Return value:  Size  Location     Type
  4253 ;;                  2    3[COMRAM] int 
  4254 ;; Registers used:
  4255 ;;		wreg, fsr1l, fsr1h, fsr2l, fsr2h, status,2, status,0, cstack
  4256 ;; Tracked objects:
  4257 ;;		On entry : 0/0
  4258 ;;		On exit  : 0/0
  4259 ;;		Unchanged: 0/0
  4260 ;; Data sizes:     COMRAM   BANK0   BANK1   BANK2   BANK3   BANK4   BANK5   BANK6   BANK7   BANK8   BANK9  BANK10  BANK1
      +1  BANK12  BANK13  BANK14
  4261 ;;      Params:         4       0       0       0       0       0       0       0       0       0       0       0       
      +0       0       0       0
  4262 ;;      Locals:         0       0       0       0       0       0       0       0       0       0       0       0       
      +0       0       0       0
  4263 ;;      Temps:          5       0       0       0       0       0       0       0       0       0       0       0       
      +0       0       0       0
  4264 ;;      Totals:         9       0       0       0       0       0       0       0       0       0       0       0       
      +0       0       0       0
  4265 ;;Total ram usage:        9 bytes
  4266 ;; Hardware stack levels used:    1
  4267 ;; Hardware stack levels required when called:    2
  4268 ;; This function calls:
  4269 ;;		_putch
  4270 ;; This function is called by:
  4271 ;;		_pad
  4272 ;;		_vfpfcnvrt
  4273 ;;		_fputs
  4274 ;; This function uses a non-reentrant model
  4275 ;;
  4276                           
  4277                           	psect	text19
  4278  0021B4                     __ptext19:
  4279                           	opt callstack 0
  4280  0021B4                     _fputc:
  4281                           	opt callstack 22
  4282                           
  4283                           ;incstack = 0
  4284  0021B4  5006               	movf	fputc@fp,w,c
  4285  0021B6  1007               	iorwf	fputc@fp+1,w,c
  4286  0021B8  B4D8               	btfsc	status,2,c
  4287  0021BA  D004               	goto	u2790
  4288  0021BC  5006               	movf	fputc@fp,w,c
  4289  0021BE  1007               	iorwf	fputc@fp+1,w,c
  4290  0021C0  A4D8               	btfss	status,2,c
  4291  0021C2  D004               	goto	l3132
  4292  0021C4                     u2790:
  4293  0021C4  5004               	movf	fputc@c,w,c
  4294  0021C6  EC2E  F013         	call	_putch
  4295  0021CA  0012               	return	
  4296  0021CC                     l3132:
  4297  0021CC  EE20 F004          	lfsr	2,4
  4298  0021D0  5006               	movf	fputc@fp,w,c
  4299  0021D2  26D9               	addwf	fsr2l,f,c
  4300  0021D4  5007               	movf	fputc@fp+1,w,c
  4301  0021D6  22DA               	addwfc	fsr2h,f,c
  4302  0021D8  50DE               	movf	postinc2,w,c
  4303  0021DA  10DE               	iorwf	postinc2,w,c
  4304  0021DC  B4D8               	btfsc	status,2,c
  4305  0021DE  D016               	goto	u2810
  4306  0021E0  EE20 F004          	lfsr	2,4
  4307  0021E4  5006               	movf	fputc@fp,w,c
  4308  0021E6  26D9               	addwf	fsr2l,f,c
  4309  0021E8  5007               	movf	fputc@fp+1,w,c
  4310  0021EA  22DA               	addwfc	fsr2h,f,c
  4311  0021EC  EE10 F002          	lfsr	1,2
  4312  0021F0  5006               	movf	fputc@fp,w,c
  4313  0021F2  26E1               	addwf	fsr1l,f,c
  4314  0021F4  5007               	movf	fputc@fp+1,w,c
  4315  0021F6  22E2               	addwfc	fsr1h,f,c
  4316  0021F8  50DE               	movf	postinc2,w,c
  4317  0021FA  5CE6               	subwf	postinc1,w,c
  4318  0021FC  50E6               	movf	postinc1,w,c
  4319  0021FE  0A80               	xorlw	128
  4320  002200  6E0C               	movwf	(??_fputc+4)& (0+255),c
  4321  002202  50DE               	movf	postinc2,w,c
  4322  002204  0A80               	xorlw	128
  4323  002206  580C               	subwfb	(??_fputc+4)& (0+255),w,c
  4324  002208  B0D8               	btfsc	status,0,c
  4325  00220A  0012               	return	
  4326  00220C                     u2810:
  4327  00220C  EE20 F002          	lfsr	2,2
  4328  002210  5006               	movf	fputc@fp,w,c
  4329  002212  26D9               	addwf	fsr2l,f,c
  4330  002214  5007               	movf	fputc@fp+1,w,c
  4331  002216  22DA               	addwfc	fsr2h,f,c
  4332  002218  CFDE F008          	movff	postinc2,??_fputc
  4333  00221C  CFDD F009          	movff	postdec2,??_fputc+1
  4334  002220  C006  FFD9         	movff	fputc@fp,fsr2l
  4335  002224  C007  FFDA         	movff	fputc@fp+1,fsr2h
  4336  002228  CFDE F00A          	movff	postinc2,??_fputc+2
  4337  00222C  CFDD F00B          	movff	postdec2,??_fputc+3
  4338  002230  5008               	movf	??_fputc,w,c
  4339  002232  240A               	addwf	??_fputc+2,w,c
  4340  002234  6ED9               	movwf	fsr2l,c
  4341  002236  5009               	movf	??_fputc+1,w,c
  4342  002238  200B               	addwfc	??_fputc+3,w,c
  4343  00223A  6EDA               	movwf	fsr2h,c
  4344  00223C  C004  FFDF         	movff	fputc@c,indf2
  4345  002240  EE20 F002          	lfsr	2,2
  4346  002244  5006               	movf	fputc@fp,w,c
  4347  002246  26D9               	addwf	fsr2l,f,c
  4348  002248  5007               	movf	fputc@fp+1,w,c
  4349  00224A  22DA               	addwfc	fsr2h,f,c
  4350  00224C  2ADE               	incf	postinc2,f,c
  4351  00224E  0E00               	movlw	0
  4352  002250  22DD               	addwfc	postdec2,f,c
  4353  002252  0012               	return		;funcret
  4354  002254                     __end_of_fputc:
  4355                           	opt callstack 0
  4356                           
  4357 ;; *************** function _putch *****************
  4358 ;; Defined at:
  4359 ;;		line 7 in file "C:\Program Files (x86)\Microchip\xc8\v2.05\pic\sources\c99\common\putch.c"
  4360 ;; Parameters:    Size  Location     Type
  4361 ;;  c               1    wreg     unsigned char 
  4362 ;; Auto vars:     Size  Location     Type
  4363 ;;  c               1    0[COMRAM] unsigned char 
  4364 ;; Return value:  Size  Location     Type
  4365 ;;                  1    wreg      void 
  4366 ;; Registers used:
  4367 ;;		wreg
  4368 ;; Tracked objects:
  4369 ;;		On entry : 0/0
  4370 ;;		On exit  : 0/0
  4371 ;;		Unchanged: 0/0
  4372 ;; Data sizes:     COMRAM   BANK0   BANK1   BANK2   BANK3   BANK4   BANK5   BANK6   BANK7   BANK8   BANK9  BANK10  BANK1
      +1  BANK12  BANK13  BANK14
  4373 ;;      Params:         0       0       0       0       0       0       0       0       0       0       0       0       
      +0       0       0       0
  4374 ;;      Locals:         0       0       0       0       0       0       0       0       0       0       0       0       
      +0       0       0       0
  4375 ;;      Temps:          0       0       0       0       0       0       0       0       0       0       0       0       
      +0       0       0       0
  4376 ;;      Totals:         0       0       0       0       0       0       0       0       0       0       0       0       
      +0       0       0       0
  4377 ;;Total ram usage:        0 bytes
  4378 ;; Hardware stack levels used:    1
  4379 ;; Hardware stack levels required when called:    1
  4380 ;; This function calls:
  4381 ;;		Nothing
  4382 ;; This function is called by:
  4383 ;;		_fputc
  4384 ;; This function uses a non-reentrant model
  4385 ;;
  4386                           
  4387                           	psect	text20
  4388  00265C                     __ptext20:
  4389                           	opt callstack 0
  4390  00265C                     _putch:
  4391                           	opt callstack 22
  4392                           
  4393                           ;incstack = 0
  4394  00265C  0012               	return		;funcret
  4395  00265E                     __end_of_putch:
  4396                           	opt callstack 0
  4397                           
  4398 ;; *************** function _atoi *****************
  4399 ;; Defined at:
  4400 ;;		line 4 in file "C:\Program Files (x86)\Microchip\xc8\v2.05\pic\sources\c99\common\atoi.c"
  4401 ;; Parameters:    Size  Location     Type
  4402 ;;  s               2   10[COMRAM] PTR const unsigned char 
  4403 ;;		 -> STR_1(7), 
  4404 ;; Auto vars:     Size  Location     Type
  4405 ;;  n               2   23[COMRAM] int 
  4406 ;;  neg             2   16[COMRAM] int 
  4407 ;; Return value:  Size  Location     Type
  4408 ;;                  2   10[COMRAM] int 
  4409 ;; Registers used:
  4410 ;;		wreg, status,2, status,0, tblptrl, tblptrh, tblptru, prodl, prodh, cstack
  4411 ;; Tracked objects:
  4412 ;;		On entry : 0/0
  4413 ;;		On exit  : 0/0
  4414 ;;		Unchanged: 0/0
  4415 ;; Data sizes:     COMRAM   BANK0   BANK1   BANK2   BANK3   BANK4   BANK5   BANK6   BANK7   BANK8   BANK9  BANK10  BANK1
      +1  BANK12  BANK13  BANK14
  4416 ;;      Params:         2       0       0       0       0       0       0       0       0       0       0       0       
      +0       0       0       0
  4417 ;;      Locals:         9       0       0       0       0       0       0       0       0       0       0       0       
      +0       0       0       0
  4418 ;;      Temps:          4       0       0       0       0       0       0       0       0       0       0       0       
      +0       0       0       0
  4419 ;;      Totals:        15       0       0       0       0       0       0       0       0       0       0       0       
      +0       0       0       0
  4420 ;;Total ram usage:       15 bytes
  4421 ;; Hardware stack levels used:    1
  4422 ;; Hardware stack levels required when called:    2
  4423 ;; This function calls:
  4424 ;;		___wmul
  4425 ;;		_isdigit
  4426 ;;		_isspace
  4427 ;; This function is called by:
  4428 ;;		_vfpfcnvrt
  4429 ;; This function uses a non-reentrant model
  4430 ;;
  4431                           
  4432                           	psect	text21
  4433  001A68                     __ptext21:
  4434                           	opt callstack 0
  4435  001A68                     _atoi:
  4436                           	opt callstack 25
  4437                           
  4438                           ;incstack = 0
  4439  001A68  0E00               	movlw	0
  4440  001A6A  6E19               	movwf	atoi@n+1,c
  4441  001A6C  0E00               	movlw	0
  4442  001A6E  6E18               	movwf	atoi@n,c
  4443  001A70  0E00               	movlw	0
  4444  001A72  6E12               	movwf	atoi@neg+1,c
  4445  001A74  0E00               	movlw	0
  4446  001A76  6E11               	movwf	atoi@neg,c
  4447  001A78  D002               	goto	l3294
  4448  001A7A                     l3292:
  4449  001A7A  4A0B               	infsnz	atoi@s,f,c
  4450  001A7C  2A0C               	incf	atoi@s+1,f,c
  4451  001A7E                     l3294:
  4452  001A7E  0E01               	movlw	1
  4453  001A80  6E17               	movwf	_atoi$1440,c
  4454  001A82  C00B  FFF6         	movff	atoi@s,tblptrl
  4455  001A86  C00C  FFF7         	movff	atoi@s+1,tblptrh
  4456  001A8A                     	if	0	;tblptru may be non-zero
  4457  001A8A                     	endif
  4458  001A8A                     	if	1	;Program memory is > 0xFFFF, there are 3 active tblptr bytes
  4459  001A8A  0E00               	movlw	low (__mediumconst shr (0+16))
  4460  001A8C  6EF8               	movwf	tblptru,c
  4461  001A8E                     	endif
  4462  001A8E  0008               	tblrd		*
  4463  001A90  50F5               	movf	tablat,w,c
  4464  001A92  0A20               	xorlw	32
  4465  001A94  B4D8               	btfsc	status,2,c
  4466  001A96  D01A               	goto	l3302
  4467  001A98  0EF7               	movlw	247
  4468  001A9A  6E0D               	movwf	??_atoi& (0+255),c
  4469  001A9C  0EFF               	movlw	255
  4470  001A9E  6E0E               	movwf	(??_atoi+1)& (0+255),c
  4471  001AA0  C00B  FFF6         	movff	atoi@s,tblptrl
  4472  001AA4  C00C  FFF7         	movff	atoi@s+1,tblptrh
  4473  001AA8                     	if	0	;tblptru may be non-zero
  4474  001AA8                     	endif
  4475  001AA8                     	if	1	;Program memory is > 0xFFFF, there are 3 active tblptr bytes
  4476  001AA8  0E00               	movlw	low (__mediumconst shr (0+16))
  4477  001AAA  6EF8               	movwf	tblptru,c
  4478  001AAC                     	endif
  4479  001AAC  0008               	tblrd		*
  4480  001AAE  50F5               	movf	tablat,w,c
  4481  001AB0  6E0F               	movwf	(??_atoi+2)& (0+255),c
  4482  001AB2  6A10               	clrf	(??_atoi+3)& (0+255),c
  4483  001AB4  500D               	movf	??_atoi,w,c
  4484  001AB6  260F               	addwf	??_atoi+2,f,c
  4485  001AB8  500E               	movf	??_atoi+1,w,c
  4486  001ABA  2210               	addwfc	??_atoi+3,f,c
  4487  001ABC  5010               	movf	??_atoi+3,w,c
  4488  001ABE  E104               	bnz	u3080
  4489  001AC0  0E05               	movlw	5
  4490  001AC2  5C0F               	subwf	??_atoi+2,w,c
  4491  001AC4  A0D8               	btfss	status,0,c
  4492  001AC6  D002               	goto	l3302
  4493  001AC8                     u3080:
  4494  001AC8  0E00               	movlw	0
  4495  001ACA  6E17               	movwf	_atoi$1440,c
  4496  001ACC                     l3302:
  4497  001ACC  C017  F013         	movff	_atoi$1440,_atoi$1439
  4498  001AD0  6A14               	clrf	_atoi$1439+1,c
  4499  001AD2  5013               	movf	_atoi$1439,w,c
  4500  001AD4  1014               	iorwf	_atoi$1439+1,w,c
  4501  001AD6  B4D8               	btfsc	status,2,c
  4502  001AD8  D008               	goto	l3312
  4503  001ADA  D7CF               	goto	l3292
  4504  001ADC                     l3308:
  4505  001ADC  0E00               	movlw	0
  4506  001ADE  6E12               	movwf	atoi@neg+1,c
  4507  001AE0  0E01               	movlw	1
  4508  001AE2  6E11               	movwf	atoi@neg,c
  4509  001AE4                     l3310:
  4510  001AE4  4A0B               	infsnz	atoi@s,f,c
  4511  001AE6  2A0C               	incf	atoi@s+1,f,c
  4512  001AE8  D032               	goto	l3318
  4513  001AEA                     l3312:
  4514  001AEA  C00B  FFF6         	movff	atoi@s,tblptrl
  4515  001AEE  C00C  FFF7         	movff	atoi@s+1,tblptrh
  4516  001AF2                     	if	0	;tblptru may be non-zero
  4517  001AF2                     	endif
  4518  001AF2                     	if	1	;Program memory is > 0xFFFF, there are 3 active tblptr bytes
  4519  001AF2  0E00               	movlw	low (__mediumconst shr (0+16))
  4520  001AF4  6EF8               	movwf	tblptru,c
  4521  001AF6                     	endif
  4522  001AF6  0008               	tblrd		*
  4523  001AF8  50F5               	movf	tablat,w,c
  4524  001AFA  6E0D               	movwf	??_atoi& (0+255),c
  4525  001AFC  6A0E               	clrf	(??_atoi+1)& (0+255),c
  4526                           
  4527                           ; Switch on 2 bytes has been partitioned into a top level switch of size 1, and 1 sub-sw
      +                          itches
  4528                           ; Switch size 1, requested type "simple"
  4529                           ; Number of cases is 1, Range of values is 0 to 0
  4530                           ; switch strategies available:
  4531                           ; Name         Instructions Cycles
  4532                           ; simple_byte            4     3 (average)
  4533                           ;	Chosen strategy is simple_byte
  4534  001AFE  500E               	movf	??_atoi+1,w,c
  4535  001B00  0A00               	xorlw	0	; case 0
  4536  001B02  A4D8               	btfss	status,2,c
  4537  001B04  D024               	goto	l3318
  4538                           
  4539                           ; Switch size 1, requested type "simple"
  4540                           ; Number of cases is 2, Range of values is 43 to 45
  4541                           ; switch strategies available:
  4542                           ; Name         Instructions Cycles
  4543                           ; simple_byte            7     4 (average)
  4544                           ;	Chosen strategy is simple_byte
  4545  001B06  500D               	movf	??_atoi,w,c
  4546  001B08  0A2B               	xorlw	43	; case 43
  4547  001B0A  B4D8               	btfsc	status,2,c
  4548  001B0C  D7EB               	goto	l3310
  4549  001B0E  0A06               	xorlw	6	; case 45
  4550  001B10  B4D8               	btfsc	status,2,c
  4551  001B12  D7E4               	goto	l3308
  4552  001B14  D01C               	goto	l3318
  4553  001B16                     l3314:
  4554  001B16  C018  F004         	movff	atoi@n,___wmul@multiplier
  4555  001B1A  C019  F005         	movff	atoi@n+1,___wmul@multiplier+1
  4556  001B1E  0E00               	movlw	0
  4557  001B20  6E07               	movwf	___wmul@multiplicand+1,c
  4558  001B22  0E0A               	movlw	10
  4559  001B24  6E06               	movwf	___wmul@multiplicand,c
  4560  001B26  ECC7  F012         	call	___wmul	;wreg free
  4561  001B2A  C00B  FFF6         	movff	atoi@s,tblptrl
  4562  001B2E  C00C  FFF7         	movff	atoi@s+1,tblptrh
  4563  001B32                     	if	0	;tblptru may be non-zero
  4564  001B32                     	endif
  4565  001B32                     	if	1	;Program memory is > 0xFFFF, there are 3 active tblptr bytes
  4566  001B32  0E00               	movlw	low (__mediumconst shr (0+16))
  4567  001B34  6EF8               	movwf	tblptru,c
  4568  001B36                     	endif
  4569  001B36  0008               	tblrd		*
  4570  001B38  50F5               	movf	tablat,w,c
  4571  001B3A  5E04               	subwf	?___wmul,f,c
  4572  001B3C  0E00               	movlw	0
  4573  001B3E  5A05               	subwfb	?___wmul+1,f,c
  4574  001B40  0E30               	movlw	48
  4575  001B42  2404               	addwf	?___wmul,w,c
  4576  001B44  6E18               	movwf	atoi@n,c
  4577  001B46  0E00               	movlw	0
  4578  001B48  2005               	addwfc	?___wmul+1,w,c
  4579  001B4A  6E19               	movwf	atoi@n+1,c
  4580  001B4C  D7CB               	goto	l3310
  4581  001B4E                     l3318:
  4582  001B4E  0ED0               	movlw	208
  4583  001B50  6E0D               	movwf	??_atoi& (0+255),c
  4584  001B52  0EFF               	movlw	255
  4585  001B54  6E0E               	movwf	(??_atoi+1)& (0+255),c
  4586  001B56  C00B  FFF6         	movff	atoi@s,tblptrl
  4587  001B5A  C00C  FFF7         	movff	atoi@s+1,tblptrh
  4588  001B5E                     	if	0	;tblptru may be non-zero
  4589  001B5E                     	endif
  4590  001B5E                     	if	1	;Program memory is > 0xFFFF, there are 3 active tblptr bytes
  4591  001B5E  0E00               	movlw	low (__mediumconst shr (0+16))
  4592  001B60  6EF8               	movwf	tblptru,c
  4593  001B62                     	endif
  4594  001B62  0008               	tblrd		*
  4595  001B64  50F5               	movf	tablat,w,c
  4596  001B66  6E0F               	movwf	(??_atoi+2)& (0+255),c
  4597  001B68  6A10               	clrf	(??_atoi+3)& (0+255),c
  4598  001B6A  500D               	movf	??_atoi,w,c
  4599  001B6C  260F               	addwf	??_atoi+2,f,c
  4600  001B6E  500E               	movf	??_atoi+1,w,c
  4601  001B70  2210               	addwfc	??_atoi+3,f,c
  4602  001B72  5010               	movf	??_atoi+3,w,c
  4603  001B74  E106               	bnz	u3100
  4604  001B76  0E0A               	movlw	10
  4605  001B78  5C0F               	subwf	??_atoi+2,w,c
  4606  001B7A  B0D8               	btfsc	status,0,c
  4607  001B7C  D002               	goto	u3100
  4608  001B7E  0E01               	movlw	1
  4609  001B80  D001               	goto	u3110
  4610  001B82                     u3100:
  4611  001B82  0E00               	movlw	0
  4612  001B84                     u3110:
  4613  001B84  6E15               	movwf	_atoi$1441,c
  4614  001B86  6A16               	clrf	_atoi$1441+1,c
  4615  001B88  5015               	movf	_atoi$1441,w,c
  4616  001B8A  1016               	iorwf	_atoi$1441+1,w,c
  4617  001B8C  A4D8               	btfss	status,2,c
  4618  001B8E  D7C3               	goto	l3314
  4619  001B90  5011               	movf	atoi@neg,w,c
  4620  001B92  1012               	iorwf	atoi@neg+1,w,c
  4621  001B94  A4D8               	btfss	status,2,c
  4622  001B96  D00D               	goto	l997
  4623  001B98  C018  F00D         	movff	atoi@n,??_atoi
  4624  001B9C  C019  F00E         	movff	atoi@n+1,??_atoi+1
  4625  001BA0  1E0D               	comf	??_atoi,f,c
  4626  001BA2  1E0E               	comf	??_atoi+1,f,c
  4627  001BA4  4A0D               	infsnz	??_atoi,f,c
  4628  001BA6  2A0E               	incf	??_atoi+1,f,c
  4629  001BA8  C00D  F00B         	movff	??_atoi,?_atoi
  4630  001BAC  C00E  F00C         	movff	??_atoi+1,?_atoi+1
  4631  001BB0  0012               	return	
  4632  001BB2                     l997:
  4633  001BB2  C018  F00B         	movff	atoi@n,?_atoi
  4634  001BB6  C019  F00C         	movff	atoi@n+1,?_atoi+1
  4635  001BBA  0012               	return		;funcret
  4636  001BBC                     __end_of_atoi:
  4637                           	opt callstack 0
  4638                           
  4639 ;; *************** function _isspace *****************
  4640 ;; Defined at:
  4641 ;;		line 5 in file "C:\Program Files (x86)\Microchip\xc8\v2.05\pic\sources\c99\common\isspace.c"
  4642 ;; Parameters:    Size  Location     Type
  4643 ;;  c               2    3[COMRAM] int 
  4644 ;; Auto vars:     Size  Location     Type
  4645 ;;		None
  4646 ;; Return value:  Size  Location     Type
  4647 ;;                  2    3[COMRAM] int 
  4648 ;; Registers used:
  4649 ;;		wreg, status,2, status,0
  4650 ;; Tracked objects:
  4651 ;;		On entry : 0/0
  4652 ;;		On exit  : 0/0
  4653 ;;		Unchanged: 0/0
  4654 ;; Data sizes:     COMRAM   BANK0   BANK1   BANK2   BANK3   BANK4   BANK5   BANK6   BANK7   BANK8   BANK9  BANK10  BANK1
      +1  BANK12  BANK13  BANK14
  4655 ;;      Params:         2       0       0       0       0       0       0       0       0       0       0       0       
      +0       0       0       0
  4656 ;;      Locals:         1       0       0       0       0       0       0       0       0       0       0       0       
      +0       0       0       0
  4657 ;;      Temps:          4       0       0       0       0       0       0       0       0       0       0       0       
      +0       0       0       0
  4658 ;;      Totals:         7       0       0       0       0       0       0       0       0       0       0       0       
      +0       0       0       0
  4659 ;;Total ram usage:        7 bytes
  4660 ;; Hardware stack levels used:    1
  4661 ;; Hardware stack levels required when called:    1
  4662 ;; This function calls:
  4663 ;;		Nothing
  4664 ;; This function is called by:
  4665 ;;		_atoi
  4666 ;; This function uses a non-reentrant model
  4667 ;;
  4668                           
  4669                           	psect	text22
  4670  002452                     __ptext22:
  4671                           	opt callstack 0
  4672  002452                     _isspace:
  4673                           	opt callstack 25
  4674                           
  4675                           ;incstack = 0
  4676  002452  0E01               	movlw	1
  4677  002454  6E0A               	movwf	_isspace$1457,c
  4678  002456  0E20               	movlw	32
  4679  002458  1804               	xorwf	isspace@c,w,c
  4680  00245A  1005               	iorwf	isspace@c+1,w,c
  4681  00245C  B4D8               	btfsc	status,2,c
  4682  00245E  D014               	goto	l3236
  4683  002460  0EF7               	movlw	247
  4684  002462  6E06               	movwf	??_isspace& (0+255),c
  4685  002464  0EFF               	movlw	255
  4686  002466  6E07               	movwf	(??_isspace+1)& (0+255),c
  4687  002468  C004  F008         	movff	isspace@c,??_isspace+2
  4688  00246C  C005  F009         	movff	isspace@c+1,??_isspace+3
  4689  002470  5006               	movf	??_isspace,w,c
  4690  002472  2608               	addwf	??_isspace+2,f,c
  4691  002474  5007               	movf	??_isspace+1,w,c
  4692  002476  2209               	addwfc	??_isspace+3,f,c
  4693  002478  5009               	movf	??_isspace+3,w,c
  4694  00247A  E104               	bnz	u2980
  4695  00247C  0E05               	movlw	5
  4696  00247E  5C08               	subwf	??_isspace+2,w,c
  4697  002480  A0D8               	btfss	status,0,c
  4698  002482  D002               	goto	l3236
  4699  002484                     u2980:
  4700  002484  0E00               	movlw	0
  4701  002486  6E0A               	movwf	_isspace$1457,c
  4702  002488                     l3236:
  4703  002488  C00A  F004         	movff	_isspace$1457,?_isspace
  4704  00248C  6A05               	clrf	?_isspace+1,c
  4705  00248E  0012               	return		;funcret
  4706  002490                     __end_of_isspace:
  4707                           	opt callstack 0
  4708                           
  4709 ;; *************** function _isdigit *****************
  4710 ;; Defined at:
  4711 ;;		line 5 in file "C:\Program Files (x86)\Microchip\xc8\v2.05\pic\sources\c99\common\isdigit.c"
  4712 ;; Parameters:    Size  Location     Type
  4713 ;;  c               2    3[COMRAM] int 
  4714 ;; Auto vars:     Size  Location     Type
  4715 ;;		None
  4716 ;; Return value:  Size  Location     Type
  4717 ;;                  2    3[COMRAM] int 
  4718 ;; Registers used:
  4719 ;;		wreg, status,2, status,0
  4720 ;; Tracked objects:
  4721 ;;		On entry : 0/0
  4722 ;;		On exit  : 0/0
  4723 ;;		Unchanged: 0/0
  4724 ;; Data sizes:     COMRAM   BANK0   BANK1   BANK2   BANK3   BANK4   BANK5   BANK6   BANK7   BANK8   BANK9  BANK10  BANK1
      +1  BANK12  BANK13  BANK14
  4725 ;;      Params:         2       0       0       0       0       0       0       0       0       0       0       0       
      +0       0       0       0
  4726 ;;      Locals:         0       0       0       0       0       0       0       0       0       0       0       0       
      +0       0       0       0
  4727 ;;      Temps:          4       0       0       0       0       0       0       0       0       0       0       0       
      +0       0       0       0
  4728 ;;      Totals:         6       0       0       0       0       0       0       0       0       0       0       0       
      +0       0       0       0
  4729 ;;Total ram usage:        6 bytes
  4730 ;; Hardware stack levels used:    1
  4731 ;; Hardware stack levels required when called:    1
  4732 ;; This function calls:
  4733 ;;		Nothing
  4734 ;; This function is called by:
  4735 ;;		_vfpfcnvrt
  4736 ;;		_atoi
  4737 ;; This function uses a non-reentrant model
  4738 ;;
  4739                           
  4740                           	psect	text23
  4741  002504                     __ptext23:
  4742                           	opt callstack 0
  4743  002504                     _isdigit:
  4744                           	opt callstack 26
  4745                           
  4746                           ;incstack = 0
  4747  002504  0ED0               	movlw	208
  4748  002506  6E06               	movwf	??_isdigit& (0+255),c
  4749  002508  0EFF               	movlw	255
  4750  00250A  6E07               	movwf	(??_isdigit+1)& (0+255),c
  4751  00250C  C004  F008         	movff	isdigit@c,??_isdigit+2
  4752  002510  C005  F009         	movff	isdigit@c+1,??_isdigit+3
  4753  002514  5006               	movf	??_isdigit,w,c
  4754  002516  2608               	addwf	??_isdigit+2,f,c
  4755  002518  5007               	movf	??_isdigit+1,w,c
  4756  00251A  2209               	addwfc	??_isdigit+3,f,c
  4757  00251C  5009               	movf	??_isdigit+3,w,c
  4758  00251E  E106               	bnz	u2880
  4759  002520  0E0A               	movlw	10
  4760  002522  5C08               	subwf	??_isdigit+2,w,c
  4761  002524  B0D8               	btfsc	status,0,c
  4762  002526  D002               	goto	u2880
  4763  002528  0E01               	movlw	1
  4764  00252A  D001               	goto	u2890
  4765  00252C                     u2880:
  4766  00252C  0E00               	movlw	0
  4767  00252E                     u2890:
  4768  00252E  6E04               	movwf	?_isdigit,c
  4769  002530  6A05               	clrf	?_isdigit+1,c
  4770  002532  0012               	return		;funcret
  4771  002534                     __end_of_isdigit:
  4772                           	opt callstack 0
  4773                           
  4774 ;; *************** function ___wmul *****************
  4775 ;; Defined at:
  4776 ;;		line 15 in file "C:\Program Files (x86)\Microchip\xc8\v2.05\pic\sources\c99\common\Umul16.c"
  4777 ;; Parameters:    Size  Location     Type
  4778 ;;  multiplier      2    3[COMRAM] unsigned int 
  4779 ;;  multiplicand    2    5[COMRAM] unsigned int 
  4780 ;; Auto vars:     Size  Location     Type
  4781 ;;  product         2    7[COMRAM] unsigned int 
  4782 ;; Return value:  Size  Location     Type
  4783 ;;                  2    3[COMRAM] unsigned int 
  4784 ;; Registers used:
  4785 ;;		wreg, status,2, status,0, prodl, prodh
  4786 ;; Tracked objects:
  4787 ;;		On entry : 0/0
  4788 ;;		On exit  : 0/0
  4789 ;;		Unchanged: 0/0
  4790 ;; Data sizes:     COMRAM   BANK0   BANK1   BANK2   BANK3   BANK4   BANK5   BANK6   BANK7   BANK8   BANK9  BANK10  BANK1
      +1  BANK12  BANK13  BANK14
  4791 ;;      Params:         4       0       0       0       0       0       0       0       0       0       0       0       
      +0       0       0       0
  4792 ;;      Locals:         2       0       0       0       0       0       0       0       0       0       0       0       
      +0       0       0       0
  4793 ;;      Temps:          0       0       0       0       0       0       0       0       0       0       0       0       
      +0       0       0       0
  4794 ;;      Totals:         6       0       0       0       0       0       0       0       0       0       0       0       
      +0       0       0       0
  4795 ;;Total ram usage:        6 bytes
  4796 ;; Hardware stack levels used:    1
  4797 ;; Hardware stack levels required when called:    1
  4798 ;; This function calls:
  4799 ;;		Nothing
  4800 ;; This function is called by:
  4801 ;;		_atoi
  4802 ;; This function uses a non-reentrant model
  4803 ;;
  4804                           
  4805                           	psect	text24
  4806  00258E                     __ptext24:
  4807                           	opt callstack 0
  4808  00258E                     ___wmul:
  4809                           	opt callstack 25
  4810                           
  4811                           ;incstack = 0
  4812  00258E  5004               	movf	___wmul@multiplier,w,c
  4813  002590  0206               	mulwf	___wmul@multiplicand,c
  4814  002592  CFF3 F008          	movff	prodl,___wmul@product
  4815  002596  CFF4 F009          	movff	prodh,___wmul@product+1
  4816  00259A  5004               	movf	___wmul@multiplier,w,c
  4817  00259C  0207               	mulwf	___wmul@multiplicand+1,c
  4818  00259E  50F3               	movf	prodl,w,c
  4819  0025A0  2609               	addwf	___wmul@product+1,f,c
  4820  0025A2  5005               	movf	___wmul@multiplier+1,w,c
  4821  0025A4  0206               	mulwf	___wmul@multiplicand,c
  4822  0025A6  50F3               	movf	prodl,w,c
  4823  0025A8  2609               	addwf	___wmul@product+1,f,c
  4824  0025AA  C008  F004         	movff	___wmul@product,?___wmul
  4825  0025AE  C009  F005         	movff	___wmul@product+1,?___wmul+1
  4826  0025B2  0012               	return		;funcret
  4827  0025B4                     __end_of___wmul:
  4828                           	opt callstack 0
  4829                           
  4830 ;; *************** function _enviarRS232 *****************
  4831 ;; Defined at:
  4832 ;;		line 37 in file "./../../LIBRERIAS/funciones_auto.h"
  4833 ;; Parameters:    Size  Location     Type
  4834 ;;  valores         2    3[COMRAM] PTR unsigned char 
  4835 ;;		 -> main@text_adc(20), 
  4836 ;;  numero_valor    1    5[COMRAM] unsigned char 
  4837 ;; Auto vars:     Size  Location     Type
  4838 ;;  i               1    7[COMRAM] unsigned char 
  4839 ;; Return value:  Size  Location     Type
  4840 ;;                  1    wreg      void 
  4841 ;; Registers used:
  4842 ;;		wreg, fsr2l, fsr2h, status,2, status,0
  4843 ;; Tracked objects:
  4844 ;;		On entry : 0/0
  4845 ;;		On exit  : 0/0
  4846 ;;		Unchanged: 0/0
  4847 ;; Data sizes:     COMRAM   BANK0   BANK1   BANK2   BANK3   BANK4   BANK5   BANK6   BANK7   BANK8   BANK9  BANK10  BANK1
      +1  BANK12  BANK13  BANK14
  4848 ;;      Params:         3       0       0       0       0       0       0       0       0       0       0       0       
      +0       0       0       0
  4849 ;;      Locals:         1       0       0       0       0       0       0       0       0       0       0       0       
      +0       0       0       0
  4850 ;;      Temps:          1       0       0       0       0       0       0       0       0       0       0       0       
      +0       0       0       0
  4851 ;;      Totals:         5       0       0       0       0       0       0       0       0       0       0       0       
      +0       0       0       0
  4852 ;;Total ram usage:        5 bytes
  4853 ;; Hardware stack levels used:    1
  4854 ;; Hardware stack levels required when called:    1
  4855 ;; This function calls:
  4856 ;;		Nothing
  4857 ;; This function is called by:
  4858 ;;		_main
  4859 ;; This function uses a non-reentrant model
  4860 ;;
  4861                           
  4862                           	psect	text25
  4863  002534                     __ptext25:
  4864                           	opt callstack 0
  4865  002534                     _enviarRS232:
  4866                           	opt callstack 29
  4867                           
  4868                           ;./../../LIBRERIAS/funciones_auto.h: 38:     for(unsigned char i = 0; i<numero_valores; 
      +                          i++){
  4869                           
  4870                           ;incstack = 0
  4871  002534  0E00               	movlw	0
  4872  002536  6E08               	movwf	enviarRS232@i,c
  4873  002538  D010               	goto	l2912
  4874  00253A                     l2906:
  4875                           
  4876                           ;./../../LIBRERIAS/funciones_auto.h: 39:         TXREG1 = valores[i];
  4877  00253A  5008               	movf	enviarRS232@i,w,c
  4878  00253C  2404               	addwf	enviarRS232@valores,w,c
  4879  00253E  6ED9               	movwf	fsr2l,c
  4880  002540  0E00               	movlw	0
  4881  002542  2005               	addwfc	enviarRS232@valores+1,w,c
  4882  002544  6EDA               	movwf	fsr2h,c
  4883  002546  50DF               	movf	indf2,w,c
  4884  002548  6EAE               	movwf	4014,c	;volatile
  4885                           
  4886                           ;./../../LIBRERIAS/funciones_auto.h: 40:         _delay((unsigned long)((3)*(48000000/40
      +                          00.0)));
  4887  00254A  0E2F               	movlw	47
  4888  00254C  6E07               	movwf	??_enviarRS232& (0+255),c
  4889  00254E  0EC0               	movlw	192
  4890  002550                     u3337:
  4891  002550  2EE8               	decfsz	wreg,f,c
  4892  002552  D7FE               	bra	u3337
  4893  002554  2E07               	decfsz	??_enviarRS232& (0+255),f,c
  4894  002556  D7FC               	bra	u3337
  4895                           
  4896                           ;./../../LIBRERIAS/funciones_auto.h: 41:     }
  4897  002558  2A08               	incf	enviarRS232@i,f,c
  4898  00255A                     l2912:
  4899  00255A  5006               	movf	enviarRS232@numero_valores,w,c
  4900  00255C  5C08               	subwf	enviarRS232@i,w,c
  4901  00255E  B0D8               	btfsc	status,0,c
  4902  002560  0012               	return	
  4903  002562  D7EB               	goto	l2906
  4904  002564                     __end_of_enviarRS232:
  4905                           	opt callstack 0
  4906                           
  4907 ;; *************** function _configuracionInicial *****************
  4908 ;; Defined at:
  4909 ;;		line 107 in file "sensores.c"
  4910 ;; Parameters:    Size  Location     Type
  4911 ;;		None
  4912 ;; Auto vars:     Size  Location     Type
  4913 ;;		None
  4914 ;; Return value:  Size  Location     Type
  4915 ;;                  1    wreg      void 
  4916 ;; Registers used:
  4917 ;;		wreg, status,2, cstack
  4918 ;; Tracked objects:
  4919 ;;		On entry : 0/0
  4920 ;;		On exit  : 0/0
  4921 ;;		Unchanged: 0/0
  4922 ;; Data sizes:     COMRAM   BANK0   BANK1   BANK2   BANK3   BANK4   BANK5   BANK6   BANK7   BANK8   BANK9  BANK10  BANK1
      +1  BANK12  BANK13  BANK14
  4923 ;;      Params:         0       0       0       0       0       0       0       0       0       0       0       0       
      +0       0       0       0
  4924 ;;      Locals:         0       0       0       0       0       0       0       0       0       0       0       0       
      +0       0       0       0
  4925 ;;      Temps:          0       0       0       0       0       0       0       0       0       0       0       0       
      +0       0       0       0
  4926 ;;      Totals:         0       0       0       0       0       0       0       0       0       0       0       0       
      +0       0       0       0
  4927 ;;Total ram usage:        0 bytes
  4928 ;; Hardware stack levels used:    1
  4929 ;; Hardware stack levels required when called:    2
  4930 ;; This function calls:
  4931 ;;		_configuracionADC
  4932 ;;		_configurarInterrupciones
  4933 ;;		_configurarPWM7
  4934 ;;		_configurarPuertos
  4935 ;;		_configurarRS232
  4936 ;;		_configurarTMR5
  4937 ;; This function is called by:
  4938 ;;		_main
  4939 ;; This function uses a non-reentrant model
  4940 ;;
  4941                           
  4942                           	psect	text26
  4943  0025D4                     __ptext26:
  4944                           	opt callstack 0
  4945  0025D4                     _configuracionInicial:
  4946                           	opt callstack 28
  4947                           
  4948                           ;sensores.c: 108:     configurarPuertos();
  4949                           
  4950                           ;incstack = 0
  4951  0025D4  EC26  F013         	call	_configurarPuertos	;wreg free
  4952                           
  4953                           ;sensores.c: 109:     configurarPWM7();
  4954  0025D8  ECDA  F012         	call	_configurarPWM7	;wreg free
  4955                           
  4956                           ;sensores.c: 110:     configurarRS232();
  4957  0025DC  ECF7  F012         	call	_configurarRS232	;wreg free
  4958                           
  4959                           ;sensores.c: 111:     configurarInterrupciones();
  4960  0025E0  EC1F  F013         	call	_configurarInterrupciones	;wreg free
  4961                           
  4962                           ;sensores.c: 112:     configuracionADC();
  4963  0025E4  EC0E  F013         	call	_configuracionADC	;wreg free
  4964                           
  4965                           ;sensores.c: 113:     configurarTMR5();
  4966  0025E8  EC03  F013         	call	_configurarTMR5	;wreg free
  4967  0025EC  0012               	return		;funcret
  4968  0025EE                     __end_of_configuracionInicial:
  4969                           	opt callstack 0
  4970                           
  4971 ;; *************** function _configurarTMR5 *****************
  4972 ;; Defined at:
  4973 ;;		line 41 in file "./../../LIBRERIAS/configuracion_auto.h"
  4974 ;; Parameters:    Size  Location     Type
  4975 ;;		None
  4976 ;; Auto vars:     Size  Location     Type
  4977 ;;		None
  4978 ;; Return value:  Size  Location     Type
  4979 ;;                  1    wreg      void 
  4980 ;; Registers used:
  4981 ;;		wreg, status,2
  4982 ;; Tracked objects:
  4983 ;;		On entry : 0/0
  4984 ;;		On exit  : 0/0
  4985 ;;		Unchanged: 0/0
  4986 ;; Data sizes:     COMRAM   BANK0   BANK1   BANK2   BANK3   BANK4   BANK5   BANK6   BANK7   BANK8   BANK9  BANK10  BANK1
      +1  BANK12  BANK13  BANK14
  4987 ;;      Params:         0       0       0       0       0       0       0       0       0       0       0       0       
      +0       0       0       0
  4988 ;;      Locals:         0       0       0       0       0       0       0       0       0       0       0       0       
      +0       0       0       0
  4989 ;;      Temps:          0       0       0       0       0       0       0       0       0       0       0       0       
      +0       0       0       0
  4990 ;;      Totals:         0       0       0       0       0       0       0       0       0       0       0       0       
      +0       0       0       0
  4991 ;;Total ram usage:        0 bytes
  4992 ;; Hardware stack levels used:    1
  4993 ;; Hardware stack levels required when called:    1
  4994 ;; This function calls:
  4995 ;;		Nothing
  4996 ;; This function is called by:
  4997 ;;		_configuracionInicial
  4998 ;; This function uses a non-reentrant model
  4999 ;;
  5000                           
  5001                           	psect	text27
  5002  002606                     __ptext27:
  5003                           	opt callstack 0
  5004  002606                     _configurarTMR5:
  5005                           	opt callstack 28
  5006                           
  5007                           ;./../../LIBRERIAS/configuracion_auto.h: 42:     TRISDbits.TRISD4 = 0;
  5008                           
  5009                           ;incstack = 0
  5010  002606  9895               	bcf	3989,4,c	;volatile
  5011                           
  5012                           ;./../../LIBRERIAS/configuracion_auto.h: 43:     PORTDbits.RD4 = 0;
  5013  002608  9883               	bcf	3971,4,c	;volatile
  5014                           
  5015                           ;./../../LIBRERIAS/configuracion_auto.h: 44:     T5CON = 0x32;
  5016  00260A  0E32               	movlw	50
  5017  00260C  010F               	movlb	15	; () banked
  5018  00260E  6F22               	movwf	34,b	;volatile
  5019                           
  5020                           ; BSR set to: 15
  5021                           ;./../../LIBRERIAS/configuracion_auto.h: 45:     TMR5H = 0xFF;
  5022  002610  6924               	setf	36,b	;volatile
  5023                           
  5024                           ;./../../LIBRERIAS/configuracion_auto.h: 46:     TMR5L = 0x6A;
  5025  002612  0E6A               	movlw	106
  5026  002614  6F23               	movwf	35,b	;volatile
  5027                           
  5028                           ; BSR set to: 15
  5029                           ;./../../LIBRERIAS/configuracion_auto.h: 47:     PIE5bits.TMR5IE = 1;
  5030  002616  8491               	bsf	3985,2,c	;volatile
  5031                           
  5032                           ; BSR set to: 15
  5033                           ;./../../LIBRERIAS/configuracion_auto.h: 48:     PIR5bits.TMR5IF = 0;
  5034  002618  9498               	bcf	3992,2,c	;volatile
  5035                           
  5036                           ; BSR set to: 15
  5037  00261A  0012               	return		;funcret
  5038  00261C                     __end_of_configurarTMR5:
  5039                           	opt callstack 0
  5040                           
  5041 ;; *************** function _configurarRS232 *****************
  5042 ;; Defined at:
  5043 ;;		line 30 in file "./../../LIBRERIAS/configuracion_auto.h"
  5044 ;; Parameters:    Size  Location     Type
  5045 ;;		None
  5046 ;; Auto vars:     Size  Location     Type
  5047 ;;		None
  5048 ;; Return value:  Size  Location     Type
  5049 ;;                  1    wreg      void 
  5050 ;; Registers used:
  5051 ;;		wreg, status,2
  5052 ;; Tracked objects:
  5053 ;;		On entry : 0/0
  5054 ;;		On exit  : 0/0
  5055 ;;		Unchanged: 0/0
  5056 ;; Data sizes:     COMRAM   BANK0   BANK1   BANK2   BANK3   BANK4   BANK5   BANK6   BANK7   BANK8   BANK9  BANK10  BANK1
      +1  BANK12  BANK13  BANK14
  5057 ;;      Params:         0       0       0       0       0       0       0       0       0       0       0       0       
      +0       0       0       0
  5058 ;;      Locals:         0       0       0       0       0       0       0       0       0       0       0       0       
      +0       0       0       0
  5059 ;;      Temps:          0       0       0       0       0       0       0       0       0       0       0       0       
      +0       0       0       0
  5060 ;;      Totals:         0       0       0       0       0       0       0       0       0       0       0       0       
      +0       0       0       0
  5061 ;;Total ram usage:        0 bytes
  5062 ;; Hardware stack levels used:    1
  5063 ;; Hardware stack levels required when called:    1
  5064 ;; This function calls:
  5065 ;;		Nothing
  5066 ;; This function is called by:
  5067 ;;		_configuracionInicial
  5068 ;; This function uses a non-reentrant model
  5069 ;;
  5070                           
  5071                           	psect	text28
  5072  0025EE                     __ptext28:
  5073                           	opt callstack 0
  5074  0025EE                     _configurarRS232:
  5075                           	opt callstack 28
  5076                           
  5077                           ;./../../LIBRERIAS/configuracion_auto.h: 31:     TRISCbits.TRISC7 = 1;
  5078                           
  5079                           ; BSR set to: 15
  5080                           ;incstack = 0
  5081  0025EE  8E94               	bsf	3988,7,c	;volatile
  5082                           
  5083                           ;./../../LIBRERIAS/configuracion_auto.h: 32:     TRISCbits.TRISC6 = 0;
  5084  0025F0  9C94               	bcf	3988,6,c	;volatile
  5085                           
  5086                           ;./../../LIBRERIAS/configuracion_auto.h: 33:     TXSTA1 = 0x22;
  5087  0025F2  0E22               	movlw	34
  5088  0025F4  6EAD               	movwf	4013,c	;volatile
  5089                           
  5090                           ;./../../LIBRERIAS/configuracion_auto.h: 34:     RCSTA1 = 0x90;
  5091  0025F6  0E90               	movlw	144
  5092  0025F8  6EAC               	movwf	4012,c	;volatile
  5093                           
  5094                           ;./../../LIBRERIAS/configuracion_auto.h: 35:     BAUDCON1bits.BRG16 = 0;
  5095  0025FA  967E               	bcf	3966,3,c	;volatile
  5096                           
  5097                           ;./../../LIBRERIAS/configuracion_auto.h: 36:     SPBRG1 = 77;
  5098  0025FC  0E4D               	movlw	77
  5099  0025FE  6EB0               	movwf	4016,c	;volatile
  5100                           
  5101                           ;./../../LIBRERIAS/configuracion_auto.h: 37:     PIR1bits.RC1IF = 0;
  5102  002600  9A9E               	bcf	3998,5,c	;volatile
  5103                           
  5104                           ;./../../LIBRERIAS/configuracion_auto.h: 38:     PIE1bits.RC1IE = 1;
  5105  002602  8A9D               	bsf	3997,5,c	;volatile
  5106  002604  0012               	return		;funcret
  5107  002606                     __end_of_configurarRS232:
  5108                           	opt callstack 0
  5109                           
  5110 ;; *************** function _configurarPuertos *****************
  5111 ;; Defined at:
  5112 ;;		line 3 in file "./../../LIBRERIAS/configuracion_auto.h"
  5113 ;; Parameters:    Size  Location     Type
  5114 ;;		None
  5115 ;; Auto vars:     Size  Location     Type
  5116 ;;		None
  5117 ;; Return value:  Size  Location     Type
  5118 ;;                  1    wreg      void 
  5119 ;; Registers used:
  5120 ;;		wreg, status,2
  5121 ;; Tracked objects:
  5122 ;;		On entry : 0/0
  5123 ;;		On exit  : 0/0
  5124 ;;		Unchanged: 0/0
  5125 ;; Data sizes:     COMRAM   BANK0   BANK1   BANK2   BANK3   BANK4   BANK5   BANK6   BANK7   BANK8   BANK9  BANK10  BANK1
      +1  BANK12  BANK13  BANK14
  5126 ;;      Params:         0       0       0       0       0       0       0       0       0       0       0       0       
      +0       0       0       0
  5127 ;;      Locals:         0       0       0       0       0       0       0       0       0       0       0       0       
      +0       0       0       0
  5128 ;;      Temps:          0       0       0       0       0       0       0       0       0       0       0       0       
      +0       0       0       0
  5129 ;;      Totals:         0       0       0       0       0       0       0       0       0       0       0       0       
      +0       0       0       0
  5130 ;;Total ram usage:        0 bytes
  5131 ;; Hardware stack levels used:    1
  5132 ;; Hardware stack levels required when called:    1
  5133 ;; This function calls:
  5134 ;;		Nothing
  5135 ;; This function is called by:
  5136 ;;		_configuracionInicial
  5137 ;; This function uses a non-reentrant model
  5138 ;;
  5139                           
  5140                           	psect	text29
  5141  00264C                     __ptext29:
  5142                           	opt callstack 0
  5143  00264C                     _configurarPuertos:
  5144                           	opt callstack 28
  5145                           
  5146                           ;./../../LIBRERIAS/configuracion_auto.h: 4:     ANCON0 = 0x7F;
  5147                           
  5148                           ;incstack = 0
  5149  00264C  0E7F               	movlw	127
  5150  00264E  010F               	movlb	15	; () banked
  5151  002650  6F48               	movwf	72,b	;volatile
  5152                           
  5153                           ;./../../LIBRERIAS/configuracion_auto.h: 5:     ANCON1 = 0x1F;
  5154  002652  0E1F               	movlw	31
  5155  002654  6F49               	movwf	73,b	;volatile
  5156                           
  5157                           ; BSR set to: 15
  5158  002656  0012               	return		;funcret
  5159  002658                     __end_of_configurarPuertos:
  5160                           	opt callstack 0
  5161                           
  5162 ;; *************** function _configurarPWM7 *****************
  5163 ;; Defined at:
  5164 ;;		line 18 in file "./../../LIBRERIAS/configuracion_auto.h"
  5165 ;; Parameters:    Size  Location     Type
  5166 ;;		None
  5167 ;; Auto vars:     Size  Location     Type
  5168 ;;		None
  5169 ;; Return value:  Size  Location     Type
  5170 ;;                  1    wreg      void 
  5171 ;; Registers used:
  5172 ;;		wreg, status,2
  5173 ;; Tracked objects:
  5174 ;;		On entry : 0/0
  5175 ;;		On exit  : 0/0
  5176 ;;		Unchanged: 0/0
  5177 ;; Data sizes:     COMRAM   BANK0   BANK1   BANK2   BANK3   BANK4   BANK5   BANK6   BANK7   BANK8   BANK9  BANK10  BANK1
      +1  BANK12  BANK13  BANK14
  5178 ;;      Params:         0       0       0       0       0       0       0       0       0       0       0       0       
      +0       0       0       0
  5179 ;;      Locals:         0       0       0       0       0       0       0       0       0       0       0       0       
      +0       0       0       0
  5180 ;;      Temps:          0       0       0       0       0       0       0       0       0       0       0       0       
      +0       0       0       0
  5181 ;;      Totals:         0       0       0       0       0       0       0       0       0       0       0       0       
      +0       0       0       0
  5182 ;;Total ram usage:        0 bytes
  5183 ;; Hardware stack levels used:    1
  5184 ;; Hardware stack levels required when called:    1
  5185 ;; This function calls:
  5186 ;;		Nothing
  5187 ;; This function is called by:
  5188 ;;		_configuracionInicial
  5189 ;; This function uses a non-reentrant model
  5190 ;;
  5191                           
  5192                           	psect	text30
  5193  0025B4                     __ptext30:
  5194                           	opt callstack 0
  5195  0025B4                     _configurarPWM7:
  5196                           	opt callstack 28
  5197                           
  5198                           ;./../../LIBRERIAS/configuracion_auto.h: 19:     TRISBbits.TRISB4 = 0;
  5199                           
  5200                           ; BSR set to: 15
  5201                           ;incstack = 0
  5202  0025B4  9893               	bcf	3987,4,c	;volatile
  5203                           
  5204                           ;./../../LIBRERIAS/configuracion_auto.h: 20:     TRISBbits.TRISB7 = 0;
  5205  0025B6  9E93               	bcf	3987,7,c	;volatile
  5206                           
  5207                           ;./../../LIBRERIAS/configuracion_auto.h: 21:     CCP7CONbits.CCP7M = 0xC;
  5208  0025B8  010F               	movlb	15	; () banked
  5209  0025BA  5109               	movf	9,w,b	;volatile
  5210  0025BC  0BF0               	andlw	-16
  5211  0025BE  090C               	iorlw	12
  5212  0025C0  6F09               	movwf	9,b	;volatile
  5213                           
  5214                           ;./../../LIBRERIAS/configuracion_auto.h: 22:     CCPTMRS1bits.C7TSEL = 0b00;
  5215  0025C2  0E3F               	movlw	-193
  5216  0025C4  1751               	andwf	81,f,b	;volatile
  5217                           
  5218                           ;./../../LIBRERIAS/configuracion_auto.h: 24:     T2CON = 0x02;
  5219  0025C6  0E02               	movlw	2
  5220  0025C8  6ECA               	movwf	4042,c	;volatile
  5221                           
  5222                           ;./../../LIBRERIAS/configuracion_auto.h: 25:     PR2 = 124;
  5223  0025CA  0E7C               	movlw	124
  5224  0025CC  6ECB               	movwf	4043,c	;volatile
  5225                           
  5226                           ;./../../LIBRERIAS/configuracion_auto.h: 27:     TMR2 = 0x00;
  5227  0025CE  0E00               	movlw	0
  5228  0025D0  6ECC               	movwf	4044,c	;volatile
  5229                           
  5230                           ; BSR set to: 15
  5231  0025D2  0012               	return		;funcret
  5232  0025D4                     __end_of_configurarPWM7:
  5233                           	opt callstack 0
  5234                           
  5235 ;; *************** function _configurarInterrupciones *****************
  5236 ;; Defined at:
  5237 ;;		line 8 in file "./../../LIBRERIAS/configuracion_auto.h"
  5238 ;; Parameters:    Size  Location     Type
  5239 ;;		None
  5240 ;; Auto vars:     Size  Location     Type
  5241 ;;		None
  5242 ;; Return value:  Size  Location     Type
  5243 ;;                  1    wreg      void 
  5244 ;; Registers used:
  5245 ;;		None
  5246 ;; Tracked objects:
  5247 ;;		On entry : 0/0
  5248 ;;		On exit  : 0/0
  5249 ;;		Unchanged: 0/0
  5250 ;; Data sizes:     COMRAM   BANK0   BANK1   BANK2   BANK3   BANK4   BANK5   BANK6   BANK7   BANK8   BANK9  BANK10  BANK1
      +1  BANK12  BANK13  BANK14
  5251 ;;      Params:         0       0       0       0       0       0       0       0       0       0       0       0       
      +0       0       0       0
  5252 ;;      Locals:         0       0       0       0       0       0       0       0       0       0       0       0       
      +0       0       0       0
  5253 ;;      Temps:          0       0       0       0       0       0       0       0       0       0       0       0       
      +0       0       0       0
  5254 ;;      Totals:         0       0       0       0       0       0       0       0       0       0       0       0       
      +0       0       0       0
  5255 ;;Total ram usage:        0 bytes
  5256 ;; Hardware stack levels used:    1
  5257 ;; Hardware stack levels required when called:    1
  5258 ;; This function calls:
  5259 ;;		Nothing
  5260 ;; This function is called by:
  5261 ;;		_configuracionInicial
  5262 ;; This function uses a non-reentrant model
  5263 ;;
  5264                           
  5265                           	psect	text31
  5266  00263E                     __ptext31:
  5267                           	opt callstack 0
  5268  00263E                     _configurarInterrupciones:
  5269                           	opt callstack 28
  5270                           
  5271                           ;./../../LIBRERIAS/configuracion_auto.h: 9:     TRISBbits.TRISB0 = 1;
  5272                           
  5273                           ; BSR set to: 15
  5274                           ;incstack = 0
  5275  00263E  8093               	bsf	3987,0,c	;volatile
  5276                           
  5277                           ;./../../LIBRERIAS/configuracion_auto.h: 10:     INTCONbits.GIE = 1;
  5278  002640  8EF2               	bsf	4082,7,c	;volatile
  5279                           
  5280                           ;./../../LIBRERIAS/configuracion_auto.h: 11:     INTCONbits.PEIE = 1;
  5281  002642  8CF2               	bsf	4082,6,c	;volatile
  5282                           
  5283                           ;./../../LIBRERIAS/configuracion_auto.h: 12:     INTCON2bits.INTEDG0=0;
  5284  002644  9CF1               	bcf	4081,6,c	;volatile
  5285                           
  5286                           ;./../../LIBRERIAS/configuracion_auto.h: 13:     INTCONbits.INT0F = 0;
  5287  002646  92F2               	bcf	4082,1,c	;volatile
  5288                           
  5289                           ;./../../LIBRERIAS/configuracion_auto.h: 14:     INTCONbits.INT0E = 1;
  5290  002648  88F2               	bsf	4082,4,c	;volatile
  5291  00264A  0012               	return		;funcret
  5292  00264C                     __end_of_configurarInterrupciones:
  5293                           	opt callstack 0
  5294                           
  5295 ;; *************** function _configuracionADC *****************
  5296 ;; Defined at:
  5297 ;;		line 116 in file "sensores.c"
  5298 ;; Parameters:    Size  Location     Type
  5299 ;;		None
  5300 ;; Auto vars:     Size  Location     Type
  5301 ;;		None
  5302 ;; Return value:  Size  Location     Type
  5303 ;;                  1    wreg      void 
  5304 ;; Registers used:
  5305 ;;		wreg, status,2
  5306 ;; Tracked objects:
  5307 ;;		On entry : 0/0
  5308 ;;		On exit  : 0/0
  5309 ;;		Unchanged: 0/0
  5310 ;; Data sizes:     COMRAM   BANK0   BANK1   BANK2   BANK3   BANK4   BANK5   BANK6   BANK7   BANK8   BANK9  BANK10  BANK1
      +1  BANK12  BANK13  BANK14
  5311 ;;      Params:         0       0       0       0       0       0       0       0       0       0       0       0       
      +0       0       0       0
  5312 ;;      Locals:         0       0       0       0       0       0       0       0       0       0       0       0       
      +0       0       0       0
  5313 ;;      Temps:          0       0       0       0       0       0       0       0       0       0       0       0       
      +0       0       0       0
  5314 ;;      Totals:         0       0       0       0       0       0       0       0       0       0       0       0       
      +0       0       0       0
  5315 ;;Total ram usage:        0 bytes
  5316 ;; Hardware stack levels used:    1
  5317 ;; Hardware stack levels required when called:    1
  5318 ;; This function calls:
  5319 ;;		Nothing
  5320 ;; This function is called by:
  5321 ;;		_configuracionInicial
  5322 ;; This function uses a non-reentrant model
  5323 ;;
  5324                           
  5325                           	psect	text32
  5326  00261C                     __ptext32:
  5327                           	opt callstack 0
  5328  00261C                     _configuracionADC:
  5329                           	opt callstack 28
  5330                           
  5331                           ;sensores.c: 117:     TRISEbits.TRISE2 = 1;
  5332                           
  5333                           ;incstack = 0
  5334  00261C  8496               	bsf	3990,2,c	;volatile
  5335                           
  5336                           ;sensores.c: 118:     ANCON0bits.PCFG7 = 0;
  5337  00261E  010F               	movlb	15	; () banked
  5338  002620  9F48               	bcf	72,7,b	;volatile
  5339                           
  5340                           ; BSR set to: 15
  5341                           ;sensores.c: 119:     ADCON0 = 0x1D;
  5342  002622  0E1D               	movlw	29
  5343  002624  6EC2               	movwf	4034,c	;volatile
  5344                           
  5345                           ;sensores.c: 120:     ADCON1 = 0xB6;
  5346  002626  0EB6               	movlw	182
  5347  002628  6EC1               	movwf	4033,c	;volatile
  5348                           
  5349                           ; BSR set to: 15
  5350                           ;sensores.c: 121:     PIR1bits.ADIF = 0;
  5351  00262A  9C9E               	bcf	3998,6,c	;volatile
  5352                           
  5353                           ; BSR set to: 15
  5354                           ;sensores.c: 122:     PIE1bits.ADIE = 0;
  5355  00262C  9C9D               	bcf	3997,6,c	;volatile
  5356                           
  5357                           ; BSR set to: 15
  5358  00262E  0012               	return		;funcret
  5359  002630                     __end_of_configuracionADC:
  5360                           	opt callstack 0
  5361                           
  5362 ;; *************** function _rutina *****************
  5363 ;; Defined at:
  5364 ;;		line 36 in file "sensores.c"
  5365 ;; Parameters:    Size  Location     Type
  5366 ;;		None
  5367 ;; Auto vars:     Size  Location     Type
  5368 ;;  dato            1    2[COMRAM] unsigned char 
  5369 ;; Return value:  Size  Location     Type
  5370 ;;                  1    wreg      void 
  5371 ;; Registers used:
  5372 ;;		wreg, fsr2l, fsr2h, status,2, status,0
  5373 ;; Tracked objects:
  5374 ;;		On entry : 0/0
  5375 ;;		On exit  : 0/0
  5376 ;;		Unchanged: 0/0
  5377 ;; Data sizes:     COMRAM   BANK0   BANK1   BANK2   BANK3   BANK4   BANK5   BANK6   BANK7   BANK8   BANK9  BANK10  BANK1
      +1  BANK12  BANK13  BANK14
  5378 ;;      Params:         0       0       0       0       0       0       0       0       0       0       0       0       
      +0       0       0       0
  5379 ;;      Locals:         1       0       0       0       0       0       0       0       0       0       0       0       
      +0       0       0       0
  5380 ;;      Temps:          2       0       0       0       0       0       0       0       0       0       0       0       
      +0       0       0       0
  5381 ;;      Totals:         3       0       0       0       0       0       0       0       0       0       0       0       
      +0       0       0       0
  5382 ;;Total ram usage:        3 bytes
  5383 ;; Hardware stack levels used:    1
  5384 ;; This function calls:
  5385 ;;		Nothing
  5386 ;; This function is called by:
  5387 ;;		Interrupt level 2
  5388 ;; This function uses a non-reentrant model
  5389 ;;
  5390                           
  5391                           	psect	intcode
  5392  000008                     __pintcode:
  5393                           	opt callstack 0
  5394  000008                     _rutina:
  5395                           	opt callstack 22
  5396                           
  5397                           ; BSR set to: 15
  5398                           ;incstack = 0
  5399  000008  825B               	bsf	btemp,1,c	;set compiler interrupt flag (level 2)
  5400  00000A  CFD9 F001          	movff	fsr2l,??_rutina
  5401  00000E  CFDA F002          	movff	fsr2h,??_rutina+1
  5402                           
  5403                           ;sensores.c: 37:     if(PIR1bits.RC1IF == 1){
  5404  000012  AA9E               	btfss	3998,5,c	;volatile
  5405  000014  D018               	goto	i2l148
  5406                           
  5407                           ;sensores.c: 38:         unsigned char dato = RCREG1;
  5408  000016  CFAF F003          	movff	4015,rutina@dato	;volatile
  5409                           
  5410                           ;sensores.c: 39:         if(dato == 'P'){
  5411  00001A  0E50               	movlw	80
  5412  00001C  1803               	xorwf	rutina@dato,w,c
  5413  00001E  A4D8               	btfss	status,2,c
  5414  000020  D006               	goto	i2l149
  5415                           
  5416                           ;sensores.c: 40:             bandera = 1;
  5417  000022  0E01               	movlw	1
  5418  000024  0100               	movlb	0	; () banked
  5419  000026  6F99               	movwf	_bandera& (0+255),b
  5420                           
  5421                           ;sensores.c: 41:             indicador = 0;
  5422  000028  0E00               	movlw	0
  5423  00002A  6E5A               	movwf	_indicador,c
  5424                           
  5425                           ;sensores.c: 42:         }
  5426  00002C  D03A               	goto	i2l158
  5427  00002E                     i2l149:
  5428                           
  5429                           ;sensores.c: 44:             TXREG1 = dato;
  5430  00002E  C003  FFAE         	movff	rutina@dato,4014	;volatile
  5431                           
  5432                           ;sensores.c: 45:             datos[indicador] = dato;
  5433  000032  0EBA               	movlw	low _datos
  5434  000034  245A               	addwf	_indicador,w,c
  5435  000036  6ED9               	movwf	fsr2l,c
  5436  000038  6ADA               	clrf	fsr2h,c
  5437  00003A  0E00               	movlw	high _datos
  5438  00003C  22DA               	addwfc	fsr2h,f,c
  5439  00003E  C003  FFDF         	movff	rutina@dato,indf2
  5440                           
  5441                           ;sensores.c: 46:             indicador++;
  5442  000042  2A5A               	incf	_indicador,f,c
  5443  000044  D02E               	goto	i2l158
  5444  000046                     i2l148:
  5445  000046  AC9E               	btfss	3998,6,c	;volatile
  5446  000048  D00B               	goto	i2l152
  5447                           
  5448                           ;sensores.c: 50:         PIR1bits.ADIF = 0;
  5449  00004A  9C9E               	bcf	3998,6,c	;volatile
  5450                           
  5451                           ;sensores.c: 51:         medicion_adc = ADRES;
  5452  00004C  CFC3 F094          	movff	4035,_medicion_adc	;volatile
  5453  000050  CFC4 F095          	movff	4036,_medicion_adc+1	;volatile
  5454                           
  5455                           ;sensores.c: 52:         bandera_adc = 1;
  5456  000054  0E00               	movlw	0
  5457  000056  0100               	movlb	0	; () banked
  5458  000058  6F93               	movwf	(_bandera_adc+1)& (0+255),b
  5459  00005A  0E01               	movlw	1
  5460  00005C  6F92               	movwf	_bandera_adc& (0+255),b
  5461                           
  5462                           ;sensores.c: 53:     }
  5463  00005E  D021               	goto	i2l158
  5464  000060                     i2l152:
  5465  000060  A498               	btfss	3992,2,c	;volatile
  5466  000062  D019               	goto	i2l154
  5467                           
  5468                           ;sensores.c: 55:         PIR5bits.TMR5IF = 0;
  5469  000064  9498               	bcf	3992,2,c	;volatile
  5470                           
  5471                           ;sensores.c: 56:         contador_timer_5++;
  5472  000066  0100               	movlb	0	; () banked
  5473  000068  4B90               	infsnz	_contador_timer_5& (0+255),f,b
  5474  00006A  2B91               	incf	(_contador_timer_5+1)& (0+255),f,b
  5475                           
  5476                           ; BSR set to: 0
  5477                           ;sensores.c: 57:         TMR5H = 0xFF;
  5478  00006C  010F               	movlb	15	; () banked
  5479  00006E  6924               	setf	36,b	;volatile
  5480                           
  5481                           ; BSR set to: 15
  5482                           ;sensores.c: 58:         TMR5L = 0x6A;
  5483  000070  0E6A               	movlw	106
  5484  000072  6F23               	movwf	35,b	;volatile
  5485                           
  5486                           ; BSR set to: 15
  5487                           ;sensores.c: 59:         if(contador_timer_5 == TIME_MAX){
  5488  000074  0100               	movlb	0	; () banked
  5489  000076  51F3               	movf	_TIME_MAX& (0+255),w,b
  5490  000078  1990               	xorwf	_contador_timer_5& (0+255),w,b
  5491  00007A  E113               	bnz	i2l158
  5492  00007C  51F4               	movf	(_TIME_MAX+1)& (0+255),w,b
  5493  00007E  1991               	xorwf	(_contador_timer_5+1)& (0+255),w,b
  5494  000080  A4D8               	btfss	status,2,c
  5495  000082  D00F               	goto	i2l158
  5496                           
  5497                           ; BSR set to: 0
  5498                           ;sensores.c: 60:             contador_timer_5 = 0;
  5499  000084  0E00               	movlw	0
  5500  000086  6F91               	movwf	(_contador_timer_5+1)& (0+255),b
  5501  000088  0E00               	movlw	0
  5502  00008A  6F90               	movwf	_contador_timer_5& (0+255),b
  5503                           
  5504                           ;sensores.c: 61:             bandera_servo = 1;
  5505  00008C  0E00               	movlw	0
  5506  00008E  6F8F               	movwf	(_bandera_servo+1)& (0+255),b
  5507  000090  0E01               	movlw	1
  5508  000092  6F8E               	movwf	_bandera_servo& (0+255),b
  5509  000094  D006               	goto	i2l158
  5510  000096                     i2l154:
  5511  000096  A2F2               	btfss	4082,1,c	;volatile
  5512  000098  D004               	goto	i2l158
  5513                           
  5514                           ;sensores.c: 65:         INTCONbits.INT0F = 0;
  5515  00009A  92F2               	bcf	4082,1,c	;volatile
  5516                           
  5517                           ;sensores.c: 66:         obstaculo = 1;
  5518  00009C  0E01               	movlw	1
  5519  00009E  0100               	movlb	0	; () banked
  5520  0000A0  6F98               	movwf	_obstaculo& (0+255),b
  5521  0000A2                     i2l158:
  5522  0000A2  C002  FFDA         	movff	??_rutina+1,fsr2h
  5523  0000A6  C001  FFD9         	movff	??_rutina,fsr2l
  5524  0000AA  925B               	bcf	btemp,1,c	;clear compiler interrupt flag (level 2)
  5525  0000AC  0011               	retfie		f
  5526  0000AE                     __end_of_rutina:
  5527                           	opt callstack 0
  5528                           
  5529                           	psect	rparam
  5530  0000                     
  5531                           	psect	temp
  5532  00005B                     btemp:
  5533                           	opt callstack 0
  5534  00005B                     	ds	1
  5535  0000                     int$flags	set	btemp
  5536  0000                     wtemp8	set	btemp+1
  5537  0000                     ttemp5	set	btemp+1
  5538  0000                     ttemp6	set	btemp+4
  5539  0000                     ttemp7	set	btemp+8
  5540                           tosu	equ	0xFFF
  5541                           tosh	equ	0xFFE
  5542                           tosl	equ	0xFFD
  5543                           stkptr	equ	0xFFC
  5544                           pclatu	equ	0xFFB
  5545                           pclath	equ	0xFFA
  5546                           pcl	equ	0xFF9
  5547                           tblptru	equ	0xFF8
  5548                           tblptrh	equ	0xFF7
  5549                           tblptrl	equ	0xFF6
  5550                           tablat	equ	0xFF5
  5551                           prodh	equ	0xFF4
  5552                           prodl	equ	0xFF3
  5553                           indf0	equ	0xFEF
  5554                           postinc0	equ	0xFEE
  5555                           postdec0	equ	0xFED
  5556                           preinc0	equ	0xFEC
  5557                           plusw0	equ	0xFEB
  5558                           fsr0h	equ	0xFEA
  5559                           fsr0l	equ	0xFE9
  5560                           wreg	equ	0xFE8
  5561                           indf1	equ	0xFE7
  5562                           postinc1	equ	0xFE6
  5563                           postdec1	equ	0xFE5
  5564                           preinc1	equ	0xFE4
  5565                           plusw1	equ	0xFE3
  5566                           fsr1h	equ	0xFE2
  5567                           fsr1l	equ	0xFE1
  5568                           bsr	equ	0xFE0
  5569                           indf2	equ	0xFDF
  5570                           postinc2	equ	0xFDE
  5571                           postdec2	equ	0xFDD
  5572                           preinc2	equ	0xFDC
  5573                           plusw2	equ	0xFDB
  5574                           fsr2h	equ	0xFDA
  5575                           fsr2l	equ	0xFD9
  5576                           status	equ	0xFD8


Data Sizes:
    Strings     7
    Constant    0
    Data        4
    BSS         103
    Persistent  0
    Stack       0

Auto Spaces:
    Space          Size  Autos    Used
    COMRAM           94     87      90
    BANK0           160     47     151
    BANK1           256      0       0
    BANK2           256      0       0
    BANK3           256      0       0
    BANK4           256      0       0
    BANK5           256      0       0
    BANK6           256      0       0
    BANK7           256      0       0
    BANK8           256      0       0
    BANK9           256      0       0
    BANK10          256      0       0
    BANK11          256      0       0
    BANK12          256      0       0
    BANK13          256      0       0
    BANK14          176      0       0

Pointer List with Targets:

    strlen@s	PTR const unsigned char  size(2) Largest target is 32
		 -> dbuf(BANK0[32]), 

    strlen@a	PTR const unsigned char  size(2) Largest target is 32
		 -> dbuf(BANK0[32]), 

    sprintf@fmt	PTR const unsigned char  size(2) Largest target is 7
		 -> STR_1(CODE[7]), 

    sprintf@s	PTR unsigned char  size(2) Largest target is 20
		 -> main@text_adc(BANK0[20]), 

    sprintf@ap	PTR void [1] size(2) Largest target is 2
		 -> ?_sprintf(BANK0[2]), 

    f.buffer	PTR unsigned char  size(2) Largest target is 20
		 -> main@text_adc(BANK0[20]), 

    fputs@s	PTR const unsigned char  size(2) Largest target is 32
		 -> dbuf(BANK0[32]), 

    fputs@fp	PTR struct _IO_FILE size(2) Largest target is 7
		 -> sprintf@f(BANK0[6]), 

    S1461_IO_FILE$buffer	PTR unsigned char  size(2) Largest target is 20
		 -> main@text_adc(BANK0[20]), 

    fputc@fp.buffer	PTR unsigned char  size(2) Largest target is 20
		 -> main@text_adc(BANK0[20]), 

    fputc@fp	PTR struct _IO_FILE size(2) Largest target is 7
		 -> sprintf@f(BANK0[6]), 

    atoi@s	PTR const unsigned char  size(2) Largest target is 7
		 -> STR_1(CODE[7]), 

    vfprintf@ap	PTR PTR void  size(2) Largest target is 2
		 -> sprintf@ap(BANK0[2]), 

    vfprintf@fp	PTR struct _IO_FILE size(2) Largest target is 7
		 -> sprintf@f(BANK0[6]), 

    vfprintf@fmt	PTR const unsigned char  size(2) Largest target is 7
		 -> STR_1(CODE[7]), 

    vfprintf@cfmt	PTR unsigned char  size(2) Largest target is 7
		 -> STR_1(CODE[7]), 

    vfpfcnvrt@fp	PTR struct _IO_FILE size(2) Largest target is 7
		 -> sprintf@f(BANK0[6]), 

    vfpfcnvrt@ap	PTR PTR void  size(2) Largest target is 2
		 -> sprintf@ap(BANK0[2]), 

    vfpfcnvrt@fmt	PTR PTR unsigned char  size(2) Largest target is 2
		 -> vfprintf@cfmt(COMRAM[2]), 

    utoa@fp	PTR struct _IO_FILE size(2) Largest target is 7
		 -> sprintf@f(BANK0[6]), 

    ctoa@fp	PTR struct _IO_FILE size(2) Largest target is 7
		 -> sprintf@f(BANK0[6]), 

    pad@fp	PTR struct _IO_FILE size(2) Largest target is 7
		 -> sprintf@f(BANK0[6]), 

    pad@buf	PTR unsigned char  size(2) Largest target is 32
		 -> dbuf(BANK0[32]), 

    terminal@comand	PTR unsigned char  size(2) Largest target is 10
		 -> datos(BANK0[10]), 

    enviarRS232@valores	PTR unsigned char  size(2) Largest target is 20
		 -> main@text_adc(BANK0[20]), 


Critical Paths under _main in COMRAM

    _terminal->_fijarVelocidad
    _fijarVelocidad->___fladd
    ___fltol->___flmul
    ___flmul->___xxtofl
    ___fladd->___flmul
    _sprintf->_vfprintf
    _vfprintf->_vfpfcnvrt
    _vfpfcnvrt->_utoa
    _utoa->_pad
    _ctoa->_pad
    _pad->_fputs
    _fputs->_fputc
    _atoi->_isspace

Critical Paths under _rutina in COMRAM

    None.

Critical Paths under _main in BANK0

    _main->_sprintf
    _sprintf->_vfprintf

Critical Paths under _rutina in BANK0

    None.

Critical Paths under _main in BANK1

    None.

Critical Paths under _rutina in BANK1

    None.

Critical Paths under _main in BANK2

    None.

Critical Paths under _rutina in BANK2

    None.

Critical Paths under _main in BANK3

    None.

Critical Paths under _rutina in BANK3

    None.

Critical Paths under _main in BANK4

    None.

Critical Paths under _rutina in BANK4

    None.

Critical Paths under _main in BANK5

    None.

Critical Paths under _rutina in BANK5

    None.

Critical Paths under _main in BANK6

    None.

Critical Paths under _rutina in BANK6

    None.

Critical Paths under _main in BANK7

    None.

Critical Paths under _rutina in BANK7

    None.

Critical Paths under _main in BANK8

    None.

Critical Paths under _rutina in BANK8

    None.

Critical Paths under _main in BANK9

    None.

Critical Paths under _rutina in BANK9

    None.

Critical Paths under _main in BANK10

    None.

Critical Paths under _rutina in BANK10

    None.

Critical Paths under _main in BANK11

    None.

Critical Paths under _rutina in BANK11

    None.

Critical Paths under _main in BANK12

    None.

Critical Paths under _rutina in BANK12

    None.

Critical Paths under _main in BANK13

    None.

Critical Paths under _rutina in BANK13

    None.

Critical Paths under _main in BANK14

    None.

Critical Paths under _rutina in BANK14

    None.

Call Graph Tables:

 ---------------------------------------------------------------------------------
 (Depth) Function   	        Calls       Base Space   Used Autos Params    Refs
 ---------------------------------------------------------------------------------
 (0) _main                                                23    23      0   20230
                                             24 BANK0     23    23      0
               _configuracionInicial
                        _enviarRS232
                        _frenarMotor
                            _sprintf
                           _terminal
 ---------------------------------------------------------------------------------
 (1) _terminal                                            29    27      2    5466
                                             67 COMRAM     7     5      2
                                              0 BANK0     22    22      0
                         _dirreccion
                     _fijarVelocidad
                        _frenarMotor
 ---------------------------------------------------------------------------------
 (2) _frenarMotor                                          0     0      0       0
 ---------------------------------------------------------------------------------
 (2) _fijarVelocidad                                       9     9      0    5207
                                             58 COMRAM     9     9      0
                            ___fladd
                            ___flmul
                            ___fltol
                           ___xxtofl
 ---------------------------------------------------------------------------------
 (3) ___xxtofl                                            14    10      4     398
                                              3 COMRAM    14    10      4
 ---------------------------------------------------------------------------------
 (3) ___fltol                                             10     6      4     305
                                             42 COMRAM    10     6      4
                            ___flmul (ARG)
 ---------------------------------------------------------------------------------
 (3) ___flmul                                             25    17      8    2048
                                             17 COMRAM    25    17      8
                           ___xxtofl (ARG)
 ---------------------------------------------------------------------------------
 (3) ___fladd                                             16     8      8    2388
                                             42 COMRAM    16     8      8
                            ___flmul (ARG)
                           ___xxtofl (ARG)
 ---------------------------------------------------------------------------------
 (2) _dirreccion                                           4     4      0      70
                                              3 COMRAM     4     4      0
 ---------------------------------------------------------------------------------
 (1) _sprintf                                             18    10      8   14374
                                              6 BANK0     18    10      8
                           _vfprintf
 ---------------------------------------------------------------------------------
 (2) _vfprintf                                             8     2      6   13876
                                             85 COMRAM     2     2      0
                                              0 BANK0      6     0      6
                          _vfpfcnvrt
 ---------------------------------------------------------------------------------
 (3) _vfpfcnvrt                                           46    40      6   13340
                                             62 COMRAM    23    17      6
                               _atoi
                               _ctoa
                              _fputc
                            _isdigit
                               _utoa
 ---------------------------------------------------------------------------------
 (4) _utoa                                                32    22     10    5099
                                             30 COMRAM    32    22     10
                            ___lodiv
                            ___lomod
                                _pad
 ---------------------------------------------------------------------------------
 (5) ___lomod                                             17     1     16     412
                                              3 COMRAM    17     1     16
 ---------------------------------------------------------------------------------
 (5) ___lodiv                                             25     9     16     421
                                              3 COMRAM    25     9     16
 ---------------------------------------------------------------------------------
 (4) _ctoa                                                 7     4      3    3966
                                             30 COMRAM     5     2      3
                                _pad
 ---------------------------------------------------------------------------------
 (5) _pad                                                 11     5      6    3687
                                             19 COMRAM    11     5      6
                              _fputc
                              _fputs
                             _strlen
 ---------------------------------------------------------------------------------
 (6) _strlen                                               4     2      2     220
                                              3 COMRAM     4     2      2
 ---------------------------------------------------------------------------------
 (6) _fputs                                                7     3      4    1537
                                             12 COMRAM     7     3      4
                              _fputc
 ---------------------------------------------------------------------------------
 (7) _fputc                                                9     5      4    1037
                                              3 COMRAM     9     5      4
                              _putch
 ---------------------------------------------------------------------------------
 (8) _putch                                                1     1      0       0
 ---------------------------------------------------------------------------------
 (4) _atoi                                                15    13      2    1615
                                             10 COMRAM    15    13      2
                             ___wmul
                            _isdigit
                            _isspace
 ---------------------------------------------------------------------------------
 (5) _isspace                                              7     5      2     259
                                              3 COMRAM     7     5      2
 ---------------------------------------------------------------------------------
 (4) _isdigit                                              6     4      2     281
                                              3 COMRAM     6     4      2
 ---------------------------------------------------------------------------------
 (5) ___wmul                                               6     2      4     512
                                              3 COMRAM     6     2      4
 ---------------------------------------------------------------------------------
 (1) _enviarRS232                                          5     2      3     242
                                              3 COMRAM     5     2      3
 ---------------------------------------------------------------------------------
 (1) _configuracionInicial                                 0     0      0       0
                   _configuracionADC
           _configurarInterrupciones
                     _configurarPWM7
                  _configurarPuertos
                    _configurarRS232
                     _configurarTMR5
 ---------------------------------------------------------------------------------
 (2) _configurarTMR5                                       0     0      0       0
 ---------------------------------------------------------------------------------
 (2) _configurarRS232                                      0     0      0       0
 ---------------------------------------------------------------------------------
 (2) _configurarPuertos                                    0     0      0       0
 ---------------------------------------------------------------------------------
 (2) _configurarPWM7                                       0     0      0       0
 ---------------------------------------------------------------------------------
 (2) _configurarInterrupciones                             0     0      0       0
 ---------------------------------------------------------------------------------
 (2) _configuracionADC                                     0     0      0       0
 ---------------------------------------------------------------------------------
 Estimated maximum stack depth 8
 ---------------------------------------------------------------------------------
 (Depth) Function   	        Calls       Base Space   Used Autos Params    Refs
 ---------------------------------------------------------------------------------
 (9) _rutina                                               3     3      0      67
                                              0 COMRAM     3     3      0
 ---------------------------------------------------------------------------------
 Estimated maximum stack depth 9
 ---------------------------------------------------------------------------------

 Call Graph Graphs:

 _main (ROOT)
   _configuracionInicial
     _configuracionADC
     _configurarInterrupciones
     _configurarPWM7
     _configurarPuertos
     _configurarRS232
     _configurarTMR5
   _enviarRS232
   _frenarMotor
   _sprintf
     _vfprintf
       _vfpfcnvrt
         _atoi
           ___wmul
           _isdigit
           _isspace
         _ctoa
           _pad
             _fputc
               _putch
             _fputs
               _fputc
                 _putch
             _strlen
         _fputc
           _putch
         _isdigit
         _utoa
           ___lodiv
           ___lomod
           _pad
             _fputc
               _putch
             _fputs
               _fputc
                 _putch
             _strlen
   _terminal
     _dirreccion
     _fijarVelocidad
       ___fladd
         ___flmul (ARG)
           ___xxtofl (ARG)
         ___xxtofl (ARG)
       ___flmul
         ___xxtofl (ARG)
       ___fltol
         ___flmul (ARG)
           ___xxtofl (ARG)
       ___xxtofl
     _frenarMotor

 _rutina (ROOT)

 Address spaces:
Name               Size   Autos  Total    Cost      Usage
BIGRAM             EAF      0       0      35        0.0%
BITBANK13          100      0       0      31        0.0%
BANK13             100      0       0      32        0.0%
BITBANK12          100      0       0      29        0.0%
BANK12             100      0       0      30        0.0%
BITBANK11          100      0       0      27        0.0%
BANK11             100      0       0      28        0.0%
BITBANK10          100      0       0      25        0.0%
BANK10             100      0       0      26        0.0%
BITBANK9           100      0       0      23        0.0%
BANK9              100      0       0      24        0.0%
BITBANK8           100      0       0      21        0.0%
BANK8              100      0       0      22        0.0%
BITBANK7           100      0       0      19        0.0%
BANK7              100      0       0      20        0.0%
BITBANK6           100      0       0      17        0.0%
BANK6              100      0       0      18        0.0%
BITBANK5           100      0       0      15        0.0%
BANK5              100      0       0      16        0.0%
BITBANK4           100      0       0      13        0.0%
BANK4              100      0       0      14        0.0%
BITBANK3           100      0       0      11        0.0%
BANK3              100      0       0      12        0.0%
BITBANK2           100      0       0       9        0.0%
BANK2              100      0       0      10        0.0%
BITBANK1           100      0       0       7        0.0%
BANK1              100      0       0       8        0.0%
BITBANK14           B0      0       0      33        0.0%
BANK14              B0      0       0      34        0.0%
BITBANK0            A0      0       0       4        0.0%
BANK0               A0     2F      97       5       94.4%
BITCOMRAM           5E      0       0       0        0.0%
COMRAM              5E     57      5A       1       95.7%
BITSFR_2             0      0       0     200        0.0%
SFR_2                0      0       0     200        0.0%
BITSFR_1             0      0       0     200        0.0%
SFR_1                0      0       0     200        0.0%
BITSFR               0      0       0     200        0.0%
SFR                  0      0       0     200        0.0%
STACK                0      0       0       2        0.0%
NULL                 0      0       0       0        0.0%
ABS                  0      0      F1       6        0.0%
DATA                 0      0      F1       3        0.0%
CODE                 0      0       0       0        0.0%


Microchip Technology PIC18 Macro Assembler V2.05 build -831301201 
Symbol Table                                                                                   Sat Jun 15 18:05:55 2019

              ___wmul@multiplicand 0006                       __CFG_CP0$OFF 000000  
                    terminal@texto 00C4                                l233 2284  
                              l250 18D6                                l252 18DE  
                              l169 1E9E                                l199 2326  
                              l736 1F66                                l912 0F8A  
                              l921 11A2                                l746 2192  
                              l922 119E                                l843 17C0  
                              l827 16EE                                l852 1826  
                              l828 16CC                                l853 1822  
                              l960 1C78                                l929 1228  
                              l953 1BFA                                l997 1BB2  
                              _PR2 000FCB                    ?_configurarTMR5 0001  
                  ?_configurarPWM7 0001                                _pad 2254  
                   terminal@comand 0044                   ??_fijarVelocidad 003B  
                              wreg 000FE8                       __CFG_IESO$ON 000000  
                     ___flmul@aexp 0023                       ___flmul@bexp 0024  
                     ___flmul@sign 001E                       ___flmul@temp 0029  
                     ___flmul@prod 0025                       ___fltol@exp1 0034  
                             l3132 21CC                               l2412 15D8  
                             l3310 1AE4                               l3302 1ACC  
                             l3142 24D6                               l3150 256E  
                             l3312 1AEA                               l3152 2572  
                             l3208 1F50                               l3224 217C  
                             l3216 2120                               l2440 1624  
                             l2416 15DC                               l3314 1B16  
                             l3146 24EC                               l3162 226E  
                             l3218 2134                               l2514 1734  
                             l2506 1712                               l3236 2488  
                             l3308 1ADC                               l3172 22A6  
                             l3244 2416                               l3412 1552  
                             l2516 1738                               l2524 174A  
                             l2436 1620                               l3318 1B4E  
                             l3166 227C                               l3246 2422  
                             l3406 1512                               l3350 12C0  
                             l3342 12A6                               l3422 1574  
                             l2542 17E4                               l2534 17B0  
                             l2710 11E6                               l2614 0F36  
                             l3176 22D4                               l3168 228E  
                             l3416 155C                               l3344 12AA  
                             l3440 236C                               l2552 17FA  
                             l2448 1644                               l2632 0F76  
                             l2616 0F3A                               l2800 1C9E  
                             l3266 1914                               l3362 12D2  
                             l3354 12C6                               l3346 12BA  
                             l3442 2392                               l2490 16DA  
                             l2714 1204                               l2642 0FA8  
                             l2634 0F7A                               l2618 0F4A  
                             l2802 1CAA                               l3292 1A7A  
                             l3196 1EE0                               l3276 1A00  
                             l3380 1394                               l2492 16DE  
                             l3294 1A7E                               l3198 1EF4  
                             l3382 13B2                               l3366 12DC  
                             l3358 12CC                               l2590 189A  
                             l2558 1804                               l2478 1680  
                             l2726 1246                               l3470 1E0E  
                             l2912 255A                               l3384 13C0  
                             l3368 1322                               l2592 189C  
                             l3464 1DF6                               l2906 253A  
                             l2586 1892                               l2578 186C  
                             l2690 1168                               l2754 20B4  
                             l2738 206A                               l2818 1CEA  
                             l2930 1FA6                               l3482 1E70  
                             l2684 114A                               l2772 20F4  
                             l2764 20CC                               l2932 1FAC  
                             l3492 1EA6                               l3398 1474  
                             l2870 22FE                               l2766 20D8  
                             l2758 20C4                               l2790 1C2E  
                             l2782 1C0A                               l2926 1F96  
                             ?_pad 0014                               l2792 1C3A  
                             l2928 1F9E                               l2882 234A  
                             l2866 22F6                               l2874 2304  
                             l2794 1C60                               l2938 2012  
                             l2868 22FA                               l2788 1C28  
                             l2878 2336                 __CFG_WPFP$PAGE_127 000000  
                             STR_1 0F01                               u2010 16F6  
                             u3010 18CC                               u3100 1B82  
                             u2220 1878                               u2140 1808  
                             u3110 1B84                               u3040 1A2A  
                             u3200 13FE                               u2160 181C  
                             u3041 1A28                               u3050 1A38  
                             u3210 140A                               u2330 0F96  
                             u3060 1A3E                               u2420 11F4  
                             u2340 110C                               u2500 20DE  
                             u2430 1212                               u3080 1AC8  
                             u2345 1102                               u2450 2058  
                             u2380 1198                               u2460 2088  
                             u3261 1DE2                               u3190 13FC  
                             u3327 1E60                               u3337 2550  
                             u2465 207E                               u2810 220C  
                             u2651 1F8E                               u2580 1CB4  
                             u2901 1EC0                               u2920 1EF8  
                             u1960 16A2                               u1970 16B2  
                             u1980 16B4                               u2790 21C4  
                             u2950 2138                               u2880 252C  
                             u2890 252E                               u2980 2484  
                     ?_frenarMotor 0001                               _TMR2 000FCC  
                 ?_configurarRS232 0001                       ?_enviarRS232 0004  
                    __CFG_FCMEN$ON 000000                               _dbuf 009A  
                             _atoi 1A68                               _ctoa 2404  
                             _main 1DDC                               _prec 008A  
                             _nout 0088                               pad@i 001B  
                             pad@p 0018                               fsr1h 000FE2  
                             fsr2h 000FDA                               indf2 000FDF  
                             fsr1l 000FE1                               pad@w 001D  
                             fsr2l 000FD9                               btemp 005B  
                             _utoa 18B8                               prodh 000FF4  
                             prodl 000FF3                               start 00AE  
                     ___param_bank 000000                              ??_pad 001A  
                    __CFG_PLLDIV$3 000000                       _BAUDCON1bits 000F7E  
                    ___fltol@sign1 0033                              ?_atoi 000B  
                            ?_ctoa 001F                    __end_of___fladd 18B8  
                            ?_main 0001                              _ADRES 000FC3  
                  __end_of___flmul 125C                    __end_of___fltol 2106  
                            ?_utoa 001F                    __end_of___lodiv 1F88  
                            _T2CON 000FCA                    __end_of___lomod 21B4  
                            _T5CON 000F22                              i2l152 0060  
                            i2l154 0096                              i2l148 0046  
                            i2l149 002E                              i2l158 00A2  
                     vfpfcnvrt@fmt 0041                       vfpfcnvrt@llu 0049  
                            _TMR5H 000F24                              _TMR5L 000F23  
                            _datos 00BA                              _flags 008C  
                ?_configuracionADC 0001                              _fputc 21B4  
                            _fputs 24CC                    __end_of_isdigit 2534  
                   __CFG_CLKOEC$ON 000000                              atoi@n 0018  
                            pad@fp 0014                              atoi@s 000B  
                            _width 0058                              ctoa@c 0021  
                            _putch 265C                              ctoa@w 0022  
                  __end_of_isspace 2490                              tablat 000FF5  
               ??_configuracionADC 0004                       main@text_adc 00DE  
                            ttemp5 005C                              ttemp6 005F  
                            ttemp7 0063                              utoa@d 0021  
                            utoa@i 003D                              utoa@n 0035  
                            utoa@p 0031                              utoa@w 0033  
                            status 000FD8                              wtemp8 005C  
                  __end_of_sprintf 2404                   ___lodiv@dividend 0004  
                 terminal@medicion 00D8            __CFG_DSWDTOSC$INTOSCREF 000000  
                  __initialization 2490                       __end_of_atoi 1BBC  
                     __end_of_ctoa 2452                       __end_of_main 1EBA  
                     __end_of_utoa 1A68                     __CFG_OSC$HSPLL 000000  
                           ??_atoi 000D                             ??_ctoa 0022  
                           ??_main 00DC                             ??_utoa 0029  
                    __activetblptr 000003                   dirreccion@degree 0006  
                 ___lodiv@quotient 0014                             _ADCON0 000FC2  
                           _ADCON1 000FC1                             ?_fputc 0004  
                           ?_fputs 000D                             _CCPR7L 000F0A  
                           _ANCON0 000F48                             _ANCON1 000F49  
                           ?_putch 0001                     __CFG_WDTEN$OFF 000000  
                           _RCREG1 000FAF                             _RCSTA1 000FAC  
                    vfpfcnvrt@done 0052                             _SPBRG1 000FB0  
                   __CFG_WPCFG$OFF 000000                             _TXREG1 000FAE  
                 __end_of___xxtofl 1CFC                             _TXSTA1 000FAD  
                   __CFG_WPDIS$OFF 000000                   _contador_timer_5 0090  
                   __CFG_XINST$OFF 000000                       _CCPTMRS1bits 000F51  
                     vfprintf@cfmt 0056                          ??___fladd 0033  
                           ___wmul 258E                     __CFG_STVREN$ON 000000  
                        ??___flmul 001A                          ??___fltol 002F  
    __size_of_configuracionInicial 001A                          ??___lodiv 0014  
                        ??___lomod 0014                             clear_0 24B6  
                           pad@buf 0016                             ctoa@fp 001F  
                           _rutina 0008                             _strlen 2564  
                _configurarPuertos 264C                             fputc@c 0004  
                           fputs@c 0011                             fputs@i 0012  
                           fputs@s 000D                          ??_isdigit 0006  
               ?_configurarPuertos 0001                       __mediumconst 0000  
                        ??_isspace 0006                   __end_of_terminal 204C  
                           tblptrh 000FF7                             tblptrl 000FF6  
                           tblptru 000FF8                             putch@c 0001  
                 __end_of_vfprintf 23B2                             utoa@fp 001F  
                        ??_sprintf 0058                ??_configurarPuertos 0004  
             __CFG_LS48MHZ$SYS48X8 000000                       ___xxtofl@arg 000E  
                     ___xxtofl@exp 000D                       ___xxtofl@val 0004  
                       __accesstop 0060            __end_of__initialization 24C2  
             __size_of_frenarMotor 000E           _configurarInterrupciones 263E  
             __size_of_enviarRS232 0030                      ___rparam_used 000001  
                       ___fltol@f1 002B                       enviarRS232@i 0008  
                  __CFG_IOL1WAY$ON 000000               __CFG_WPEND$PAGE_WPFP 000000  
                   __pcstackCOMRAM 0001                       __pidataBANK0 2658  
                 ??_configurarTMR5 0004                   ??_configurarPWM7 0004  
                    __end_of_fputc 2254                      __end_of_fputs 2504  
                    __end_of_putch 265E          __end_of_configurarPuertos 2658  
                  __CFG_DSWDTPS$G2 000000                            ??_fputc 0008  
                          ??_fputs 0011                            ??_putch 0004  
                       __pbssBANK0 0060                            ?___wmul 0004  
                          ?_rutina 0001                            ?_strlen 0004  
                        ?___xxtofl 0004                 __size_of_vfpfcnvrt 0350  
                       _dirreccion 22EE                   fijarVelocidad@DC 003B  
                    _bandera_servo 008E                   ___lomod@dividend 0004  
                 __CFG_CFGPLLEN$ON 000000                            __Hparam 0000  
                          __Lparam 0000           __size_of_configurarRS232 0018  
        __size_of_configuracionADC 0014                          ?_terminal 0044  
                          ___fladd 15AC                            ___flmul 0F0A  
                          ___fltol 204C                    __size_of___wmul 0026  
                          ___lodiv 1EBA                            ___lomod 2106  
                        ?_vfprintf 00C4                       __psmallconst 0F00  
                          _bandera 0099         __size_of_configurarPuertos 000C  
                          __pcinit 2490                            __ramtop 0F00  
                          __ptext0 1DDC                            __ptext1 1F88  
                          __ptext2 2630                            __ptext3 1CFC  
                          __ptext4 1BBC                            __ptext5 204C  
                          __ptext6 0F0A                            __ptext7 15AC  
                          __ptext8 22EE                            __ptext9 23B2  
                  __size_of_rutina 00A6                    __size_of_strlen 002A  
                        _T2CONbits 000FCA                       __size_of_pad 009A  
                          _isdigit 2504                         ??___xxtofl 0008  
                          _isspace 2452                          _T5CONbits 000F22  
                          atoi@neg 0011                            _sprintf 23B2  
             end_of_initialization 24C2                            fputc@fp 0006  
                          fputs@fp 000F            __size_of_fijarVelocidad 00E0  
                __end_of_vfpfcnvrt 15AC                         ??_terminal 0046  
                          postdec1 000FE5                            postdec2 000FDD  
                          postinc0 000FEE                            postinc1 000FE6  
                          postinc2 000FDE                         ??_vfprintf 0056  
                          strlen@a 0006                            strlen@s 0004  
                        _PORTDbits 000F83                   __CFG_DSBOREN$OFF 000000  
                      ___fladd@grs 003A                   __CFG_CPUDIV$OSC1 000000  
                    ___xxtofl@sign 000C                          _TRISBbits 000F93  
                        _TRISCbits 000F94                          _TRISDbits 000F95  
                        _TRISEbits 000F96                        ?_dirreccion 0001  
       ??_configurarInterrupciones 0004       __end_of_configuracionInicial 25EE  
                __CFG_SOSCSEL$HIGH 000000                        ___flmul@grs 001F  
                      _CCP7CONbits 000F09                __CFG_MSSP7B_EN$MSK7 000000  
                      vfpfcnvrt@ap 0043                        vfpfcnvrt@fp 003F  
                   __end_of___wmul 25B4                  ??_configurarRS232 0004  
                 __CFG_DSWDTEN$OFF 000000                       _medicion_adc 0094  
                   __end_of_rutina 00AE                     __end_of_strlen 258E  
              start_initialization 2490                    ___lodiv@divisor 000C  
                  ___lodiv@counter 001C                        __end_of_pad 22EE  
                    ??_frenarMotor 0004                      ??_enviarRS232 0007  
                      _bandera_adc 0092                        vfprintf@fmt 00C6  
                 _configuracionADC 261C                __size_of_dirreccion 006A  
                         ??___wmul 0008                  __CFG_ADCSEL$BIT12 000000  
                      __pdataBANK0 00F3                           ??_rutina 0001  
                         ??_strlen 0006                          ___fladd@a 002F  
                        ___fladd@b 002B                          ___flmul@a 0016  
                        ___flmul@b 0012                        __pbssCOMRAM 0058  
                    __pcstackBANK0 00C4                  __size_of___xxtofl 0140  
                   _fijarVelocidad 1CFC                          _atoi$1440 0017  
                        _atoi$1441 0015                          _atoi$1439 0013  
              __end_of_frenarMotor 263E                __end_of_enviarRS232 2564  
               enviarRS232@valores 0004                          __pintcode 0008  
                         ?___fladd 002B                           ?___flmul 0012  
                         ?___fltol 002B               _configuracionInicial 25D4  
               dirreccion@tiempo_1 0007                           ?___lodiv 0004  
                         ?___lomod 0004                  __size_of_terminal 00C4  
                __size_of_vfprintf 005A                    ___lomod@divisor 000C  
                      __smallconst 0F00                    ___lomod@counter 0014  
                         ?_isdigit 0004                          _indicador 005A  
             __CFG_RTCOSC$T1OSCREF 000000                           ?_isspace 0004  
 __end_of_configurarInterrupciones 264C            __size_of_configurarPWM7 0020  
          __size_of_configurarTMR5 0016                           ?_sprintf 00CA  
                   __size_of_fputc 00A0                     __size_of_fputs 0038  
           __end_of_fijarVelocidad 1DDC                     __size_of_putch 0002  
                        _obstaculo 0098                     ___wmul@product 0008  
                         _PIE1bits 000F9D                           _PIE5bits 000F91  
                         _PIR1bits 000F9E                           _PIR5bits 000F98  
                 __CFG_WDTPS$32768 000000              ?_configuracionInicial 0001  
                        main@F7091 0074                           _TIME_MAX 00F3  
                        _velocidad 0096                          _vfpfcnvrt 125C  
                       _ADCON0bits 000FC2                  ___wmul@multiplier 0004  
        enviarRS232@numero_valores 0006                       ??_dirreccion 0004  
                     _isspace$1457 000A                         vfpfcnvrt@c 0051  
                      _INTCON2bits 000FF1                          copy_data0 24A4  
                  ?_fijarVelocidad 0001                        _frenarMotor 2630  
                      _enviarRS232 2534                    _configurarRS232 25EE  
                       _ANCON0bits 000F48                           __Hrparam 0000  
                       vfprintf@ap 00C8                           __Lrparam 0000  
                       vfprintf@fp 00C4                 __end_of_dirreccion 2358  
                 __size_of___fladd 030C                   __size_of___flmul 0352  
                 __size_of___fltol 00BA                   __size_of___lodiv 00CE  
                 __size_of___lomod 00AE                         ?_vfpfcnvrt 003F  
              _fijarVelocidad$1725 003F                         sprintf@fmt 00CC  
                         _cicle_90 00F5                           ___xxtofl 1BBC  
                 __size_of_isdigit 0030                   __size_of_isspace 003E  
         __end_of_configuracionADC 2630                           __ptext10 2358  
                         __ptext11 125C                           __ptext20 265C  
                         __ptext12 18B8                           __ptext21 1A68  
                         __ptext13 2106                           __ptext30 25B4  
                         __ptext22 2452                           __ptext14 1EBA  
                         __ptext31 263E                           __ptext23 2504  
                         __ptext15 2404                           __ptext32 261C  
                         __ptext24 258E                           __ptext16 2254  
                         __ptext25 2534                           __ptext17 2564  
                         __ptext26 25D4                           __ptext18 24CC  
                         __ptext27 2606                           __ptext19 21B4  
                         __ptext28 25EE                           __ptext29 264C  
                       rutina@dato 0003                   __size_of_sprintf 0052  
                    __size_of_atoi 0154                      __size_of_ctoa 004E  
                    __size_of_main 00DE                      __size_of_utoa 01B0  
           ??_configuracionInicial 0004  __size_of_configurarInterrupciones 000E  
        ?_configurarInterrupciones 0001                           _terminal 1F88  
                         int$flags 005B                           _vfprintf 2358  
                       _INTCONbits 000FF2                     _configurarTMR5 2606  
                   _configurarPWM7 25B4                           isdigit@c 0004  
            main@tiempo_anterior_1 00F2            __end_of_configurarRS232 2606  
                         intlevel2 0000                          sprintf@ap 00D4  
                         isspace@c 0004                        ??_vfpfcnvrt 0045  
                    _vfpfcnvrt$983 0054                           sprintf@f 00D6  
                         sprintf@s 00CA             __end_of_configurarPWM7 25D4  
           __end_of_configurarTMR5 261C                      ___fladd@signs 0037  
              fijarVelocidad@speed 0043                       ___fladd@aexp 0038  
                     ___fladd@bexp 0039                      terminal@F7099 0060  
