

Microchip MPLAB XC8 Assembler V2.05 build -831301201 
                                                                                               Thu Jul 04 18:10:00 2019

Microchip MPLAB XC8 C Compiler v2.05 (Free license) build 20181220022703 Og1 
     1                           	processor	18F47J53
     2                           	fnconf	rparam,??,?,0
     3                           	opt	pw 120
     4                           	opt	flic
     5                           	psect	idataCOMRAM,global,class=CODE,delta=1,noexec
     6                           	psect	idataBANK0,global,class=CODE,delta=1,noexec
     7                           	psect	smallconst,global,reloc=2,class=SMALLCONST,delta=1,noexec
     8                           	psect	cinit,global,reloc=2,class=CODE,delta=1
     9                           	psect	bssCOMRAM,global,class=COMRAM,space=1,delta=1,noexec
    10                           	psect	dataCOMRAM,global,class=COMRAM,space=1,delta=1,noexec
    11                           	psect	bssBANK0,global,class=BANK0,space=1,delta=1,lowdata,noexec
    12                           	psect	dataBANK0,global,class=BANK0,space=1,delta=1,lowdata,noexec
    13                           	psect	cstackBANK0,global,class=BANK0,space=1,delta=1,noexec
    14                           	psect	cstackCOMRAM,global,class=COMRAM,space=1,delta=1,noexec
    15                           	psect	text0,global,reloc=2,class=CODE,delta=1
    16                           	psect	text1,global,reloc=2,class=CODE,delta=1
    17                           	psect	text2,global,reloc=2,class=CODE,delta=1
    18                           	psect	text3,global,reloc=2,class=CODE,delta=1
    19                           	psect	text4,global,reloc=2,class=CODE,delta=1
    20                           	psect	text5,global,reloc=2,class=CODE,delta=1
    21                           	psect	text6,global,reloc=2,class=CODE,delta=1
    22                           	psect	text7,global,reloc=2,class=CODE,delta=1,group=1
    23                           	psect	text8,global,reloc=2,class=CODE,delta=1,group=1
    24                           	psect	text9,global,reloc=2,class=CODE,delta=1,group=1
    25                           	psect	text10,global,reloc=2,class=CODE,delta=1,group=1
    26                           	psect	text11,global,reloc=2,class=CODE,delta=1
    27                           	psect	text12,global,reloc=2,class=CODE,delta=1
    28                           	psect	text13,global,reloc=2,class=CODE,delta=1
    29                           	psect	text14,global,reloc=2,class=CODE,delta=1
    30                           	psect	text15,global,reloc=2,class=CODE,delta=1
    31                           	psect	text16,global,reloc=2,class=CODE,delta=1
    32                           	psect	text17,global,reloc=2,class=CODE,delta=1
    33                           	psect	text18,global,reloc=2,class=CODE,delta=1
    34                           	psect	text19,global,reloc=2,class=CODE,delta=1
    35                           	psect	text20,global,reloc=2,class=CODE,delta=1
    36                           	psect	text21,global,reloc=2,class=CODE,delta=1
    37                           	psect	text22,global,reloc=2,class=CODE,delta=1
    38                           	psect	text23,global,reloc=2,class=CODE,delta=1
    39                           	psect	text24,global,reloc=2,class=CODE,delta=1
    40                           	psect	text25,global,reloc=2,class=CODE,delta=1
    41                           	psect	text26,global,reloc=2,class=CODE,delta=1
    42                           	psect	text27,global,reloc=2,class=CODE,delta=1
    43                           	psect	text28,global,reloc=2,class=CODE,delta=1
    44                           	psect	text29,global,reloc=2,class=CODE,delta=1
    45                           	psect	text30,global,reloc=2,class=CODE,delta=1,group=1
    46                           	psect	text31,global,reloc=2,class=CODE,delta=1
    47                           	psect	intcode,global,reloc=2,class=CODE,delta=1
    48                           	psect	text33,global,reloc=2,class=CODE,delta=1
    49                           	psect	text34,global,reloc=2,class=CODE,delta=1
    50                           	psect	text35,global,reloc=2,class=CODE,delta=1,group=1
    51                           	psect	intsave_regs,global,class=BIGRAM,space=1,delta=1,noexec
    52                           	psect	rparam,global,class=COMRAM,space=1,delta=1,noexec
    53                           	psect	temp,global,ovrld,common,class=COMRAM,space=1,delta=1
    54  0000                     
    55                           ; Version 2.05
    56                           ; Generated 20/12/2018 GMT
    57                           ; 
    58                           ; Copyright © 2018, Microchip Technology Inc. and its subsidiaries ("Microchip")
    59                           ; All rights reserved.
    60                           ; 
    61                           ; This software is developed by Microchip Technology Inc. and its subsidiaries ("Microch
      +                          ip").
    62                           ; 
    63                           ; Redistribution and use in source and binary forms, with or without modification, are
    64                           ; permitted provided that the following conditions are met:
    65                           ; 
    66                           ;     1. Redistributions of source code must retain the above copyright notice, this lis
      +                          t of
    67                           ;        conditions and the following disclaimer.
    68                           ; 
    69                           ;     2. Redistributions in binary form must reproduce the above copyright notice, this 
      +                          list
    70                           ;        of conditions and the following disclaimer in the documentation and/or other
    71                           ;        materials provided with the distribution.
    72                           ; 
    73                           ;     3. Microchip's name may not be used to endorse or promote products derived from th
      +                          is
    74                           ;        software without specific prior written permission.
    75                           ; 
    76                           ; THIS SOFTWARE IS PROVIDED BY MICROCHIP "AS IS" AND ANY EXPRESS OR IMPLIED WARRANTIES,
    77                           ; INCLUDING, BUT NOT LIMITED TO, THE IMPLIED WARRANTIES OF MERCHANTABILITY AND FITNESS F
      +                          OR
    78                           ; PURPOSE ARE DISCLAIMED.  IN NO EVENT SHALL MICROCHIP BE LIABLE FOR ANY DIRECT, INDIREC
      +                          T,
    79                           ; INCIDENTAL, SPECIAL, EXEMPLARY, OR CONSEQUENTIAL DAMAGES (INCLUDING BUT NOT LIMITED TO
    80                           ; PROCUREMENT OF SUBSTITUTE GOODS OR SERVICES; LOSS OF USE, DATA OR PROFITS; OR BUSINESS
    81                           ; INTERRUPTION) HOWSOEVER CAUSED AND ON ANY THEORY OF LIABILITY, WHETHER IN CONTRACT, ST
      +                          RICT
    82                           ; LIABILITY, OR TORT (INCLUDING NEGLIGENCE OR OTHERWISE) ARISING IN ANY WAY OUT OF THE U
      +                          SE OF
    83                           ; THIS SOFTWARE, EVEN IF ADVISED OF THE POSSIBILITY OF SUCH DAMAGE.
    84                           ; 
    85                           ; 
    86                           ; Code-generator required, PIC18F47J53 Definitions
    87                           ; 
    88                           ; SFR Addresses
    89  0000                     
    90                           	psect	idataCOMRAM
    91  0026E4                     __pidataCOMRAM:
    92                           	opt callstack 0
    93                           
    94                           ;initializer for _tiempo_anterior_1
    95  0026E4  0041               	dw	65
    96                           
    97                           ;initializer for _TIME_MAX
    98  0026E6  03A7               	dw	935
    99                           
   100                           ;initializer for _cicle_90
   101  0026E8  01C2               	dw	450
   102                           
   103                           	psect	idataBANK0
   104  0026EA                     __pidataBANK0:
   105                           	opt callstack 0
   106                           
   107                           ;initializer for _maximun_constant
   108  0026EA  9BA6               	dw	39846
   109  0026EC  3BC4               	dw	15300
   110                           
   111                           ;initializer for _velocidad
   112  0026EE  01C2               	dw	450
   113  0000                     _RPINR16	set	3831
   114  0000                     _RPOR23	set	3799
   115  0000                     _RPINR1	set	3809
   116  0000                     _PPSCON	set	3775
   117  0000                     _T5CONbits	set	3874
   118  0000                     _CCPR7L	set	3850
   119  0000                     _TMR8	set	3869
   120  0000                     _T8CONbits	set	3867
   121  0000                     _TMR5L	set	3875
   122  0000                     _TMR5H	set	3876
   123  0000                     _T5CON	set	3874
   124  0000                     _CCPTMRS1bits	set	3921
   125  0000                     _CCP7CONbits	set	3849
   126  0000                     _ANCON1	set	3913
   127  0000                     _ANCON0	set	3912
   128  0000                     _PORTAbits	set	3968
   129  0000                     _TXREG2	set	4009
   130  0000                     _RCREG1	set	4015
   131  0000                     _TXREG1	set	4014
   132  0000                     _T2CONbits	set	4042
   133  0000                     _SPBRG2	set	4011
   134  0000                     _BAUDCON2bits	set	3964
   135  0000                     _RCSTA2	set	3996
   136  0000                     _TXSTA2	set	4008
   137  0000                     _PIE3bits	set	4003
   138  0000                     _PIR3bits	set	4004
   139  0000                     _TMR4	set	3960
   140  0000                     _T4CONbits	set	3958
   141  0000                     _PIR5bits	set	3992
   142  0000                     _PIE5bits	set	3985
   143  0000                     _PORTDbits	set	3971
   144  0000                     _TRISDbits	set	3989
   145  0000                     _PIE1bits	set	3997
   146  0000                     _PIR1bits	set	3998
   147  0000                     _SPBRG1	set	4016
   148  0000                     _BAUDCON1bits	set	3966
   149  0000                     _RCSTA1	set	4012
   150  0000                     _TXSTA1	set	4013
   151  0000                     _TRISCbits	set	3988
   152  0000                     _TMR2	set	4044
   153  0000                     _PR2	set	4043
   154  0000                     _T2CON	set	4042
   155  0000                     _INTCON3bits	set	4080
   156  0000                     _INTCON2bits	set	4081
   157  0000                     _INTCONbits	set	4082
   158  0000                     _TRISBbits	set	3987
   159  0000                     _TRISAbits	set	3986
   160  0000                     _RCREG2	set	4010
   161                           
   162                           	psect	smallconst
   163  000F00                     __psmallconst:
   164                           	opt callstack 0
   165  000F00  00                 	db	0
   166  000F01                     STR_4:
   167  000F01  50                 	db	80	;'P'
   168  000F02  6F                 	db	111	;'o'
   169  000F03  72                 	db	114	;'r'
   170  000F04  20                 	db	32
   171  000F05  46                 	db	70	;'F'
   172  000F06  61                 	db	97	;'a'
   173  000F07  76                 	db	118	;'v'
   174  000F08  6F                 	db	111	;'o'
   175  000F09  72                 	db	114	;'r'
   176  000F0A  2C                 	db	44
   177  000F0B  20                 	db	32
   178  000F0C  63                 	db	99	;'c'
   179  000F0D  61                 	db	97	;'a'
   180  000F0E  6C                 	db	108	;'l'
   181  000F0F  69                 	db	105	;'i'
   182  000F10  62                 	db	98	;'b'
   183  000F11  72                 	db	114	;'r'
   184  000F12  65                 	db	101	;'e'
   185  000F13  20                 	db	32
   186  000F14  65                 	db	101	;'e'
   187  000F15  6C                 	db	108	;'l'
   188  000F16  20                 	db	32
   189  000F17  73                 	db	115	;'s'
   190  000F18  65                 	db	101	;'e'
   191  000F19  6E                 	db	110	;'n'
   192  000F1A  73                 	db	115	;'s'
   193  000F1B  6F                 	db	111	;'o'
   194  000F1C  72                 	db	114	;'r'
   195  000F1D  00                 	db	0
   196  000F1E                     STR_9:
   197  000F1E  4D                 	db	77	;'M'
   198  000F1F  4F                 	db	79	;'O'
   199  000F20  44                 	db	68	;'D'
   200  000F21  4F                 	db	79	;'O'
   201  000F22  20                 	db	32
   202  000F23  50                 	db	80	;'P'
   203  000F24  52                 	db	82	;'R'
   204  000F25  4F                 	db	79	;'O'
   205  000F26  47                 	db	71	;'G'
   206  000F27  52                 	db	82	;'R'
   207  000F28  41                 	db	65	;'A'
   208  000F29  4D                 	db	77	;'M'
   209  000F2A  41                 	db	65	;'A'
   210  000F2B  44                 	db	68	;'D'
   211  000F2C  4F                 	db	79	;'O'
   212  000F2D  52                 	db	82	;'R'
   213  000F2E  20                 	db	32
   214  000F2F  41                 	db	65	;'A'
   215  000F30  43                 	db	67	;'C'
   216  000F31  54                 	db	84	;'T'
   217  000F32  49                 	db	73	;'I'
   218  000F33  56                 	db	86	;'V'
   219  000F34  41                 	db	65	;'A'
   220  000F35  44                 	db	68	;'D'
   221  000F36  4F                 	db	79	;'O'
   222  000F37  21                 	db	33
   223  000F38  00                 	db	0
   224  000F39                     STR_10:
   225  000F39  52                 	db	82	;'R'
   226  000F3A  45                 	db	69	;'E'
   227  000F3B  4E                 	db	78	;'N'
   228  000F3C  44                 	db	68	;'D'
   229  000F3D  49                 	db	73	;'I'
   230  000F3E  4D                 	db	77	;'M'
   231  000F3F  4F                 	db	79	;'O'
   232  000F40  53                 	db	83	;'S'
   233  000F41  20                 	db	32
   234  000F42  43                 	db	67	;'C'
   235  000F43  41                 	db	65	;'A'
   236  000F44  4D                 	db	77	;'M'
   237  000F45  50                 	db	80	;'P'
   238  000F46  4F                 	db	79	;'O'
   239  000F47  53                 	db	83	;'S'
   240  000F48  20                 	db	32
   241  000F49  50                 	db	80	;'P'
   242  000F4A  41                 	db	65	;'A'
   243  000F4B  50                 	db	80	;'P'
   244  000F4C  45                 	db	69	;'E'
   245  000F4D  45                 	db	69	;'E'
   246  000F4E  45                 	db	69	;'E'
   247  000F4F  45                 	db	69	;'E'
   248  000F50  21                 	db	33
   249  000F51  00                 	db	0
   250  000F52                     STR_2:
   251  000F52  4D                 	db	77	;'M'
   252  000F53  69                 	db	105	;'i'
   253  000F54  20                 	db	32
   254  000F55  6E                 	db	110	;'n'
   255  000F56  6F                 	db	111	;'o'
   256  000F57  6D                 	db	109	;'m'
   257  000F58  62                 	db	98	;'b'
   258  000F59  72                 	db	114	;'r'
   259  000F5A  65                 	db	101	;'e'
   260  000F5B  20                 	db	32
   261  000F5C  65                 	db	101	;'e'
   262  000F5D  73                 	db	115	;'s'
   263  000F5E  20                 	db	32
   264  000F5F  43                 	db	67	;'C'
   265  000F60  68                 	db	104	;'h'
   266  000F61  61                 	db	97	;'a'
   267  000F62  72                 	db	114	;'r'
   268  000F63  6D                 	db	109	;'m'
   269  000F64  61                 	db	97	;'a'
   270  000F65  6E                 	db	110	;'n'
   271  000F66  64                 	db	100	;'d'
   272  000F67  65                 	db	101	;'e'
   273  000F68  72                 	db	114	;'r'
   274  000F69  00                 	db	0
   275  000F6A                     STR_6:
   276  000F6A  45                 	db	69	;'E'
   277  000F6B  53                 	db	83	;'S'
   278  000F6C  43                 	db	67	;'C'
   279  000F6D  41                 	db	65	;'A'
   280  000F6E  50                 	db	80	;'P'
   281  000F6F  41                 	db	65	;'A'
   282  000F70  4E                 	db	78	;'N'
   283  000F71  44                 	db	68	;'D'
   284  000F72  4F                 	db	79	;'O'
   285  000F73  20                 	db	32
   286  000F74  44                 	db	68	;'D'
   287  000F75  45                 	db	69	;'E'
   288  000F76  4C                 	db	76	;'L'
   289  000F77  20                 	db	32
   290  000F78  46                 	db	70	;'F'
   291  000F79  55                 	db	85	;'U'
   292  000F7A  45                 	db	69	;'E'
   293  000F7B  47                 	db	71	;'G'
   294  000F7C  4F                 	db	79	;'O'
   295  000F7D  2E                 	db	46
   296  000F7E  2E                 	db	46
   297  000F7F  2E                 	db	46
   298  000F80  00                 	db	0
   299  000F81                     STR_8:
   300  000F81  56                 	db	86	;'V'
   301  000F82  65                 	db	101	;'e'
   302  000F83  68                 	db	104	;'h'
   303  000F84  69                 	db	105	;'i'
   304  000F85  63                 	db	99	;'c'
   305  000F86  75                 	db	117	;'u'
   306  000F87  6C                 	db	108	;'l'
   307  000F88  6F                 	db	111	;'o'
   308  000F89  20                 	db	32
   309  000F8A  65                 	db	101	;'e'
   310  000F8B  6E                 	db	110	;'n'
   311  000F8C  20                 	db	32
   312  000F8D  72                 	db	114	;'r'
   313  000F8E  65                 	db	101	;'e'
   314  000F8F  76                 	db	118	;'v'
   315  000F90  65                 	db	101	;'e'
   316  000F91  72                 	db	114	;'r'
   317  000F92  73                 	db	115	;'s'
   318  000F93  61                 	db	97	;'a'
   319  000F94  21                 	db	33
   320  000F95  00                 	db	0
   321  000F96                     STR_3:
   322  000F96  4E                 	db	78	;'N'
   323  000F97  6F                 	db	111	;'o'
   324  000F98  20                 	db	32
   325  000F99  6D                 	db	109	;'m'
   326  000F9A  65                 	db	101	;'e'
   327  000F9B  20                 	db	32
   328  000F9C  64                 	db	100	;'d'
   329  000F9D  65                 	db	101	;'e'
   330  000F9E  73                 	db	115	;'s'
   331  000F9F  74                 	db	116	;'t'
   332  000FA0  72                 	db	114	;'r'
   333  000FA1  75                 	db	117	;'u'
   334  000FA2  79                 	db	121	;'y'
   335  000FA3  61                 	db	97	;'a'
   336  000FA4  73                 	db	115	;'s'
   337  000FA5  21                 	db	33
   338  000FA6  20                 	db	32
   339  000FA7  3A                 	db	58	;':'
   340  000FA8  27                 	db	39
   341  000FA9  28                 	db	40
   342  000FAA  00                 	db	0
   343  000FAB                     STR_7:
   344  000FAB  4D                 	db	77	;'M'
   345  000FAC  6F                 	db	111	;'o'
   346  000FAD  74                 	db	116	;'t'
   347  000FAE  6F                 	db	111	;'o'
   348  000FAF  72                 	db	114	;'r'
   349  000FB0  65                 	db	101	;'e'
   350  000FB1  73                 	db	115	;'s'
   351  000FB2  20                 	db	32
   352  000FB3  65                 	db	101	;'e'
   353  000FB4  6E                 	db	110	;'n'
   354  000FB5  63                 	db	99	;'c'
   355  000FB6  65                 	db	101	;'e'
   356  000FB7  6E                 	db	110	;'n'
   357  000FB8  64                 	db	100	;'d'
   358  000FB9  69                 	db	105	;'i'
   359  000FBA  64                 	db	100	;'d'
   360  000FBB  6F                 	db	111	;'o'
   361  000FBC  73                 	db	115	;'s'
   362  000FBD  21                 	db	33
   363  000FBE  00                 	db	0
   364  000FBF                     STR_5:
   365  000FBF  41                 	db	65	;'A'
   366  000FC0  75                 	db	117	;'u'
   367  000FC1  74                 	db	116	;'t'
   368  000FC2  6F                 	db	111	;'o'
   369  000FC3  20                 	db	32
   370  000FC4  66                 	db	102	;'f'
   371  000FC5  72                 	db	114	;'r'
   372  000FC6  65                 	db	101	;'e'
   373  000FC7  6E                 	db	110	;'n'
   374  000FC8  61                 	db	97	;'a'
   375  000FC9  64                 	db	100	;'d'
   376  000FCA  6F                 	db	111	;'o'
   377  000FCB  21                 	db	33
   378  000FCC  00                 	db	0
   379  000FCD                     STR_1:
   380  000FCD  48                 	db	72	;'H'
   381  000FCE  4F                 	db	79	;'O'
   382  000FCF  4C                 	db	76	;'L'
   383  000FD0  41                 	db	65	;'A'
   384  000FD1  21                 	db	33
   385  000FD2  2E                 	db	46
   386  000FD3  2E                 	db	46
   387  000FD4  2E                 	db	46
   388  000FD5  00                 	db	0
   389  000FD6                     STR_11:
   390  000FD6  46                 	db	70	;'F'
   391  000FD7  55                 	db	85	;'U'
   392  000FD8  45                 	db	69	;'E'
   393  000FD9  47                 	db	71	;'G'
   394  000FDA  4F                 	db	79	;'O'
   395  000FDB  21                 	db	33
   396  000FDC  00                 	db	0
   397                           
   398                           ; #config settings
   399  000FDD  00                 	db	0	; dummy byte at the end
   400  0000                     
   401                           	psect	cinit
   402  002406                     __pcinit:
   403                           	opt callstack 0
   404  002406                     start_initialization:
   405                           	opt callstack 0
   406  002406                     __initialization:
   407                           	opt callstack 0
   408                           
   409                           ; Initialize objects allocated to BANK0 (6 bytes)
   410                           ; load TBLPTR registers with __pidataBANK0
   411  002406  0EEA               	movlw	low __pidataBANK0
   412  002408  6EF6               	movwf	tblptrl,c
   413  00240A  0E26               	movlw	high __pidataBANK0
   414  00240C  6EF7               	movwf	tblptrh,c
   415  00240E  0E00               	movlw	low (__pidataBANK0 shr (0+16))
   416  002410  6EF8               	movwf	tblptru,c
   417  002412  EE00  F0DB         	lfsr	0,__pdataBANK0
   418  002416  EE10 F006          	lfsr	1,6
   419  00241A                     copy_data0:
   420  00241A  0009               	tblrd		*+
   421  00241C  CFF5 FFEE          	movff	tablat,postinc0
   422  002420  50E5               	movf	postdec1,w,c
   423  002422  50E1               	movf	fsr1l,w,c
   424  002424  E1FA               	bnz	copy_data0
   425                           
   426                           ; Initialize objects allocated to COMRAM (6 bytes)
   427                           ; load TBLPTR registers with __pidataCOMRAM
   428  002426  0EE4               	movlw	low __pidataCOMRAM
   429  002428  6EF6               	movwf	tblptrl,c
   430  00242A  0E26               	movlw	high __pidataCOMRAM
   431  00242C  6EF7               	movwf	tblptrh,c
   432  00242E  0E00               	movlw	low (__pidataCOMRAM shr (0+16))
   433  002430  6EF8               	movwf	tblptru,c
   434  002432  EE00  F04C         	lfsr	0,__pdataCOMRAM
   435  002436  EE10 F006          	lfsr	1,6
   436  00243A                     copy_data1:
   437  00243A  0009               	tblrd		*+
   438  00243C  CFF5 FFEE          	movff	tablat,postinc0
   439  002440  50E5               	movf	postdec1,w,c
   440  002442  50E1               	movf	fsr1l,w,c
   441  002444  E1FA               	bnz	copy_data1
   442                           
   443                           ; Clear objects allocated to BANK0 (26 bytes)
   444  002446  EE00  F0C1         	lfsr	0,__pbssBANK0
   445  00244A  0E1A               	movlw	26
   446  00244C                     clear_0:
   447  00244C  6AEE               	clrf	postinc0,c
   448  00244E  06E8               	decf	wreg,f,c
   449  002450  E1FD               	bnz	clear_0
   450                           
   451                           ; Clear objects allocated to COMRAM (34 bytes)
   452  002452  EE00  F02A         	lfsr	0,__pbssCOMRAM
   453  002456  0E22               	movlw	34
   454  002458                     clear_1:
   455  002458  6AEE               	clrf	postinc0,c
   456  00245A  06E8               	decf	wreg,f,c
   457  00245C  E1FD               	bnz	clear_1
   458  00245E                     end_of_initialization:
   459                           	opt callstack 0
   460  00245E                     __end_of__initialization:
   461                           	opt callstack 0
   462  00245E  9052               	bcf	int$flags,0,c	;clear compiler interrupt flag (level 1)
   463  002460  9252               	bcf	int$flags,1,c	;clear compiler interrupt flag (level 2)
   464  002462  0100               	movlb	0
   465  002464  EFA6  F00C         	goto	_main	;jump to C main() function
   466                           
   467                           	psect	bssCOMRAM
   468  00002A                     __pbssCOMRAM:
   469                           	opt callstack 0
   470  00002A                     _TIME_FUEGO:
   471                           	opt callstack 0
   472  00002A                     	ds	4
   473  00002E                     _fuego_interrupcion:
   474                           	opt callstack 0
   475  00002E                     	ds	4
   476  000032                     _distancia:
   477                           	opt callstack 0
   478  000032                     	ds	4
   479  000036                     _contador_distancia:
   480                           	opt callstack 0
   481  000036                     	ds	2
   482  000038                     _contador_timer_5:
   483                           	opt callstack 0
   484  000038                     	ds	2
   485  00003A                     _parar:
   486                           	opt callstack 0
   487  00003A                     	ds	2
   488  00003C                     _estado:
   489                           	opt callstack 0
   490  00003C                     	ds	1
   491  00003D                     _estadoFuego:
   492                           	opt callstack 0
   493  00003D                     	ds	1
   494  00003E                     _contador_datos:
   495                           	opt callstack 0
   496  00003E                     	ds	1
   497  00003F                     _servo_dirreccion:
   498                           	opt callstack 0
   499  00003F                     	ds	1
   500  000040                     _indicador:
   501                           	opt callstack 0
   502  000040                     	ds	1
   503  000041                     _motor:
   504                           	opt callstack 0
   505  000041                     	ds	1
   506  000042                     _datos:
   507                           	opt callstack 0
   508  000042                     	ds	10
   509                           
   510                           	psect	dataCOMRAM
   511  00004C                     __pdataCOMRAM:
   512                           	opt callstack 0
   513  00004C                     _tiempo_anterior_1:
   514                           	opt callstack 0
   515  00004C                     	ds	2
   516  00004E                     _TIME_MAX:
   517                           	opt callstack 0
   518  00004E                     	ds	2
   519  000050                     _cicle_90:
   520                           	opt callstack 0
   521  000050                     	ds	2
   522                           
   523                           	psect	bssBANK0
   524  0000C1                     __pbssBANK0:
   525                           	opt callstack 0
   526  0000C1                     	ds	20
   527  0000D5                     _cambiar_estado_fuego:
   528                           	opt callstack 0
   529  0000D5                     	ds	1
   530  0000D6                     _bandera_distancia:
   531                           	opt callstack 0
   532  0000D6                     	ds	1
   533  0000D7                     _obstaculo:
   534                           	opt callstack 0
   535  0000D7                     	ds	1
   536  0000D8                     _bandera_servo:
   537                           	opt callstack 0
   538  0000D8                     	ds	1
   539  0000D9                     _bandera:
   540                           	opt callstack 0
   541  0000D9                     	ds	1
   542  0000DA                     _bandera_fuego:
   543                           	opt callstack 0
   544  0000DA                     	ds	1
   545                           
   546                           	psect	dataBANK0
   547  0000DB                     __pdataBANK0:
   548                           	opt callstack 0
   549  0000DB                     _maximun_constant:
   550                           	opt callstack 0
   551  0000DB                     	ds	4
   552  0000DF                     _velocidad:
   553                           	opt callstack 0
   554  0000DF                     	ds	2
   555                           
   556                           	psect	cstackBANK0
   557  000060                     __pcstackBANK0:
   558                           	opt callstack 0
   559  000060                     ??_definirVelocidad:
   560  000060                     ??_rutinaArranque:
   561  000060                     ??_estadosVelocidad:
   562  000060                     ?_length:
   563                           	opt callstack 0
   564  000060                     ?_estadoDirreccion:
   565                           	opt callstack 0
   566  000060                     ?___xxtofl:
   567                           	opt callstack 0
   568  000060                     length@text:
   569                           	opt callstack 0
   570  000060                     dirreccion@degree:
   571                           	opt callstack 0
   572  000060                     ___flge@ff1:
   573                           	opt callstack 0
   574  000060                     ___xxtofl@val:
   575                           	opt callstack 0
   576                           
   577                           ; 4 bytes @ 0x0
   578  000060                     	ds	2
   579  000062                     ??_length:
   580  000062                     ??_estadoDirreccion:
   581  000062                     ??_dirreccion:
   582  000062                     estadosVelocidad@estado:
   583                           	opt callstack 0
   584                           
   585                           ; 1 bytes @ 0x2
   586  000062                     	ds	2
   587  000064                     ??___xxtofl:
   588  000064                     dirreccion@tiempo_1:
   589                           	opt callstack 0
   590  000064                     length@longitud:
   591                           	opt callstack 0
   592  000064                     estadoDirreccion@angulo:
   593                           	opt callstack 0
   594  000064                     ___flge@ff2:
   595                           	opt callstack 0
   596                           
   597                           ; 4 bytes @ 0x4
   598  000064                     	ds	2
   599  000066                     length@dato:
   600                           	opt callstack 0
   601  000066                     estadoDirreccion@valor:
   602                           	opt callstack 0
   603                           
   604                           ; 1 bytes @ 0x6
   605  000066                     	ds	1
   606  000067                     ??_cambiarEstadoFuego:
   607  000067                     length@i:
   608                           	opt callstack 0
   609                           
   610                           ; 1 bytes @ 0x7
   611  000067                     	ds	1
   612  000068                     ??___flge:
   613  000068                     ___xxtofl@sign:
   614                           	opt callstack 0
   615  000068                     enviarRS232@valores:
   616                           	opt callstack 0
   617                           
   618                           ; 2 bytes @ 0x8
   619  000068                     	ds	1
   620  000069                     ___xxtofl@exp:
   621                           	opt callstack 0
   622  000069                     cambiarEstadoFuego@angulo:
   623                           	opt callstack 0
   624                           
   625                           ; 2 bytes @ 0x9
   626  000069                     	ds	1
   627  00006A                     ??_enviarRS232:
   628  00006A                     ___xxtofl@arg:
   629                           	opt callstack 0
   630                           
   631                           ; 4 bytes @ 0xA
   632  00006A                     	ds	2
   633  00006C                     enviarRS232@longitud_texto:
   634                           	opt callstack 0
   635                           
   636                           ; 2 bytes @ 0xC
   637  00006C                     	ds	2
   638  00006E                     ?___flmul:
   639                           	opt callstack 0
   640  00006E                     enviarRS232@i:
   641                           	opt callstack 0
   642  00006E                     ___flmul@b:
   643                           	opt callstack 0
   644                           
   645                           ; 4 bytes @ 0xE
   646  00006E                     	ds	4
   647  000072                     ___flmul@a:
   648                           	opt callstack 0
   649                           
   650                           ; 4 bytes @ 0x12
   651  000072                     	ds	4
   652  000076                     ??___flmul:
   653                           
   654                           ; 1 bytes @ 0x16
   655  000076                     	ds	4
   656  00007A                     ___flmul@sign:
   657                           	opt callstack 0
   658                           
   659                           ; 1 bytes @ 0x1A
   660  00007A                     	ds	1
   661  00007B                     ___flmul@aexp:
   662                           	opt callstack 0
   663                           
   664                           ; 1 bytes @ 0x1B
   665  00007B                     	ds	1
   666  00007C                     ___flmul@grs:
   667                           	opt callstack 0
   668                           
   669                           ; 4 bytes @ 0x1C
   670  00007C                     	ds	4
   671  000080                     ___flmul@bexp:
   672                           	opt callstack 0
   673                           
   674                           ; 1 bytes @ 0x20
   675  000080                     	ds	1
   676  000081                     ___flmul@prod:
   677                           	opt callstack 0
   678                           
   679                           ; 4 bytes @ 0x21
   680  000081                     	ds	4
   681  000085                     ___flmul@temp:
   682                           	opt callstack 0
   683                           
   684                           ; 2 bytes @ 0x25
   685  000085                     	ds	2
   686  000087                     ?___fladd:
   687                           	opt callstack 0
   688  000087                     ?___fltol:
   689                           	opt callstack 0
   690  000087                     ___fltol@f1:
   691                           	opt callstack 0
   692  000087                     ___fladd@b:
   693                           	opt callstack 0
   694                           
   695                           ; 4 bytes @ 0x27
   696  000087                     	ds	4
   697  00008B                     ??___fltol:
   698  00008B                     ___fladd@a:
   699                           	opt callstack 0
   700                           
   701                           ; 4 bytes @ 0x2B
   702  00008B                     	ds	4
   703  00008F                     ??___fladd:
   704  00008F                     ___fltol@sign1:
   705                           	opt callstack 0
   706                           
   707                           ; 1 bytes @ 0x2F
   708  00008F                     	ds	1
   709  000090                     ___fltol@exp1:
   710                           	opt callstack 0
   711                           
   712                           ; 1 bytes @ 0x30
   713  000090                     	ds	3
   714  000093                     ___fladd@signs:
   715                           	opt callstack 0
   716                           
   717                           ; 1 bytes @ 0x33
   718  000093                     	ds	1
   719  000094                     ___fladd@aexp:
   720                           	opt callstack 0
   721                           
   722                           ; 1 bytes @ 0x34
   723  000094                     	ds	1
   724  000095                     ___fladd@bexp:
   725                           	opt callstack 0
   726                           
   727                           ; 1 bytes @ 0x35
   728  000095                     	ds	1
   729  000096                     ___fladd@grs:
   730                           	opt callstack 0
   731                           
   732                           ; 1 bytes @ 0x36
   733  000096                     	ds	1
   734  000097                     fijarVelocidad@DC:
   735                           	opt callstack 0
   736                           
   737                           ; 4 bytes @ 0x37
   738  000097                     	ds	4
   739  00009B                     _fijarVelocidad$1921:
   740                           	opt callstack 0
   741                           
   742                           ; 4 bytes @ 0x3B
   743  00009B                     	ds	4
   744  00009F                     fijarVelocidad@speed:
   745                           	opt callstack 0
   746                           
   747                           ; 1 bytes @ 0x3F
   748  00009F                     	ds	1
   749  0000A0                     ??_rutinaEscape:
   750  0000A0                     terminal@comand:
   751                           	opt callstack 0
   752                           
   753                           ; 2 bytes @ 0x40
   754  0000A0                     	ds	2
   755  0000A2                     ??_terminal:
   756  0000A2                     rutinaEscape@type:
   757                           	opt callstack 0
   758                           
   759                           ; 1 bytes @ 0x42
   760  0000A2                     	ds	5
   761  0000A7                     terminal@texto:
   762                           	opt callstack 0
   763                           
   764                           ; 20 bytes @ 0x47
   765  0000A7                     	ds	20
   766  0000BB                     terminal@medicion:
   767                           	opt callstack 0
   768                           
   769                           ; 2 bytes @ 0x5B
   770  0000BB                     	ds	2
   771  0000BD                     terminal@degree:
   772                           	opt callstack 0
   773                           
   774                           ; 2 bytes @ 0x5D
   775  0000BD                     	ds	2
   776  0000BF                     ??_main:
   777                           
   778                           ; 1 bytes @ 0x5F
   779  0000BF                     	ds	2
   780                           
   781                           	psect	cstackCOMRAM
   782  000001                     __pcstackCOMRAM:
   783                           	opt callstack 0
   784  000001                     ?___awdiv:
   785                           	opt callstack 0
   786  000001                     ___awdiv@dividend:
   787                           	opt callstack 0
   788                           
   789                           ; 2 bytes @ 0x0
   790  000001                     	ds	2
   791  000003                     ___awdiv@divisor:
   792                           	opt callstack 0
   793                           
   794                           ; 2 bytes @ 0x2
   795  000003                     	ds	2
   796  000005                     ___awdiv@counter:
   797                           	opt callstack 0
   798                           
   799                           ; 1 bytes @ 0x4
   800  000005                     	ds	1
   801  000006                     ___awdiv@sign:
   802                           	opt callstack 0
   803                           
   804                           ; 1 bytes @ 0x5
   805  000006                     	ds	1
   806  000007                     ___awdiv@quotient:
   807                           	opt callstack 0
   808                           
   809                           ; 2 bytes @ 0x6
   810  000007                     	ds	2
   811  000009                     ?i2___xxtofl:
   812                           	opt callstack 0
   813  000009                     i2___xxtofl@val:
   814                           	opt callstack 0
   815                           
   816                           ; 4 bytes @ 0x8
   817  000009                     	ds	4
   818  00000D                     ??i2___xxtofl:
   819                           
   820                           ; 1 bytes @ 0xC
   821  00000D                     	ds	4
   822  000011                     i2___xxtofl@sign:
   823                           	opt callstack 0
   824                           
   825                           ; 1 bytes @ 0x10
   826  000011                     	ds	1
   827  000012                     i2___xxtofl@exp:
   828                           	opt callstack 0
   829                           
   830                           ; 1 bytes @ 0x11
   831  000012                     	ds	1
   832  000013                     i2___xxtofl@arg:
   833                           	opt callstack 0
   834                           
   835                           ; 4 bytes @ 0x12
   836  000013                     	ds	4
   837  000017                     ?i2___fladd:
   838                           	opt callstack 0
   839  000017                     i2___fladd@b:
   840                           	opt callstack 0
   841                           
   842                           ; 4 bytes @ 0x16
   843  000017                     	ds	4
   844  00001B                     i2___fladd@a:
   845                           	opt callstack 0
   846                           
   847                           ; 4 bytes @ 0x1A
   848  00001B                     	ds	4
   849  00001F                     ??i2___fladd:
   850                           
   851                           ; 1 bytes @ 0x1E
   852  00001F                     	ds	4
   853  000023                     i2___fladd@signs:
   854                           	opt callstack 0
   855                           
   856                           ; 1 bytes @ 0x22
   857  000023                     	ds	1
   858  000024                     i2___fladd@aexp:
   859                           	opt callstack 0
   860                           
   861                           ; 1 bytes @ 0x23
   862  000024                     	ds	1
   863  000025                     i2___fladd@bexp:
   864                           	opt callstack 0
   865                           
   866                           ; 1 bytes @ 0x24
   867  000025                     	ds	1
   868  000026                     i2___fladd@grs:
   869                           	opt callstack 0
   870                           
   871                           ; 1 bytes @ 0x25
   872  000026                     	ds	1
   873  000027                     ??_rutina:
   874                           
   875                           ; 1 bytes @ 0x26
   876  000027                     	ds	2
   877  000029                     rutina@dato:
   878                           	opt callstack 0
   879                           
   880                           ; 1 bytes @ 0x28
   881  000029                     	ds	1
   882                           
   883 ;;
   884 ;;Main: autosize = 0, tempsize = 2, incstack = 0, save=0
   885 ;;
   886 ;; *************** function _main *****************
   887 ;; Defined at:
   888 ;;		line 125 in file "auto.c"
   889 ;; Parameters:    Size  Location     Type
   890 ;;		None
   891 ;; Auto vars:     Size  Location     Type
   892 ;;		None
   893 ;; Return value:  Size  Location     Type
   894 ;;                  1    wreg      void 
   895 ;; Registers used:
   896 ;;		wreg, fsr2l, fsr2h, status,2, status,0, tblptrl, tblptrh, tblptru, prodl, prodh, cstack
   897 ;; Tracked objects:
   898 ;;		On entry : 0/0
   899 ;;		On exit  : 0/0
   900 ;;		Unchanged: 0/0
   901 ;; Data sizes:     COMRAM   BANK0   BANK1   BANK2   BANK3   BANK4   BANK5   BANK6   BANK7   BANK8   BANK9  BANK10  BANK1
      +1  BANK12  BANK13  BANK14
   902 ;;      Params:         0       0       0       0       0       0       0       0       0       0       0       0       
      +0       0       0       0
   903 ;;      Locals:         0       0       0       0       0       0       0       0       0       0       0       0       
      +0       0       0       0
   904 ;;      Temps:          0       2       0       0       0       0       0       0       0       0       0       0       
      +0       0       0       0
   905 ;;      Totals:         0       2       0       0       0       0       0       0       0       0       0       0       
      +0       0       0       0
   906 ;;Total ram usage:        2 bytes
   907 ;; Hardware stack levels required when called:    5
   908 ;; This function calls:
   909 ;;		_PWMServo
   910 ;;		___flge
   911 ;;		_cambiarEstadoFuego
   912 ;;		_configuracionInicial
   913 ;;		_enviarRS232
   914 ;;		_frenarMotor
   915 ;;		_rutinaEscape
   916 ;;		_terminal
   917 ;; This function is called by:
   918 ;;		Startup code after reset
   919 ;; This function uses a non-reentrant model
   920 ;;
   921                           
   922                           	psect	text0
   923  00194C                     __ptext0:
   924                           	opt callstack 0
   925  00194C                     _main:
   926                           	opt callstack 26
   927                           
   928                           ;auto.c: 126:     configuracionInicial();
   929                           
   930                           ;incstack = 0
   931  00194C  ECDF  F012         	call	_configuracionInicial	;wreg free
   932                           
   933                           ;auto.c: 127:     enviarRS232("HOLA!...");
   934  001950  0ECD               	movlw	low STR_1
   935  001952  0100               	movlb	0	; () banked
   936  001954  6F68               	movwf	enviarRS232@valores& (0+255),b
   937  001956  0E0F               	movlw	high STR_1
   938  001958  6F69               	movwf	(enviarRS232@valores+1)& (0+255),b
   939  00195A  ECD1  F011         	call	_enviarRS232	;wreg free
   940                           
   941                           ;auto.c: 128:     _delay((unsigned long)((1800)*(48000000/4000.0)));
   942  00195E  0E6E               	movlw	110
   943  001960  0100               	movlb	0	; () banked
   944  001962  6FC0               	movwf	(??_main+1)& (0+255),b
   945  001964  0E94               	movlw	148
   946  001966  6FBF               	movwf	??_main& (0+255),b
   947  001968  0EA7               	movlw	167
   948  00196A                     u3907:
   949  00196A  2EE8               	decfsz	wreg,f,c
   950  00196C  D7FE               	bra	u3907
   951  00196E  2FBF               	decfsz	??_main& (0+255),f,b
   952  001970  D7FC               	bra	u3907
   953  001972  2FC0               	decfsz	(??_main+1)& (0+255),f,b
   954  001974  D7FA               	bra	u3907
   955  001976  D000               	nop2	
   956                           
   957                           ;auto.c: 129:     enviarRS232("Mi nombre es Charmander");
   958  001978  0E52               	movlw	low STR_2
   959  00197A  0100               	movlb	0	; () banked
   960  00197C  6F68               	movwf	enviarRS232@valores& (0+255),b
   961  00197E  0E0F               	movlw	high STR_2
   962  001980  6F69               	movwf	(enviarRS232@valores+1)& (0+255),b
   963  001982  ECD1  F011         	call	_enviarRS232	;wreg free
   964                           
   965                           ;auto.c: 130:     _delay((unsigned long)((1800)*(48000000/4000.0)));
   966  001986  0E6E               	movlw	110
   967  001988  0100               	movlb	0	; () banked
   968  00198A  6FC0               	movwf	(??_main+1)& (0+255),b
   969  00198C  0E94               	movlw	148
   970  00198E  6FBF               	movwf	??_main& (0+255),b
   971  001990  0EA7               	movlw	167
   972  001992                     u3917:
   973  001992  2EE8               	decfsz	wreg,f,c
   974  001994  D7FE               	bra	u3917
   975  001996  2FBF               	decfsz	??_main& (0+255),f,b
   976  001998  D7FC               	bra	u3917
   977  00199A  2FC0               	decfsz	(??_main+1)& (0+255),f,b
   978  00199C  D7FA               	bra	u3917
   979  00199E  D000               	nop2	
   980                           
   981                           ;auto.c: 131:     enviarRS232("No me destruyas! :'(");
   982  0019A0  0E96               	movlw	low STR_3
   983  0019A2  0100               	movlb	0	; () banked
   984  0019A4  6F68               	movwf	enviarRS232@valores& (0+255),b
   985  0019A6  0E0F               	movlw	high STR_3
   986  0019A8  6F69               	movwf	(enviarRS232@valores+1)& (0+255),b
   987  0019AA  ECD1  F011         	call	_enviarRS232	;wreg free
   988                           
   989                           ;auto.c: 132:     _delay((unsigned long)((1500)*(48000000/4000.0)));
   990  0019AE  0E5C               	movlw	92
   991  0019B0  0100               	movlb	0	; () banked
   992  0019B2  6FC0               	movwf	(??_main+1)& (0+255),b
   993  0019B4  0E51               	movlw	81
   994  0019B6  6FBF               	movwf	??_main& (0+255),b
   995  0019B8  0E60               	movlw	96
   996  0019BA                     u3927:
   997  0019BA  2EE8               	decfsz	wreg,f,c
   998  0019BC  D7FE               	bra	u3927
   999  0019BE  2FBF               	decfsz	??_main& (0+255),f,b
  1000  0019C0  D7FC               	bra	u3927
  1001  0019C2  2FC0               	decfsz	(??_main+1)& (0+255),f,b
  1002  0019C4  D7FA               	bra	u3927
  1003  0019C6  F000               	nop	
  1004                           
  1005                           ;auto.c: 133:     enviarRS232("Por Favor, calibre el sensor");
  1006  0019C8  0E01               	movlw	low STR_4
  1007  0019CA  0100               	movlb	0	; () banked
  1008  0019CC  6F68               	movwf	enviarRS232@valores& (0+255),b
  1009  0019CE  0E0F               	movlw	high STR_4
  1010  0019D0  6F69               	movwf	(enviarRS232@valores+1)& (0+255),b
  1011  0019D2  ECD1  F011         	call	_enviarRS232	;wreg free
  1012                           
  1013                           ;auto.c: 134:     T4CONbits.TMR4ON = 1;
  1014  0019D6  8476               	bsf	3958,2,c	;volatile
  1015  0019D8                     l4265:
  1016                           
  1017                           ;auto.c: 136:         if(estado == 'w'){
  1018  0019D8  0E77               	movlw	119
  1019  0019DA  183C               	xorwf	_estado,w,c
  1020  0019DC  A4D8               	btfss	status,2,c
  1021  0019DE  D04F               	goto	l4293
  1022                           
  1023                           ;auto.c: 137:             if(bandera_distancia == 1){
  1024  0019E0  0100               	movlb	0	; () banked
  1025  0019E2  05D6               	decf	_bandera_distancia& (0+255),w,b
  1026  0019E4  A4D8               	btfss	status,2,c
  1027  0019E6  D020               	goto	l4277
  1028                           
  1029                           ; BSR set to: 0
  1030                           ;auto.c: 138:                 bandera_distancia = 0;
  1031  0019E8  0E00               	movlw	0
  1032  0019EA  6FD6               	movwf	_bandera_distancia& (0+255),b
  1033                           
  1034                           ; BSR set to: 0
  1035                           ;auto.c: 139:                 if((distancia <= 22)){
  1036  0019EC  0E00               	movlw	0
  1037  0019EE  6F60               	movwf	___flge@ff1& (0+255),b
  1038  0019F0  0E00               	movlw	0
  1039  0019F2  6F61               	movwf	(___flge@ff1+1)& (0+255),b
  1040  0019F4  0EB0               	movlw	176
  1041  0019F6  6F62               	movwf	(___flge@ff1+2)& (0+255),b
  1042  0019F8  0E41               	movlw	65
  1043  0019FA  6F63               	movwf	(___flge@ff1+3)& (0+255),b
  1044  0019FC  C032  F064         	movff	_distancia,___flge@ff2
  1045  001A00  C033  F065         	movff	_distancia+1,___flge@ff2+1
  1046  001A04  C034  F066         	movff	_distancia+2,___flge@ff2+2
  1047  001A08  C035  F067         	movff	_distancia+3,___flge@ff2+3
  1048  001A0C  ECD2  F00F         	call	___flge	;wreg free
  1049  001A10  0100               	movlb	0	; () banked
  1050  001A12  A0D8               	btfss	status,0,c
  1051  001A14  D009               	goto	l4277
  1052                           
  1053                           ; BSR set to: 0
  1054                           ;auto.c: 140:                     frenarMotor();
  1055  001A16  EC48  F013         	call	_frenarMotor	;wreg free
  1056                           
  1057                           ;auto.c: 141:                     enviarRS232("Auto frenado!");
  1058  001A1A  0EBF               	movlw	low STR_5
  1059  001A1C  0100               	movlb	0	; () banked
  1060  001A1E  6F68               	movwf	enviarRS232@valores& (0+255),b
  1061  001A20  0E0F               	movlw	high STR_5
  1062  001A22  6F69               	movwf	(enviarRS232@valores+1)& (0+255),b
  1063  001A24  ECD1  F011         	call	_enviarRS232	;wreg free
  1064  001A28                     l4277:
  1065                           
  1066                           ;auto.c: 144:             if(bandera_fuego == 1){
  1067  001A28  0100               	movlb	0	; () banked
  1068  001A2A  05DA               	decf	_bandera_fuego& (0+255),w,b
  1069  001A2C  A4D8               	btfss	status,2,c
  1070  001A2E  D014               	goto	l4285
  1071                           
  1072                           ; BSR set to: 0
  1073                           ;auto.c: 145:                 bandera_fuego = 0;
  1074  001A30  0E00               	movlw	0
  1075  001A32  6FDA               	movwf	_bandera_fuego& (0+255),b
  1076                           
  1077                           ;auto.c: 146:                 fuego_interrupcion = 0;
  1078  001A34  0E00               	movlw	0
  1079  001A36  6E2E               	movwf	_fuego_interrupcion,c
  1080  001A38  0E00               	movlw	0
  1081  001A3A  6E2F               	movwf	_fuego_interrupcion+1,c
  1082  001A3C  0E00               	movlw	0
  1083  001A3E  6E30               	movwf	_fuego_interrupcion+2,c
  1084  001A40  0E00               	movlw	0
  1085  001A42  6E31               	movwf	_fuego_interrupcion+3,c
  1086                           
  1087                           ; BSR set to: 0
  1088                           ;auto.c: 147:                 rutinaEscape(1);
  1089  001A44  0E01               	movlw	1
  1090  001A46  EC63  F011         	call	_rutinaEscape
  1091                           
  1092                           ;auto.c: 148:                 enviarRS232("ESCAPANDO DEL FUEGO...");
  1093  001A4A  0E6A               	movlw	low STR_6
  1094  001A4C  0100               	movlb	0	; () banked
  1095  001A4E  6F68               	movwf	enviarRS232@valores& (0+255),b
  1096  001A50  0E0F               	movlw	high STR_6
  1097  001A52  6F69               	movwf	(enviarRS232@valores+1)& (0+255),b
  1098  001A54  ECD1  F011         	call	_enviarRS232	;wreg free
  1099  001A58                     l4285:
  1100                           
  1101                           ;auto.c: 150:             if(cambiar_estado_fuego == 1){
  1102  001A58  0100               	movlb	0	; () banked
  1103  001A5A  05D5               	decf	_cambiar_estado_fuego& (0+255),w,b
  1104  001A5C  A4D8               	btfss	status,2,c
  1105  001A5E  D00F               	goto	l4293
  1106                           
  1107                           ; BSR set to: 0
  1108                           ;auto.c: 151:                 T8CONbits.TMR8ON = 0;
  1109  001A60  010F               	movlb	15	; () banked
  1110  001A62  951B               	bcf	27,2,b	;volatile
  1111                           
  1112                           ; BSR set to: 15
  1113                           ;auto.c: 152:                 fuego_interrupcion = 0;
  1114  001A64  0E00               	movlw	0
  1115  001A66  6E2E               	movwf	_fuego_interrupcion,c
  1116  001A68  0E00               	movlw	0
  1117  001A6A  6E2F               	movwf	_fuego_interrupcion+1,c
  1118  001A6C  0E00               	movlw	0
  1119  001A6E  6E30               	movwf	_fuego_interrupcion+2,c
  1120  001A70  0E00               	movlw	0
  1121  001A72  6E31               	movwf	_fuego_interrupcion+3,c
  1122                           
  1123                           ;auto.c: 153:                 cambiar_estado_fuego = 0;
  1124  001A74  0E00               	movlw	0
  1125  001A76  0100               	movlb	0	; () banked
  1126  001A78  6FD5               	movwf	_cambiar_estado_fuego& (0+255),b
  1127                           
  1128                           ; BSR set to: 0
  1129                           ;auto.c: 154:                 cambiarEstadoFuego();
  1130  001A7A  EC9E  F011         	call	_cambiarEstadoFuego	;wreg free
  1131  001A7E                     l4293:
  1132                           
  1133                           ;auto.c: 157:         if(estado == 's'){
  1134  001A7E  0E73               	movlw	115
  1135  001A80  183C               	xorwf	_estado,w,c
  1136  001A82  A4D8               	btfss	status,2,c
  1137  001A84  D009               	goto	l4301
  1138                           
  1139                           ;auto.c: 158:             if(obstaculo == 1){
  1140  001A86  0100               	movlb	0	; () banked
  1141  001A88  05D7               	decf	_obstaculo& (0+255),w,b
  1142  001A8A  A4D8               	btfss	status,2,c
  1143  001A8C  D005               	goto	l4301
  1144                           
  1145                           ; BSR set to: 0
  1146                           ;auto.c: 159:                 obstaculo = 0;
  1147  001A8E  0E00               	movlw	0
  1148  001A90  6FD7               	movwf	_obstaculo& (0+255),b
  1149                           
  1150                           ; BSR set to: 0
  1151                           ;auto.c: 160:                 rutinaEscape(2);
  1152  001A92  0E02               	movlw	2
  1153  001A94  EC63  F011         	call	_rutinaEscape
  1154  001A98                     l4301:
  1155                           
  1156                           ;auto.c: 163:         if(bandera == 1){
  1157  001A98  0100               	movlb	0	; () banked
  1158  001A9A  05D9               	decf	_bandera& (0+255),w,b
  1159  001A9C  A4D8               	btfss	status,2,c
  1160  001A9E  D008               	goto	l4307
  1161                           
  1162                           ; BSR set to: 0
  1163                           ;auto.c: 164:             bandera = 0;
  1164  001AA0  0E00               	movlw	0
  1165  001AA2  6FD9               	movwf	_bandera& (0+255),b
  1166                           
  1167                           ; BSR set to: 0
  1168                           ;auto.c: 165:             terminal(datos);
  1169  001AA4  0E42               	movlw	low _datos
  1170  001AA6  6FA0               	movwf	terminal@comand& (0+255),b
  1171  001AA8  0E00               	movlw	high _datos
  1172  001AAA  6FA1               	movwf	(terminal@comand+1)& (0+255),b
  1173  001AAC  EC61  F00D         	call	_terminal	;wreg free
  1174  001AB0                     l4307:
  1175                           
  1176                           ;auto.c: 167:         if(bandera_servo == 1){
  1177  001AB0  0100               	movlb	0	; () banked
  1178  001AB2  05D8               	decf	_bandera_servo& (0+255),w,b
  1179  001AB4  A4D8               	btfss	status,2,c
  1180  001AB6  D790               	goto	l4265
  1181                           
  1182                           ; BSR set to: 0
  1183                           ;auto.c: 168:             bandera_servo = 0;
  1184  001AB8  0E00               	movlw	0
  1185  001ABA  6FD8               	movwf	_bandera_servo& (0+255),b
  1186                           
  1187                           ; BSR set to: 0
  1188                           ;auto.c: 169:             PWMServo();
  1189  001ABC  EC5F  F012         	call	_PWMServo	;wreg free
  1190  001AC0  D78B               	goto	l4265
  1191  001AC2                     __end_of_main:
  1192                           	opt callstack 0
  1193                           
  1194 ;; *************** function _terminal *****************
  1195 ;; Defined at:
  1196 ;;		line 187 in file "auto.c"
  1197 ;; Parameters:    Size  Location     Type
  1198 ;;  comand          2   64[BANK0 ] PTR unsigned char 
  1199 ;;		 -> datos(10), 
  1200 ;; Auto vars:     Size  Location     Type
  1201 ;;  texto          20   71[BANK0 ] unsigned char [20]
  1202 ;;  degree          2   93[BANK0 ] unsigned int 
  1203 ;;  medicion        2   91[BANK0 ] unsigned int 
  1204 ;; Return value:  Size  Location     Type
  1205 ;;                  1    wreg      void 
  1206 ;; Registers used:
  1207 ;;		wreg, fsr2l, fsr2h, status,2, status,0, tblptrl, tblptrh, tblptru, prodl, prodh, cstack
  1208 ;; Tracked objects:
  1209 ;;		On entry : 0/0
  1210 ;;		On exit  : 0/0
  1211 ;;		Unchanged: 0/0
  1212 ;; Data sizes:     COMRAM   BANK0   BANK1   BANK2   BANK3   BANK4   BANK5   BANK6   BANK7   BANK8   BANK9  BANK10  BANK1
      +1  BANK12  BANK13  BANK14
  1213 ;;      Params:         0       2       0       0       0       0       0       0       0       0       0       0       
      +0       0       0       0
  1214 ;;      Locals:         0      24       0       0       0       0       0       0       0       0       0       0       
      +0       0       0       0
  1215 ;;      Temps:          0       5       0       0       0       0       0       0       0       0       0       0       
      +0       0       0       0
  1216 ;;      Totals:         0      31       0       0       0       0       0       0       0       0       0       0       
      +0       0       0       0
  1217 ;;Total ram usage:       31 bytes
  1218 ;; Hardware stack levels used:    1
  1219 ;; Hardware stack levels required when called:    4
  1220 ;; This function calls:
  1221 ;;		_adelante
  1222 ;;		_atras
  1223 ;;		_cambiarPWM
  1224 ;;		_dirreccion
  1225 ;;		_encenderMotor
  1226 ;;		_enviarRS232
  1227 ;;		_estadoDirreccion
  1228 ;;		_estadosVelocidad
  1229 ;;		_fijarVelocidad
  1230 ;;		_frenarMotor
  1231 ;; This function is called by:
  1232 ;;		_main
  1233 ;; This function uses a non-reentrant model
  1234 ;;
  1235                           
  1236                           	psect	text1
  1237  001AC2                     __ptext1:
  1238                           	opt callstack 0
  1239  001AC2                     _terminal:
  1240                           	opt callstack 26
  1241                           
  1242                           ;auto.c: 189:     unsigned int degree;;auto.c: 190:     unsigned char texto[20] = {'\0'}
      +                          ;
  1243                           
  1244                           ;incstack = 0
  1245  001AC2  EE20  F0A7         	lfsr	2,terminal@texto
  1246  001AC6  0E13               	movlw	19
  1247  001AC8                     u3731:
  1248  001AC8  6ADE               	clrf	postinc2,c
  1249  001ACA  06E8               	decf	wreg,f,c
  1250  001ACC  E2FD               	bc	u3731
  1251                           
  1252                           ;auto.c: 191:     estado = 'c';
  1253  001ACE  0E63               	movlw	99
  1254  001AD0  6E3C               	movwf	_estado,c
  1255                           
  1256                           ;auto.c: 192:     switch (comand[0]){
  1257  001AD2  D08E               	goto	l4199
  1258  001AD4                     l4161:
  1259                           
  1260                           ; BSR set to: 0
  1261                           ;auto.c: 194:             adelante();
  1262  001AD4  EC5E  F013         	call	_adelante	;wreg free
  1263                           
  1264                           ;auto.c: 195:             encenderMotor();
  1265  001AD8  EC57  F013         	call	_encenderMotor	;wreg free
  1266                           
  1267                           ;auto.c: 196:             enviarRS232("Motores encendidos!");
  1268  001ADC  0EAB               	movlw	low STR_7
  1269  001ADE  0100               	movlb	0	; () banked
  1270  001AE0  6F68               	movwf	enviarRS232@valores& (0+255),b
  1271  001AE2  0E0F               	movlw	high STR_7
  1272  001AE4  6F69               	movwf	(enviarRS232@valores+1)& (0+255),b
  1273  001AE6  ECD1  F011         	call	_enviarRS232	;wreg free
  1274                           
  1275                           ;auto.c: 197:             estadosVelocidad(1);
  1276  001AEA  0E01               	movlw	1
  1277  001AEC  EC87  F012         	call	_estadosVelocidad
  1278                           
  1279                           ;auto.c: 198:             break;
  1280  001AF0  0012               	return	
  1281  001AF2                     l4169:
  1282                           
  1283                           ; BSR set to: 0
  1284                           ;auto.c: 200:             atras();
  1285  001AF2  EC50  F013         	call	_atras	;wreg free
  1286                           
  1287                           ;auto.c: 201:             encenderMotor();
  1288  001AF6  EC57  F013         	call	_encenderMotor	;wreg free
  1289                           
  1290                           ;auto.c: 202:             enviarRS232("Vehiculo en reversa!");
  1291  001AFA  0E81               	movlw	low STR_8
  1292  001AFC  0100               	movlb	0	; () banked
  1293  001AFE  6F68               	movwf	enviarRS232@valores& (0+255),b
  1294  001B00  0E0F               	movlw	high STR_8
  1295  001B02  6F69               	movwf	(enviarRS232@valores+1)& (0+255),b
  1296  001B04  ECD1  F011         	call	_enviarRS232	;wreg free
  1297                           
  1298                           ;auto.c: 203:             estadosVelocidad(2);
  1299  001B08  0E02               	movlw	2
  1300  001B0A  EC87  F012         	call	_estadosVelocidad
  1301                           
  1302                           ;auto.c: 204:             break;
  1303  001B0E  0012               	return	
  1304  001B10                     l4177:
  1305                           
  1306                           ; BSR set to: 0
  1307                           ;auto.c: 206:             degree = estadoDirreccion(2);
  1308  001B10  0E02               	movlw	2
  1309  001B12  EC22  F011         	call	_estadoDirreccion
  1310  001B16  C060  F0BD         	movff	?_estadoDirreccion,terminal@degree
  1311  001B1A  C061  F0BE         	movff	?_estadoDirreccion+1,terminal@degree+1
  1312                           
  1313                           ;auto.c: 207:             dirreccion(degree);
  1314  001B1E  C0BD  F060         	movff	terminal@degree,dirreccion@degree
  1315  001B22  C0BE  F061         	movff	terminal@degree+1,dirreccion@degree+1
  1316  001B26  EC99  F010         	call	_dirreccion	;wreg free
  1317                           
  1318                           ;auto.c: 208:             break;
  1319  001B2A  0012               	return	
  1320  001B2C                     l4179:
  1321                           
  1322                           ; BSR set to: 0
  1323                           ;auto.c: 210:             degree = estadoDirreccion(1);
  1324  001B2C  0E01               	movlw	1
  1325  001B2E  EC22  F011         	call	_estadoDirreccion
  1326  001B32  C060  F0BD         	movff	?_estadoDirreccion,terminal@degree
  1327  001B36  C061  F0BE         	movff	?_estadoDirreccion+1,terminal@degree+1
  1328                           
  1329                           ;auto.c: 211:             dirreccion(degree);
  1330  001B3A  C0BD  F060         	movff	terminal@degree,dirreccion@degree
  1331  001B3E  C0BE  F061         	movff	terminal@degree+1,dirreccion@degree+1
  1332  001B42  EC99  F010         	call	_dirreccion	;wreg free
  1333                           
  1334                           ;auto.c: 212:             break;
  1335  001B46  0012               	return	
  1336  001B48                     l4181:
  1337                           
  1338                           ; BSR set to: 0
  1339                           ;auto.c: 214:             estado = 'c';
  1340  001B48  0E63               	movlw	99
  1341  001B4A  6E3C               	movwf	_estado,c
  1342                           
  1343                           ; BSR set to: 0
  1344                           ;auto.c: 215:             frenarMotor();
  1345  001B4C  EC48  F013         	call	_frenarMotor	;wreg free
  1346                           
  1347                           ;auto.c: 216:             break;
  1348  001B50  0012               	return	
  1349  001B52                     l4185:
  1350                           
  1351                           ; BSR set to: 0
  1352                           ;auto.c: 218:             medicion = (comand[1] - 0x30)*100 + (comand[2] - 0x30)*10 + co
      +                          mand[3] - 0x30;
  1353  001B52  EE20 F001          	lfsr	2,1
  1354  001B56  51A0               	movf	terminal@comand& (0+255),w,b
  1355  001B58  26D9               	addwf	fsr2l,f,c
  1356  001B5A  51A1               	movf	(terminal@comand+1)& (0+255),w,b
  1357  001B5C  22DA               	addwfc	fsr2h,f,c
  1358  001B5E  50DF               	movf	indf2,w,c
  1359  001B60  6FA2               	movwf	??_terminal& (0+255),b
  1360  001B62  51A2               	movf	??_terminal& (0+255),w,b
  1361  001B64  0D64               	mullw	100
  1362  001B66  CFF3 F0A3          	movff	prodl,??_terminal+1
  1363  001B6A  CFF4 F0A4          	movff	prodh,??_terminal+2
  1364  001B6E  EE20 F002          	lfsr	2,2
  1365  001B72  51A0               	movf	terminal@comand& (0+255),w,b
  1366  001B74  26D9               	addwf	fsr2l,f,c
  1367  001B76  51A1               	movf	(terminal@comand+1)& (0+255),w,b
  1368  001B78  22DA               	addwfc	fsr2h,f,c
  1369  001B7A  50DF               	movf	indf2,w,c
  1370  001B7C  6FA5               	movwf	(??_terminal+3)& (0+255),b
  1371  001B7E  51A5               	movf	(??_terminal+3)& (0+255),w,b
  1372  001B80  0D0A               	mullw	10
  1373  001B82  50F3               	movf	prodl,w,c
  1374  001B84  27A3               	addwf	(??_terminal+1)& (0+255),f,b
  1375  001B86  50F4               	movf	prodh,w,c
  1376  001B88  23A4               	addwfc	(??_terminal+2)& (0+255),f,b
  1377  001B8A  EE20 F003          	lfsr	2,3
  1378  001B8E  51A0               	movf	terminal@comand& (0+255),w,b
  1379  001B90  26D9               	addwf	fsr2l,f,c
  1380  001B92  51A1               	movf	(terminal@comand+1)& (0+255),w,b
  1381  001B94  22DA               	addwfc	fsr2h,f,c
  1382  001B96  50DF               	movf	indf2,w,c
  1383  001B98  6FA6               	movwf	(??_terminal+4)& (0+255),b
  1384  001B9A  51A6               	movf	(??_terminal+4)& (0+255),w,b
  1385  001B9C  27A3               	addwf	(??_terminal+1)& (0+255),f,b
  1386  001B9E  0E00               	movlw	0
  1387  001BA0  23A4               	addwfc	(??_terminal+2)& (0+255),f,b
  1388  001BA2  0E30               	movlw	48
  1389  001BA4  25A3               	addwf	(??_terminal+1)& (0+255),w,b
  1390  001BA6  6FBB               	movwf	terminal@medicion& (0+255),b
  1391  001BA8  0EEB               	movlw	235
  1392  001BAA  21A4               	addwfc	(??_terminal+2)& (0+255),w,b
  1393  001BAC  6FBC               	movwf	(terminal@medicion+1)& (0+255),b
  1394                           
  1395                           ; BSR set to: 0
  1396                           ;auto.c: 219:             fijarVelocidad(medicion);
  1397  001BAE  51BB               	movf	terminal@medicion& (0+255),w,b
  1398  001BB0  EC5D  F00F         	call	_fijarVelocidad
  1399                           
  1400                           ;auto.c: 220:             cambiarPWM();
  1401  001BB4  EC6C  F013         	call	_cambiarPWM	;wreg free
  1402                           
  1403                           ;auto.c: 221:             break;
  1404  001BB8  0012               	return	
  1405  001BBA                     l4191:
  1406                           
  1407                           ; BSR set to: 0
  1408                           ;auto.c: 223:             enviarRS232("MODO PROGRAMADOR ACTIVADO!");
  1409  001BBA  0E1E               	movlw	low STR_9
  1410  001BBC  6F68               	movwf	enviarRS232@valores& (0+255),b
  1411  001BBE  0E0F               	movlw	high STR_9
  1412  001BC0  6F69               	movwf	(enviarRS232@valores+1)& (0+255),b
  1413  001BC2  ECD1  F011         	call	_enviarRS232	;wreg free
  1414                           
  1415                           ;auto.c: 224:             _delay((unsigned long)((1000)*(48000000/4000.0)));
  1416  001BC6  0E3D               	movlw	61
  1417  001BC8  0100               	movlb	0	; () banked
  1418  001BCA  6FA3               	movwf	(??_terminal+1)& (0+255),b
  1419  001BCC  0EE1               	movlw	225
  1420  001BCE  6FA2               	movwf	??_terminal& (0+255),b
  1421  001BD0  0E3F               	movlw	63
  1422  001BD2                     u3937:
  1423  001BD2  2EE8               	decfsz	wreg,f,c
  1424  001BD4  D7FE               	bra	u3937
  1425  001BD6  2FA2               	decfsz	??_terminal& (0+255),f,b
  1426  001BD8  D7FC               	bra	u3937
  1427  001BDA  2FA3               	decfsz	(??_terminal+1)& (0+255),f,b
  1428  001BDC  D7FA               	bra	u3937
  1429  001BDE  D000               	nop2	
  1430                           
  1431                           ;auto.c: 225:             enviarRS232("RENDIMOS CAMPOS PAPEEEE!");
  1432  001BE0  0E39               	movlw	low STR_10
  1433  001BE2  0100               	movlb	0	; () banked
  1434  001BE4  6F68               	movwf	enviarRS232@valores& (0+255),b
  1435  001BE6  0E0F               	movlw	high STR_10
  1436  001BE8  6F69               	movwf	(enviarRS232@valores+1)& (0+255),b
  1437  001BEA  ECD1  F011         	call	_enviarRS232	;wreg free
  1438  001BEE                     l288:
  1439  001BEE  D7FF               	goto	l288
  1440  001BF0                     l4199:
  1441  001BF0  C0A0  FFD9         	movff	terminal@comand,fsr2l
  1442  001BF4  C0A1  FFDA         	movff	terminal@comand+1,fsr2h
  1443  001BF8  50DF               	movf	indf2,w,c
  1444  001BFA  0100               	movlb	0	; () banked
  1445  001BFC  6FA2               	movwf	??_terminal& (0+255),b
  1446  001BFE  6BA3               	clrf	(??_terminal+1)& (0+255),b
  1447                           
  1448                           ; Switch on 2 bytes has been partitioned into a top level switch of size 1, and 1 sub-sw
      +                          itches
  1449                           ; Switch size 1, requested type "simple"
  1450                           ; Number of cases is 1, Range of values is 0 to 0
  1451                           ; switch strategies available:
  1452                           ; Name         Instructions Cycles
  1453                           ; simple_byte            4     3 (average)
  1454                           ;	Chosen strategy is simple_byte
  1455  001C00  51A3               	movf	(??_terminal+1)& (0+255),w,b
  1456  001C02  0A00               	xorlw	0	; case 0
  1457  001C04  A4D8               	btfss	status,2,c
  1458  001C06  0012               	return	
  1459                           
  1460                           ; BSR set to: 0
  1461                           ; Switch size 1, requested type "simple"
  1462                           ; Number of cases is 7, Range of values is 70 to 119
  1463                           ; switch strategies available:
  1464                           ; Name         Instructions Cycles
  1465                           ; simple_byte           22    12 (average)
  1466                           ;	Chosen strategy is simple_byte
  1467  001C08  51A2               	movf	??_terminal& (0+255),w,b
  1468  001C0A  0A46               	xorlw	70	; case 70
  1469  001C0C  B4D8               	btfsc	status,2,c
  1470  001C0E  D7A1               	goto	l4185
  1471  001C10  0A27               	xorlw	39	; case 97
  1472  001C12  B4D8               	btfsc	status,2,c
  1473  001C14  D77D               	goto	l4177
  1474  001C16  0A02               	xorlw	2	; case 99
  1475  001C18  B4D8               	btfsc	status,2,c
  1476  001C1A  D796               	goto	l4181
  1477  001C1C  0A07               	xorlw	7	; case 100
  1478  001C1E  B4D8               	btfsc	status,2,c
  1479  001C20  D785               	goto	l4179
  1480  001C22  0A03               	xorlw	3	; case 103
  1481  001C24  B4D8               	btfsc	status,2,c
  1482  001C26  D7C9               	goto	l4191
  1483  001C28  0A14               	xorlw	20	; case 115
  1484  001C2A  B4D8               	btfsc	status,2,c
  1485  001C2C  D762               	goto	l4169
  1486  001C2E  0A04               	xorlw	4	; case 119
  1487  001C30  A4D8               	btfss	status,2,c
  1488  001C32  0012               	return	
  1489  001C34  D74F               	goto	l4161
  1490  001C36                     __end_of_terminal:
  1491                           	opt callstack 0
  1492                           
  1493 ;; *************** function _estadosVelocidad *****************
  1494 ;; Defined at:
  1495 ;;		line 37 in file "./../LIBRERIAS/funciones_auto.h"
  1496 ;; Parameters:    Size  Location     Type
  1497 ;;  estado          1    wreg     unsigned char 
  1498 ;; Auto vars:     Size  Location     Type
  1499 ;;  estado          1    2[BANK0 ] unsigned char 
  1500 ;; Return value:  Size  Location     Type
  1501 ;;                  1    wreg      void 
  1502 ;; Registers used:
  1503 ;;		wreg, status,2, status,0
  1504 ;; Tracked objects:
  1505 ;;		On entry : 0/0
  1506 ;;		On exit  : 0/0
  1507 ;;		Unchanged: 0/0
  1508 ;; Data sizes:     COMRAM   BANK0   BANK1   BANK2   BANK3   BANK4   BANK5   BANK6   BANK7   BANK8   BANK9  BANK10  BANK1
      +1  BANK12  BANK13  BANK14
  1509 ;;      Params:         0       0       0       0       0       0       0       0       0       0       0       0       
      +0       0       0       0
  1510 ;;      Locals:         0       1       0       0       0       0       0       0       0       0       0       0       
      +0       0       0       0
  1511 ;;      Temps:          0       2       0       0       0       0       0       0       0       0       0       0       
      +0       0       0       0
  1512 ;;      Totals:         0       3       0       0       0       0       0       0       0       0       0       0       
      +0       0       0       0
  1513 ;;Total ram usage:        3 bytes
  1514 ;; Hardware stack levels used:    1
  1515 ;; Hardware stack levels required when called:    2
  1516 ;; This function calls:
  1517 ;;		Nothing
  1518 ;; This function is called by:
  1519 ;;		_terminal
  1520 ;; This function uses a non-reentrant model
  1521 ;;
  1522                           
  1523                           	psect	text2
  1524  00250E                     __ptext2:
  1525                           	opt callstack 0
  1526  00250E                     _estadosVelocidad:
  1527                           	opt callstack 27
  1528                           
  1529                           ;incstack = 0
  1530                           ;estadosVelocidad@estado stored from wreg
  1531  00250E  0100               	movlb	0	; () banked
  1532  002510  6F62               	movwf	estadosVelocidad@estado& (0+255),b
  1533                           
  1534                           ;./../LIBRERIAS/funciones_auto.h: 38:     switch(estado){
  1535  002512  D012               	goto	l3989
  1536  002514                     l3983:
  1537                           
  1538                           ; BSR set to: 0
  1539                           ;./../LIBRERIAS/funciones_auto.h: 40:             maximun_constant = 0.006;
  1540  002514  0EA6               	movlw	166
  1541  002516  6FDB               	movwf	_maximun_constant& (0+255),b
  1542  002518  0E9B               	movlw	155
  1543  00251A  6FDC               	movwf	(_maximun_constant+1)& (0+255),b
  1544  00251C  0EC4               	movlw	196
  1545  00251E  6FDD               	movwf	(_maximun_constant+2)& (0+255),b
  1546  002520  0E3B               	movlw	59
  1547  002522  6FDE               	movwf	(_maximun_constant+3)& (0+255),b
  1548                           
  1549                           ;./../LIBRERIAS/funciones_auto.h: 41:             break;
  1550  002524  0012               	return	
  1551  002526                     l3985:
  1552                           
  1553                           ; BSR set to: 0
  1554                           ;./../LIBRERIAS/funciones_auto.h: 43:             maximun_constant = 0.003;
  1555  002526  0EA6               	movlw	166
  1556  002528  6FDB               	movwf	_maximun_constant& (0+255),b
  1557  00252A  0E9B               	movlw	155
  1558  00252C  6FDC               	movwf	(_maximun_constant+1)& (0+255),b
  1559  00252E  0E44               	movlw	68
  1560  002530  6FDD               	movwf	(_maximun_constant+2)& (0+255),b
  1561  002532  0E3B               	movlw	59
  1562  002534  6FDE               	movwf	(_maximun_constant+3)& (0+255),b
  1563                           
  1564                           ;./../LIBRERIAS/funciones_auto.h: 44:             break;
  1565  002536  0012               	return	
  1566  002538                     l3989:
  1567  002538  0100               	movlb	0	; () banked
  1568  00253A  5162               	movf	estadosVelocidad@estado& (0+255),w,b
  1569  00253C  6F60               	movwf	??_estadosVelocidad& (0+255),b
  1570  00253E  6B61               	clrf	(??_estadosVelocidad+1)& (0+255),b
  1571                           
  1572                           ; Switch on 2 bytes has been partitioned into a top level switch of size 1, and 1 sub-sw
      +                          itches
  1573                           ; Switch size 1, requested type "simple"
  1574                           ; Number of cases is 1, Range of values is 0 to 0
  1575                           ; switch strategies available:
  1576                           ; Name         Instructions Cycles
  1577                           ; simple_byte            4     3 (average)
  1578                           ;	Chosen strategy is simple_byte
  1579  002540  5161               	movf	(??_estadosVelocidad+1)& (0+255),w,b
  1580  002542  0A00               	xorlw	0	; case 0
  1581  002544  A4D8               	btfss	status,2,c
  1582  002546  0012               	return	
  1583                           
  1584                           ; BSR set to: 0
  1585                           ; Switch size 1, requested type "simple"
  1586                           ; Number of cases is 2, Range of values is 1 to 2
  1587                           ; switch strategies available:
  1588                           ; Name         Instructions Cycles
  1589                           ; simple_byte            7     4 (average)
  1590                           ;	Chosen strategy is simple_byte
  1591  002548  5160               	movf	??_estadosVelocidad& (0+255),w,b
  1592  00254A  0A01               	xorlw	1	; case 1
  1593  00254C  B4D8               	btfsc	status,2,c
  1594  00254E  D7E2               	goto	l3983
  1595  002550  0A03               	xorlw	3	; case 2
  1596  002552  A4D8               	btfss	status,2,c
  1597  002554  0012               	return	
  1598  002556  D7E7               	goto	l3985
  1599  002558                     __end_of_estadosVelocidad:
  1600                           	opt callstack 0
  1601                           
  1602 ;; *************** function _cambiarPWM *****************
  1603 ;; Defined at:
  1604 ;;		line 233 in file "auto.c"
  1605 ;; Parameters:    Size  Location     Type
  1606 ;;		None
  1607 ;; Auto vars:     Size  Location     Type
  1608 ;;		None
  1609 ;; Return value:  Size  Location     Type
  1610 ;;                  1    wreg      void 
  1611 ;; Registers used:
  1612 ;;		wreg, status,2, status,0, cstack
  1613 ;; Tracked objects:
  1614 ;;		On entry : 0/0
  1615 ;;		On exit  : 0/0
  1616 ;;		Unchanged: 0/0
  1617 ;; Data sizes:     COMRAM   BANK0   BANK1   BANK2   BANK3   BANK4   BANK5   BANK6   BANK7   BANK8   BANK9  BANK10  BANK1
      +1  BANK12  BANK13  BANK14
  1618 ;;      Params:         0       0       0       0       0       0       0       0       0       0       0       0       
      +0       0       0       0
  1619 ;;      Locals:         0       0       0       0       0       0       0       0       0       0       0       0       
      +0       0       0       0
  1620 ;;      Temps:          0       0       0       0       0       0       0       0       0       0       0       0       
      +0       0       0       0
  1621 ;;      Totals:         0       0       0       0       0       0       0       0       0       0       0       0       
      +0       0       0       0
  1622 ;;Total ram usage:        0 bytes
  1623 ;; Hardware stack levels used:    1
  1624 ;; Hardware stack levels required when called:    3
  1625 ;; This function calls:
  1626 ;;		_definirVelocidad
  1627 ;; This function is called by:
  1628 ;;		_terminal
  1629 ;; This function uses a non-reentrant model
  1630 ;;
  1631                           
  1632                           	psect	text3
  1633  0026D8                     __ptext3:
  1634                           	opt callstack 0
  1635  0026D8                     _cambiarPWM:
  1636                           	opt callstack 26
  1637                           
  1638                           ;auto.c: 234:     if(motor == 1){
  1639                           
  1640                           ; BSR set to: 0
  1641                           ;incstack = 0
  1642  0026D8  0441               	decf	_motor,w,c
  1643  0026DA  A4D8               	btfss	status,2,c
  1644  0026DC  0012               	return	
  1645                           
  1646                           ;auto.c: 235:         definirVelocidad();
  1647  0026DE  ECAC  F012         	call	_definirVelocidad	;wreg free
  1648  0026E2  0012               	return		;funcret
  1649  0026E4                     __end_of_cambiarPWM:
  1650                           	opt callstack 0
  1651                           
  1652 ;; *************** function _atras *****************
  1653 ;; Defined at:
  1654 ;;		line 336 in file "auto.c"
  1655 ;; Parameters:    Size  Location     Type
  1656 ;;		None
  1657 ;; Auto vars:     Size  Location     Type
  1658 ;;		None
  1659 ;; Return value:  Size  Location     Type
  1660 ;;                  1    wreg      void 
  1661 ;; Registers used:
  1662 ;;		wreg, status,2
  1663 ;; Tracked objects:
  1664 ;;		On entry : 0/0
  1665 ;;		On exit  : 0/0
  1666 ;;		Unchanged: 0/0
  1667 ;; Data sizes:     COMRAM   BANK0   BANK1   BANK2   BANK3   BANK4   BANK5   BANK6   BANK7   BANK8   BANK9  BANK10  BANK1
      +1  BANK12  BANK13  BANK14
  1668 ;;      Params:         0       0       0       0       0       0       0       0       0       0       0       0       
      +0       0       0       0
  1669 ;;      Locals:         0       0       0       0       0       0       0       0       0       0       0       0       
      +0       0       0       0
  1670 ;;      Temps:          0       0       0       0       0       0       0       0       0       0       0       0       
      +0       0       0       0
  1671 ;;      Totals:         0       0       0       0       0       0       0       0       0       0       0       0       
      +0       0       0       0
  1672 ;;Total ram usage:        0 bytes
  1673 ;; Hardware stack levels used:    1
  1674 ;; Hardware stack levels required when called:    2
  1675 ;; This function calls:
  1676 ;;		Nothing
  1677 ;; This function is called by:
  1678 ;;		_terminal
  1679 ;; This function uses a non-reentrant model
  1680 ;;
  1681                           
  1682                           	psect	text4
  1683  0026A0                     __ptext4:
  1684                           	opt callstack 0
  1685  0026A0                     _atras:
  1686                           	opt callstack 27
  1687                           
  1688                           ;auto.c: 337:     estado = 's';
  1689                           
  1690                           ;incstack = 0
  1691  0026A0  0E73               	movlw	115
  1692  0026A2  6E3C               	movwf	_estado,c
  1693                           
  1694                           ;auto.c: 338:     PORTAbits.RA0 = 0;
  1695  0026A4  9080               	bcf	3968,0,c	;volatile
  1696                           
  1697                           ;auto.c: 339:     PORTAbits.RA1 = 0;
  1698  0026A6  9280               	bcf	3968,1,c	;volatile
  1699                           
  1700                           ;auto.c: 340:     PORTAbits.RA0 = 0;
  1701  0026A8  9080               	bcf	3968,0,c	;volatile
  1702                           
  1703                           ;auto.c: 341:     PORTAbits.RA1 = 1;
  1704  0026AA  8280               	bsf	3968,1,c	;volatile
  1705  0026AC  0012               	return		;funcret
  1706  0026AE                     __end_of_atras:
  1707                           	opt callstack 0
  1708                           
  1709 ;; *************** function _rutinaEscape *****************
  1710 ;; Defined at:
  1711 ;;		line 344 in file "auto.c"
  1712 ;; Parameters:    Size  Location     Type
  1713 ;;  type            1    wreg     unsigned char 
  1714 ;; Auto vars:     Size  Location     Type
  1715 ;;  type            1   66[BANK0 ] unsigned char 
  1716 ;; Return value:  Size  Location     Type
  1717 ;;                  1    wreg      void 
  1718 ;; Registers used:
  1719 ;;		wreg, status,2, status,0, tblptrl, tblptrh, tblptru, prodl, prodh, cstack
  1720 ;; Tracked objects:
  1721 ;;		On entry : 0/0
  1722 ;;		On exit  : 0/0
  1723 ;;		Unchanged: 0/0
  1724 ;; Data sizes:     COMRAM   BANK0   BANK1   BANK2   BANK3   BANK4   BANK5   BANK6   BANK7   BANK8   BANK9  BANK10  BANK1
      +1  BANK12  BANK13  BANK14
  1725 ;;      Params:         0       0       0       0       0       0       0       0       0       0       0       0       
      +0       0       0       0
  1726 ;;      Locals:         0       1       0       0       0       0       0       0       0       0       0       0       
      +0       0       0       0
  1727 ;;      Temps:          0       2       0       0       0       0       0       0       0       0       0       0       
      +0       0       0       0
  1728 ;;      Totals:         0       3       0       0       0       0       0       0       0       0       0       0       
      +0       0       0       0
  1729 ;;Total ram usage:        3 bytes
  1730 ;; Hardware stack levels used:    1
  1731 ;; Hardware stack levels required when called:    4
  1732 ;; This function calls:
  1733 ;;		_adelante
  1734 ;;		_dirreccion
  1735 ;;		_encenderMotor
  1736 ;;		_enviarRS232
  1737 ;;		_fijarVelocidad
  1738 ;;		_frenarMotor
  1739 ;; This function is called by:
  1740 ;;		_main
  1741 ;; This function uses a non-reentrant model
  1742 ;;
  1743                           
  1744                           	psect	text5
  1745  0022C6                     __ptext5:
  1746                           	opt callstack 0
  1747  0022C6                     _rutinaEscape:
  1748                           	opt callstack 26
  1749                           
  1750                           ;incstack = 0
  1751                           ;rutinaEscape@type stored from wreg
  1752  0022C6  0100               	movlb	0	; () banked
  1753  0022C8  6FA2               	movwf	rutinaEscape@type& (0+255),b
  1754                           
  1755                           ;auto.c: 345:     frenarMotor();
  1756  0022CA  EC48  F013         	call	_frenarMotor	;wreg free
  1757                           
  1758                           ;auto.c: 346:     estado = 'c';
  1759  0022CE  0E63               	movlw	99
  1760  0022D0  6E3C               	movwf	_estado,c
  1761                           
  1762                           ;auto.c: 347:     switch(type){
  1763  0022D2  D024               	goto	l4123
  1764  0022D4                     l4103:
  1765                           
  1766                           ; BSR set to: 0
  1767                           ;auto.c: 349:             enviarRS232("FUEGO!");
  1768  0022D4  0ED6               	movlw	low STR_11
  1769  0022D6  6F68               	movwf	enviarRS232@valores& (0+255),b
  1770  0022D8  0E0F               	movlw	high STR_11
  1771  0022DA  6F69               	movwf	(enviarRS232@valores+1)& (0+255),b
  1772  0022DC  ECD1  F011         	call	_enviarRS232	;wreg free
  1773                           
  1774                           ;auto.c: 350:             dirreccion(180);
  1775  0022E0  0E00               	movlw	0
  1776  0022E2  0100               	movlb	0	; () banked
  1777  0022E4  6F61               	movwf	(dirreccion@degree+1)& (0+255),b
  1778  0022E6  0EB4               	movlw	180
  1779  0022E8  6F60               	movwf	dirreccion@degree& (0+255),b
  1780  0022EA  EC99  F010         	call	_dirreccion	;wreg free
  1781                           
  1782                           ;auto.c: 351:             fijarVelocidad(0);
  1783  0022EE  0E00               	movlw	0
  1784  0022F0  EC5D  F00F         	call	_fijarVelocidad
  1785                           
  1786                           ;auto.c: 352:             adelante();
  1787  0022F4  EC5E  F013         	call	_adelante	;wreg free
  1788                           
  1789                           ;auto.c: 353:             encenderMotor();
  1790  0022F8  EC57  F013         	call	_encenderMotor	;wreg free
  1791                           
  1792                           ;auto.c: 354:             TIME_FUEGO = 4000;
  1793  0022FC  0EA0               	movlw	160
  1794  0022FE  6E2A               	movwf	_TIME_FUEGO,c
  1795  002300  0E0F               	movlw	15
  1796  002302  6E2B               	movwf	_TIME_FUEGO+1,c
  1797  002304  0E00               	movlw	0
  1798  002306  6E2C               	movwf	_TIME_FUEGO+2,c
  1799  002308  0E00               	movlw	0
  1800  00230A  6E2D               	movwf	_TIME_FUEGO+3,c
  1801                           
  1802                           ;auto.c: 355:             T8CONbits.TMR8ON = 1;
  1803  00230C  010F               	movlb	15	; () banked
  1804  00230E  851B               	bsf	27,2,b	;volatile
  1805                           
  1806                           ; BSR set to: 15
  1807                           ;auto.c: 356:             estadoFuego = 0;
  1808  002310  0E00               	movlw	0
  1809  002312  6E3D               	movwf	_estadoFuego,c
  1810                           
  1811                           ;auto.c: 357:             break;
  1812  002314  0012               	return	
  1813  002316                     l4119:
  1814                           
  1815                           ; BSR set to: 0
  1816                           ;auto.c: 359:             frenarMotor();
  1817  002316  EC48  F013         	call	_frenarMotor	;wreg free
  1818                           
  1819                           ;auto.c: 360:             break;
  1820  00231A  0012               	return	
  1821  00231C                     l4123:
  1822  00231C  0100               	movlb	0	; () banked
  1823  00231E  51A2               	movf	rutinaEscape@type& (0+255),w,b
  1824  002320  6FA0               	movwf	??_rutinaEscape& (0+255),b
  1825  002322  6BA1               	clrf	(??_rutinaEscape+1)& (0+255),b
  1826                           
  1827                           ; Switch on 2 bytes has been partitioned into a top level switch of size 1, and 1 sub-sw
      +                          itches
  1828                           ; Switch size 1, requested type "simple"
  1829                           ; Number of cases is 1, Range of values is 0 to 0
  1830                           ; switch strategies available:
  1831                           ; Name         Instructions Cycles
  1832                           ; simple_byte            4     3 (average)
  1833                           ;	Chosen strategy is simple_byte
  1834  002324  51A1               	movf	(??_rutinaEscape+1)& (0+255),w,b
  1835  002326  0A00               	xorlw	0	; case 0
  1836  002328  A4D8               	btfss	status,2,c
  1837  00232A  0012               	return	
  1838                           
  1839                           ; BSR set to: 0
  1840                           ; Switch size 1, requested type "simple"
  1841                           ; Number of cases is 2, Range of values is 1 to 2
  1842                           ; switch strategies available:
  1843                           ; Name         Instructions Cycles
  1844                           ; simple_byte            7     4 (average)
  1845                           ;	Chosen strategy is simple_byte
  1846  00232C  51A0               	movf	??_rutinaEscape& (0+255),w,b
  1847  00232E  0A01               	xorlw	1	; case 1
  1848  002330  B4D8               	btfsc	status,2,c
  1849  002332  D7D0               	goto	l4103
  1850  002334  0A03               	xorlw	3	; case 2
  1851  002336  A4D8               	btfss	status,2,c
  1852  002338  0012               	return	
  1853  00233A  D7ED               	goto	l4119
  1854  00233C                     __end_of_rutinaEscape:
  1855                           	opt callstack 0
  1856                           
  1857 ;; *************** function _fijarVelocidad *****************
  1858 ;; Defined at:
  1859 ;;		line 32 in file "./../LIBRERIAS/funciones_auto.h"
  1860 ;; Parameters:    Size  Location     Type
  1861 ;;  speed           1    wreg     unsigned char 
  1862 ;; Auto vars:     Size  Location     Type
  1863 ;;  speed           1   63[BANK0 ] unsigned char 
  1864 ;;  DC              4   55[BANK0 ] float 
  1865 ;; Return value:  Size  Location     Type
  1866 ;;                  1    wreg      void 
  1867 ;; Registers used:
  1868 ;;		wreg, status,2, status,0, prodl, prodh, cstack
  1869 ;; Tracked objects:
  1870 ;;		On entry : 0/0
  1871 ;;		On exit  : 0/0
  1872 ;;		Unchanged: 0/0
  1873 ;; Data sizes:     COMRAM   BANK0   BANK1   BANK2   BANK3   BANK4   BANK5   BANK6   BANK7   BANK8   BANK9  BANK10  BANK1
      +1  BANK12  BANK13  BANK14
  1874 ;;      Params:         0       0       0       0       0       0       0       0       0       0       0       0       
      +0       0       0       0
  1875 ;;      Locals:         0       9       0       0       0       0       0       0       0       0       0       0       
      +0       0       0       0
  1876 ;;      Temps:          0       0       0       0       0       0       0       0       0       0       0       0       
      +0       0       0       0
  1877 ;;      Totals:         0       9       0       0       0       0       0       0       0       0       0       0       
      +0       0       0       0
  1878 ;;Total ram usage:        9 bytes
  1879 ;; Hardware stack levels used:    1
  1880 ;; Hardware stack levels required when called:    3
  1881 ;; This function calls:
  1882 ;;		___fladd
  1883 ;;		___flmul
  1884 ;;		___fltol
  1885 ;;		___xxtofl
  1886 ;; This function is called by:
  1887 ;;		_terminal
  1888 ;;		_rutinaEscape
  1889 ;; This function uses a non-reentrant model
  1890 ;;
  1891                           
  1892                           	psect	text6
  1893  001EBA                     __ptext6:
  1894                           	opt callstack 0
  1895  001EBA                     _fijarVelocidad:
  1896                           	opt callstack 26
  1897                           
  1898                           ;incstack = 0
  1899                           ;fijarVelocidad@speed stored from wreg
  1900  001EBA  0100               	movlb	0	; () banked
  1901  001EBC  6F9F               	movwf	fijarVelocidad@speed& (0+255),b
  1902                           
  1903                           ;./../LIBRERIAS/funciones_auto.h: 33:     float DC = maximun_constant * speed + 0.5;
  1904  001EBE  C0DB  F072         	movff	_maximun_constant,___flmul@a
  1905  001EC2  C0DC  F073         	movff	_maximun_constant+1,___flmul@a+1
  1906  001EC6  C0DD  F074         	movff	_maximun_constant+2,___flmul@a+2
  1907  001ECA  C0DE  F075         	movff	_maximun_constant+3,___flmul@a+3
  1908  001ECE  0100               	movlb	0	; () banked
  1909  001ED0  519F               	movf	fijarVelocidad@speed& (0+255),w,b
  1910  001ED2  6F60               	movwf	___xxtofl@val& (0+255),b
  1911  001ED4  6B61               	clrf	(___xxtofl@val+1)& (0+255),b
  1912  001ED6  6B62               	clrf	(___xxtofl@val+2)& (0+255),b
  1913  001ED8  6B63               	clrf	(___xxtofl@val+3)& (0+255),b
  1914  001EDA  0E01               	movlw	1
  1915  001EDC  EC1B  F00E         	call	___xxtofl
  1916  001EE0  C060  F06E         	movff	?___xxtofl,___flmul@b
  1917  001EE4  C061  F06F         	movff	?___xxtofl+1,___flmul@b+1
  1918  001EE8  C062  F070         	movff	?___xxtofl+2,___flmul@b+2
  1919  001EEC  C063  F071         	movff	?___xxtofl+3,___flmul@b+3
  1920  001EF0  ECEF  F007         	call	___flmul	;wreg free
  1921  001EF4  C06E  F087         	movff	?___flmul,___fladd@b
  1922  001EF8  C06F  F088         	movff	?___flmul+1,___fladd@b+1
  1923  001EFC  C070  F089         	movff	?___flmul+2,___fladd@b+2
  1924  001F00  C071  F08A         	movff	?___flmul+3,___fladd@b+3
  1925  001F04  0E00               	movlw	0
  1926  001F06  0100               	movlb	0	; () banked
  1927  001F08  6F8B               	movwf	___fladd@a& (0+255),b
  1928  001F0A  0E00               	movlw	0
  1929  001F0C  6F8C               	movwf	(___fladd@a+1)& (0+255),b
  1930  001F0E  0E00               	movlw	0
  1931  001F10  6F8D               	movwf	(___fladd@a+2)& (0+255),b
  1932  001F12  0E3F               	movlw	63
  1933  001F14  6F8E               	movwf	(___fladd@a+3)& (0+255),b
  1934  001F16  EC99  F009         	call	___fladd	;wreg free
  1935  001F1A  C087  F097         	movff	?___fladd,fijarVelocidad@DC
  1936  001F1E  C088  F098         	movff	?___fladd+1,fijarVelocidad@DC+1
  1937  001F22  C089  F099         	movff	?___fladd+2,fijarVelocidad@DC+2
  1938  001F26  C08A  F09A         	movff	?___fladd+3,fijarVelocidad@DC+3
  1939                           
  1940                           ;./../LIBRERIAS/funciones_auto.h: 34:     velocidad = 4 * DC * 125;
  1941  001F2A  0E00               	movlw	0
  1942  001F2C  0100               	movlb	0	; () banked
  1943  001F2E  6F72               	movwf	___flmul@a& (0+255),b
  1944  001F30  0E00               	movlw	0
  1945  001F32  6F73               	movwf	(___flmul@a+1)& (0+255),b
  1946  001F34  0E80               	movlw	128
  1947  001F36  6F74               	movwf	(___flmul@a+2)& (0+255),b
  1948  001F38  0E40               	movlw	64
  1949  001F3A  6F75               	movwf	(___flmul@a+3)& (0+255),b
  1950  001F3C  C097  F06E         	movff	fijarVelocidad@DC,___flmul@b
  1951  001F40  C098  F06F         	movff	fijarVelocidad@DC+1,___flmul@b+1
  1952  001F44  C099  F070         	movff	fijarVelocidad@DC+2,___flmul@b+2
  1953  001F48  C09A  F071         	movff	fijarVelocidad@DC+3,___flmul@b+3
  1954  001F4C  ECEF  F007         	call	___flmul	;wreg free
  1955  001F50  C06E  F09B         	movff	?___flmul,_fijarVelocidad$1921
  1956  001F54  C06F  F09C         	movff	?___flmul+1,_fijarVelocidad$1921+1
  1957  001F58  C070  F09D         	movff	?___flmul+2,_fijarVelocidad$1921+2
  1958  001F5C  C071  F09E         	movff	?___flmul+3,_fijarVelocidad$1921+3
  1959                           
  1960                           ;./../LIBRERIAS/funciones_auto.h: 34:     velocidad = 4 * DC * 125;
  1961  001F60  0E00               	movlw	0
  1962  001F62  0100               	movlb	0	; () banked
  1963  001F64  6F72               	movwf	___flmul@a& (0+255),b
  1964  001F66  0E00               	movlw	0
  1965  001F68  6F73               	movwf	(___flmul@a+1)& (0+255),b
  1966  001F6A  0EFA               	movlw	250
  1967  001F6C  6F74               	movwf	(___flmul@a+2)& (0+255),b
  1968  001F6E  0E42               	movlw	66
  1969  001F70  6F75               	movwf	(___flmul@a+3)& (0+255),b
  1970  001F72  C09B  F06E         	movff	_fijarVelocidad$1921,___flmul@b
  1971  001F76  C09C  F06F         	movff	_fijarVelocidad$1921+1,___flmul@b+1
  1972  001F7A  C09D  F070         	movff	_fijarVelocidad$1921+2,___flmul@b+2
  1973  001F7E  C09E  F071         	movff	_fijarVelocidad$1921+3,___flmul@b+3
  1974  001F82  ECEF  F007         	call	___flmul	;wreg free
  1975  001F86  C06E  F087         	movff	?___flmul,___fltol@f1
  1976  001F8A  C06F  F088         	movff	?___flmul+1,___fltol@f1+1
  1977  001F8E  C070  F089         	movff	?___flmul+2,___fltol@f1+2
  1978  001F92  C071  F08A         	movff	?___flmul+3,___fltol@f1+3
  1979  001F96  EC3B  F010         	call	___fltol	;wreg free
  1980  001F9A  C087  F0DF         	movff	?___fltol,_velocidad
  1981  001F9E  C088  F0E0         	movff	?___fltol+1,_velocidad+1
  1982  001FA2  0012               	return		;funcret
  1983  001FA4                     __end_of_fijarVelocidad:
  1984                           	opt callstack 0
  1985                           
  1986 ;; *************** function ___xxtofl *****************
  1987 ;; Defined at:
  1988 ;;		line 10 in file "C:\Program Files (x86)\Microchip\xc8\v2.05\pic\sources\c99\common\xxtofl.c"
  1989 ;; Parameters:    Size  Location     Type
  1990 ;;  sign            1    wreg     unsigned char 
  1991 ;;  val             4    0[BANK0 ] long 
  1992 ;; Auto vars:     Size  Location     Type
  1993 ;;  sign            1    8[BANK0 ] unsigned char 
  1994 ;;  arg             4   10[BANK0 ] unsigned long 
  1995 ;;  exp             1    9[BANK0 ] unsigned char 
  1996 ;; Return value:  Size  Location     Type
  1997 ;;                  4    0[BANK0 ] unsigned char 
  1998 ;; Registers used:
  1999 ;;		wreg, status,2, status,0
  2000 ;; Tracked objects:
  2001 ;;		On entry : 0/0
  2002 ;;		On exit  : 0/0
  2003 ;;		Unchanged: 0/0
  2004 ;; Data sizes:     COMRAM   BANK0   BANK1   BANK2   BANK3   BANK4   BANK5   BANK6   BANK7   BANK8   BANK9  BANK10  BANK1
      +1  BANK12  BANK13  BANK14
  2005 ;;      Params:         0       4       0       0       0       0       0       0       0       0       0       0       
      +0       0       0       0
  2006 ;;      Locals:         0       6       0       0       0       0       0       0       0       0       0       0       
      +0       0       0       0
  2007 ;;      Temps:          0       4       0       0       0       0       0       0       0       0       0       0       
      +0       0       0       0
  2008 ;;      Totals:         0      14       0       0       0       0       0       0       0       0       0       0       
      +0       0       0       0
  2009 ;;Total ram usage:       14 bytes
  2010 ;; Hardware stack levels used:    1
  2011 ;; Hardware stack levels required when called:    2
  2012 ;; This function calls:
  2013 ;;		Nothing
  2014 ;; This function is called by:
  2015 ;;		_fijarVelocidad
  2016 ;; This function uses a non-reentrant model
  2017 ;;
  2018                           
  2019                           	psect	text7
  2020  001C36                     __ptext7:
  2021                           	opt callstack 0
  2022  001C36                     ___xxtofl:
  2023                           	opt callstack 26
  2024                           
  2025                           ;incstack = 0
  2026                           ;___xxtofl@sign stored from wreg
  2027  001C36  0100               	movlb	0	; () banked
  2028  001C38  6F68               	movwf	___xxtofl@sign& (0+255),b
  2029  001C3A  0100               	movlb	0	; () banked
  2030  001C3C  5168               	movf	___xxtofl@sign& (0+255),w,b
  2031  001C3E  A4D8               	btfss	status,2,c
  2032                           
  2033                           ; BSR set to: 0
  2034  001C40  AF63               	btfss	(___xxtofl@val+3)& (0+255),7,b
  2035  001C42  D01A               	goto	l1005
  2036                           
  2037                           ; BSR set to: 0
  2038  001C44  C060  F064         	movff	___xxtofl@val,??___xxtofl
  2039  001C48  C061  F065         	movff	___xxtofl@val+1,??___xxtofl+1
  2040  001C4C  C062  F066         	movff	___xxtofl@val+2,??___xxtofl+2
  2041  001C50  C063  F067         	movff	___xxtofl@val+3,??___xxtofl+3
  2042  001C54  1F64               	comf	??___xxtofl& (0+255),f,b
  2043  001C56  1F65               	comf	(??___xxtofl+1)& (0+255),f,b
  2044  001C58  1F66               	comf	(??___xxtofl+2)& (0+255),f,b
  2045  001C5A  1F67               	comf	(??___xxtofl+3)& (0+255),f,b
  2046  001C5C  2B64               	incf	??___xxtofl& (0+255),f,b
  2047  001C5E  0E00               	movlw	0
  2048  001C60  2365               	addwfc	(??___xxtofl+1)& (0+255),f,b
  2049  001C62  2366               	addwfc	(??___xxtofl+2)& (0+255),f,b
  2050  001C64  2367               	addwfc	(??___xxtofl+3)& (0+255),f,b
  2051  001C66  C064  F06A         	movff	??___xxtofl,___xxtofl@arg
  2052  001C6A  C065  F06B         	movff	??___xxtofl+1,___xxtofl@arg+1
  2053  001C6E  C066  F06C         	movff	??___xxtofl+2,___xxtofl@arg+2
  2054  001C72  C067  F06D         	movff	??___xxtofl+3,___xxtofl@arg+3
  2055  001C76  D008               	goto	l3865
  2056  001C78                     l1005:
  2057                           
  2058                           ; BSR set to: 0
  2059  001C78  C060  F06A         	movff	___xxtofl@val,___xxtofl@arg
  2060  001C7C  C061  F06B         	movff	___xxtofl@val+1,___xxtofl@arg+1
  2061  001C80  C062  F06C         	movff	___xxtofl@val+2,___xxtofl@arg+2
  2062  001C84  C063  F06D         	movff	___xxtofl@val+3,___xxtofl@arg+3
  2063  001C88                     l3865:
  2064                           
  2065                           ; BSR set to: 0
  2066  001C88  5160               	movf	___xxtofl@val& (0+255),w,b
  2067  001C8A  1161               	iorwf	(___xxtofl@val+1)& (0+255),w,b
  2068  001C8C  1162               	iorwf	(___xxtofl@val+2)& (0+255),w,b
  2069  001C8E  1163               	iorwf	(___xxtofl@val+3)& (0+255),w,b
  2070  001C90  A4D8               	btfss	status,2,c
  2071  001C92  D009               	goto	l3871
  2072                           
  2073                           ; BSR set to: 0
  2074  001C94  0E00               	movlw	0
  2075  001C96  6F60               	movwf	?___xxtofl& (0+255),b
  2076  001C98  0E00               	movlw	0
  2077  001C9A  6F61               	movwf	(?___xxtofl+1)& (0+255),b
  2078  001C9C  0E00               	movlw	0
  2079  001C9E  6F62               	movwf	(?___xxtofl+2)& (0+255),b
  2080  001CA0  0E00               	movlw	0
  2081  001CA2  6F63               	movwf	(?___xxtofl+3)& (0+255),b
  2082  001CA4  0012               	return	
  2083  001CA6                     l3871:
  2084                           
  2085                           ; BSR set to: 0
  2086  001CA6  0E96               	movlw	150
  2087  001CA8  6F69               	movwf	___xxtofl@exp& (0+255),b
  2088  001CAA  D006               	goto	l3875
  2089  001CAC                     l3873:
  2090                           
  2091                           ; BSR set to: 0
  2092  001CAC  2B69               	incf	___xxtofl@exp& (0+255),f,b
  2093  001CAE  90D8               	bcf	status,0,c
  2094  001CB0  336D               	rrcf	(___xxtofl@arg+3)& (0+255),f,b
  2095  001CB2  336C               	rrcf	(___xxtofl@arg+2)& (0+255),f,b
  2096  001CB4  336B               	rrcf	(___xxtofl@arg+1)& (0+255),f,b
  2097  001CB6  336A               	rrcf	___xxtofl@arg& (0+255),f,b
  2098  001CB8                     l3875:
  2099                           
  2100                           ; BSR set to: 0
  2101  001CB8  0E00               	movlw	0
  2102  001CBA  156A               	andwf	___xxtofl@arg& (0+255),w,b
  2103  001CBC  6F64               	movwf	??___xxtofl& (0+255),b
  2104  001CBE  0E00               	movlw	0
  2105  001CC0  156B               	andwf	(___xxtofl@arg+1)& (0+255),w,b
  2106  001CC2  6F65               	movwf	(??___xxtofl+1)& (0+255),b
  2107  001CC4  0E00               	movlw	0
  2108  001CC6  156C               	andwf	(___xxtofl@arg+2)& (0+255),w,b
  2109  001CC8  6F66               	movwf	(??___xxtofl+2)& (0+255),b
  2110  001CCA  0EFE               	movlw	254
  2111  001CCC  156D               	andwf	(___xxtofl@arg+3)& (0+255),w,b
  2112  001CCE  6F67               	movwf	(??___xxtofl+3)& (0+255),b
  2113  001CD0  5164               	movf	??___xxtofl& (0+255),w,b
  2114  001CD2  1165               	iorwf	(??___xxtofl+1)& (0+255),w,b
  2115  001CD4  1166               	iorwf	(??___xxtofl+2)& (0+255),w,b
  2116  001CD6  1167               	iorwf	(??___xxtofl+3)& (0+255),w,b
  2117  001CD8  B4D8               	btfsc	status,2,c
  2118  001CDA  D00D               	goto	l1012
  2119  001CDC  D7E7               	goto	l3873
  2120  001CDE                     l3877:
  2121                           
  2122                           ; BSR set to: 0
  2123  001CDE  2B69               	incf	___xxtofl@exp& (0+255),f,b
  2124                           
  2125                           ; BSR set to: 0
  2126  001CE0  0E01               	movlw	1
  2127  001CE2  276A               	addwf	___xxtofl@arg& (0+255),f,b
  2128  001CE4  0E00               	movlw	0
  2129  001CE6  236B               	addwfc	(___xxtofl@arg+1)& (0+255),f,b
  2130  001CE8  236C               	addwfc	(___xxtofl@arg+2)& (0+255),f,b
  2131  001CEA  236D               	addwfc	(___xxtofl@arg+3)& (0+255),f,b
  2132                           
  2133                           ; BSR set to: 0
  2134  001CEC  90D8               	bcf	status,0,c
  2135  001CEE  336D               	rrcf	(___xxtofl@arg+3)& (0+255),f,b
  2136  001CF0  336C               	rrcf	(___xxtofl@arg+2)& (0+255),f,b
  2137  001CF2  336B               	rrcf	(___xxtofl@arg+1)& (0+255),f,b
  2138  001CF4  336A               	rrcf	___xxtofl@arg& (0+255),f,b
  2139  001CF6                     l1012:
  2140                           
  2141                           ; BSR set to: 0
  2142  001CF6  0E00               	movlw	0
  2143  001CF8  156A               	andwf	___xxtofl@arg& (0+255),w,b
  2144  001CFA  6F64               	movwf	??___xxtofl& (0+255),b
  2145  001CFC  0E00               	movlw	0
  2146  001CFE  156B               	andwf	(___xxtofl@arg+1)& (0+255),w,b
  2147  001D00  6F65               	movwf	(??___xxtofl+1)& (0+255),b
  2148  001D02  0E00               	movlw	0
  2149  001D04  156C               	andwf	(___xxtofl@arg+2)& (0+255),w,b
  2150  001D06  6F66               	movwf	(??___xxtofl+2)& (0+255),b
  2151  001D08  0EFF               	movlw	255
  2152  001D0A  156D               	andwf	(___xxtofl@arg+3)& (0+255),w,b
  2153  001D0C  6F67               	movwf	(??___xxtofl+3)& (0+255),b
  2154  001D0E  5164               	movf	??___xxtofl& (0+255),w,b
  2155  001D10  1165               	iorwf	(??___xxtofl+1)& (0+255),w,b
  2156  001D12  1166               	iorwf	(??___xxtofl+2)& (0+255),w,b
  2157  001D14  1167               	iorwf	(??___xxtofl+3)& (0+255),w,b
  2158  001D16  B4D8               	btfsc	status,2,c
  2159  001D18  D007               	goto	l3885
  2160  001D1A  D7E1               	goto	l3877
  2161  001D1C                     l3883:
  2162                           
  2163                           ; BSR set to: 0
  2164  001D1C  0769               	decf	___xxtofl@exp& (0+255),f,b
  2165  001D1E  90D8               	bcf	status,0,c
  2166  001D20  376A               	rlcf	___xxtofl@arg& (0+255),f,b
  2167  001D22  376B               	rlcf	(___xxtofl@arg+1)& (0+255),f,b
  2168  001D24  376C               	rlcf	(___xxtofl@arg+2)& (0+255),f,b
  2169  001D26  376D               	rlcf	(___xxtofl@arg+3)& (0+255),f,b
  2170  001D28                     l3885:
  2171                           
  2172                           ; BSR set to: 0
  2173  001D28  BF6C               	btfsc	(___xxtofl@arg+2)& (0+255),7,b
  2174  001D2A  D003               	goto	u3630
  2175                           
  2176                           ; BSR set to: 0
  2177  001D2C  0E02               	movlw	2
  2178  001D2E  6169               	cpfslt	___xxtofl@exp& (0+255),b
  2179  001D30  D7F5               	goto	l3883
  2180  001D32                     u3630:
  2181                           
  2182                           ; BSR set to: 0
  2183  001D32  A169               	btfss	___xxtofl@exp& (0+255),0,b
  2184                           
  2185                           ; BSR set to: 0
  2186  001D34  9F6C               	bcf	(___xxtofl@arg+2)& (0+255),7,b
  2187                           
  2188                           ; BSR set to: 0
  2189  001D36  90D8               	bcf	status,0,c
  2190  001D38  3369               	rrcf	___xxtofl@exp& (0+255),f,b
  2191                           
  2192                           ; BSR set to: 0
  2193  001D3A  C069  F064         	movff	___xxtofl@exp,??___xxtofl
  2194  001D3E  6B65               	clrf	(??___xxtofl+1)& (0+255),b
  2195  001D40  6B66               	clrf	(??___xxtofl+2)& (0+255),b
  2196  001D42  6B67               	clrf	(??___xxtofl+3)& (0+255),b
  2197  001D44  C064  F067         	movff	??___xxtofl,??___xxtofl+3
  2198  001D48  6B66               	clrf	(??___xxtofl+2)& (0+255),b
  2199  001D4A  6B65               	clrf	(??___xxtofl+1)& (0+255),b
  2200  001D4C  6B64               	clrf	??___xxtofl& (0+255),b
  2201  001D4E  5164               	movf	??___xxtofl& (0+255),w,b
  2202  001D50  136A               	iorwf	___xxtofl@arg& (0+255),f,b
  2203  001D52  5165               	movf	(??___xxtofl+1)& (0+255),w,b
  2204  001D54  136B               	iorwf	(___xxtofl@arg+1)& (0+255),f,b
  2205  001D56  5166               	movf	(??___xxtofl+2)& (0+255),w,b
  2206  001D58  136C               	iorwf	(___xxtofl@arg+2)& (0+255),f,b
  2207  001D5A  5167               	movf	(??___xxtofl+3)& (0+255),w,b
  2208  001D5C  136D               	iorwf	(___xxtofl@arg+3)& (0+255),f,b
  2209                           
  2210                           ; BSR set to: 0
  2211  001D5E  5168               	movf	___xxtofl@sign& (0+255),w,b
  2212  001D60  A4D8               	btfss	status,2,c
  2213                           
  2214                           ; BSR set to: 0
  2215  001D62  AF63               	btfss	(___xxtofl@val+3)& (0+255),7,b
  2216  001D64  D001               	goto	l3901
  2217                           
  2218                           ; BSR set to: 0
  2219  001D66  8F6D               	bsf	(___xxtofl@arg+3)& (0+255),7,b
  2220  001D68                     l3901:
  2221                           
  2222                           ; BSR set to: 0
  2223  001D68  C06A  F060         	movff	___xxtofl@arg,?___xxtofl
  2224  001D6C  C06B  F061         	movff	___xxtofl@arg+1,?___xxtofl+1
  2225  001D70  C06C  F062         	movff	___xxtofl@arg+2,?___xxtofl+2
  2226  001D74  C06D  F063         	movff	___xxtofl@arg+3,?___xxtofl+3
  2227                           
  2228                           ; BSR set to: 0
  2229  001D78  0012               	return		;funcret
  2230  001D7A                     __end_of___xxtofl:
  2231                           	opt callstack 0
  2232                           
  2233 ;; *************** function ___fltol *****************
  2234 ;; Defined at:
  2235 ;;		line 43 in file "C:\Program Files (x86)\Microchip\xc8\v2.05\pic\sources\c99\common\fltol.c"
  2236 ;; Parameters:    Size  Location     Type
  2237 ;;  f1              4   39[BANK0 ] unsigned char 
  2238 ;; Auto vars:     Size  Location     Type
  2239 ;;  exp1            1   48[BANK0 ] unsigned char 
  2240 ;;  sign1           1   47[BANK0 ] unsigned char 
  2241 ;; Return value:  Size  Location     Type
  2242 ;;                  4   39[BANK0 ] long 
  2243 ;; Registers used:
  2244 ;;		wreg, status,2, status,0
  2245 ;; Tracked objects:
  2246 ;;		On entry : 0/0
  2247 ;;		On exit  : 0/0
  2248 ;;		Unchanged: 0/0
  2249 ;; Data sizes:     COMRAM   BANK0   BANK1   BANK2   BANK3   BANK4   BANK5   BANK6   BANK7   BANK8   BANK9  BANK10  BANK1
      +1  BANK12  BANK13  BANK14
  2250 ;;      Params:         0       4       0       0       0       0       0       0       0       0       0       0       
      +0       0       0       0
  2251 ;;      Locals:         0       2       0       0       0       0       0       0       0       0       0       0       
      +0       0       0       0
  2252 ;;      Temps:          0       4       0       0       0       0       0       0       0       0       0       0       
      +0       0       0       0
  2253 ;;      Totals:         0      10       0       0       0       0       0       0       0       0       0       0       
      +0       0       0       0
  2254 ;;Total ram usage:       10 bytes
  2255 ;; Hardware stack levels used:    1
  2256 ;; Hardware stack levels required when called:    2
  2257 ;; This function calls:
  2258 ;;		Nothing
  2259 ;; This function is called by:
  2260 ;;		_fijarVelocidad
  2261 ;; This function uses a non-reentrant model
  2262 ;;
  2263                           
  2264                           	psect	text8
  2265  002076                     __ptext8:
  2266                           	opt callstack 0
  2267  002076                     ___fltol:
  2268                           	opt callstack 26
  2269                           
  2270                           ; BSR set to: 0
  2271                           ;incstack = 0
  2272  002076  0100               	movlb	0	; () banked
  2273  002078  3589               	rlcf	(___fltol@f1+2)& (0+255),w,b
  2274  00207A  358A               	rlcf	(___fltol@f1+3)& (0+255),w,b
  2275  00207C  6F90               	movwf	___fltol@exp1& (0+255),b
  2276  00207E  5190               	movf	___fltol@exp1& (0+255),w,b
  2277  002080  A4D8               	btfss	status,2,c
  2278  002082  D009               	goto	l2713
  2279  002084                     u2280:
  2280                           
  2281                           ; BSR set to: 0
  2282  002084  0E00               	movlw	0
  2283  002086  6F87               	movwf	?___fltol& (0+255),b
  2284  002088  0E00               	movlw	0
  2285  00208A  6F88               	movwf	(?___fltol+1)& (0+255),b
  2286  00208C  0E00               	movlw	0
  2287  00208E  6F89               	movwf	(?___fltol+2)& (0+255),b
  2288  002090  0E00               	movlw	0
  2289  002092  6F8A               	movwf	(?___fltol+3)& (0+255),b
  2290  002094  0012               	return	
  2291  002096                     l2713:
  2292                           
  2293                           ; BSR set to: 0
  2294  002096  C087  F08B         	movff	___fltol@f1,??___fltol
  2295  00209A  C088  F08C         	movff	___fltol@f1+1,??___fltol+1
  2296  00209E  C089  F08D         	movff	___fltol@f1+2,??___fltol+2
  2297  0020A2  C08A  F08E         	movff	___fltol@f1+3,??___fltol+3
  2298  0020A6  0E20               	movlw	32
  2299  0020A8  D005               	goto	u2290
  2300  0020AA                     u2295:
  2301  0020AA  90D8               	bcf	status,0,c
  2302  0020AC  338E               	rrcf	(??___fltol+3)& (0+255),f,b
  2303  0020AE  338D               	rrcf	(??___fltol+2)& (0+255),f,b
  2304  0020B0  338C               	rrcf	(??___fltol+1)& (0+255),f,b
  2305  0020B2  338B               	rrcf	??___fltol& (0+255),f,b
  2306  0020B4                     u2290:
  2307  0020B4  2EE8               	decfsz	wreg,f,c
  2308  0020B6  D7F9               	goto	u2295
  2309  0020B8  518B               	movf	??___fltol& (0+255),w,b
  2310  0020BA  6F8F               	movwf	___fltol@sign1& (0+255),b
  2311                           
  2312                           ; BSR set to: 0
  2313  0020BC  8F89               	bsf	(___fltol@f1+2)& (0+255),7,b
  2314                           
  2315                           ; BSR set to: 0
  2316  0020BE  0EFF               	movlw	255
  2317  0020C0  1787               	andwf	___fltol@f1& (0+255),f,b
  2318  0020C2  0EFF               	movlw	255
  2319  0020C4  1788               	andwf	(___fltol@f1+1)& (0+255),f,b
  2320  0020C6  0EFF               	movlw	255
  2321  0020C8  1789               	andwf	(___fltol@f1+2)& (0+255),f,b
  2322  0020CA  0E00               	movlw	0
  2323  0020CC  178A               	andwf	(___fltol@f1+3)& (0+255),f,b
  2324                           
  2325                           ; BSR set to: 0
  2326  0020CE  0E96               	movlw	150
  2327  0020D0  5F90               	subwf	___fltol@exp1& (0+255),f,b
  2328                           
  2329                           ; BSR set to: 0
  2330  0020D2  AF90               	btfss	___fltol@exp1& (0+255),7,b
  2331  0020D4  D00D               	goto	l2733
  2332                           
  2333                           ; BSR set to: 0
  2334  0020D6  5190               	movf	___fltol@exp1& (0+255),w,b
  2335  0020D8  0A80               	xorlw	128
  2336  0020DA  0F97               	addlw	151
  2337  0020DC  A0D8               	btfss	status,0,c
  2338  0020DE  D7D2               	goto	u2280
  2339  0020E0                     l2729:
  2340                           
  2341                           ; BSR set to: 0
  2342  0020E0  90D8               	bcf	status,0,c
  2343  0020E2  338A               	rrcf	(___fltol@f1+3)& (0+255),f,b
  2344  0020E4  3389               	rrcf	(___fltol@f1+2)& (0+255),f,b
  2345  0020E6  3388               	rrcf	(___fltol@f1+1)& (0+255),f,b
  2346  0020E8  3387               	rrcf	___fltol@f1& (0+255),f,b
  2347                           
  2348                           ; BSR set to: 0
  2349  0020EA  3F90               	incfsz	___fltol@exp1& (0+255),f,b
  2350  0020EC  D7F9               	goto	l2729
  2351  0020EE  D00D               	goto	u2330
  2352  0020F0                     l2733:
  2353                           
  2354                           ; BSR set to: 0
  2355  0020F0  0E1F               	movlw	31
  2356  0020F2  6590               	cpfsgt	___fltol@exp1& (0+255),b
  2357  0020F4  D007               	goto	l2741
  2358  0020F6  D7C6               	goto	u2280
  2359  0020F8                     l2739:
  2360                           
  2361                           ; BSR set to: 0
  2362  0020F8  90D8               	bcf	status,0,c
  2363  0020FA  3787               	rlcf	___fltol@f1& (0+255),f,b
  2364  0020FC  3788               	rlcf	(___fltol@f1+1)& (0+255),f,b
  2365  0020FE  3789               	rlcf	(___fltol@f1+2)& (0+255),f,b
  2366  002100  378A               	rlcf	(___fltol@f1+3)& (0+255),f,b
  2367  002102  0790               	decf	___fltol@exp1& (0+255),f,b
  2368  002104                     l2741:
  2369                           
  2370                           ; BSR set to: 0
  2371  002104  5190               	movf	___fltol@exp1& (0+255),w,b
  2372  002106  A4D8               	btfss	status,2,c
  2373  002108  D7F7               	goto	l2739
  2374  00210A                     u2330:
  2375                           
  2376                           ; BSR set to: 0
  2377  00210A  518F               	movf	___fltol@sign1& (0+255),w,b
  2378  00210C  B4D8               	btfsc	status,2,c
  2379  00210E  D008               	goto	l2747
  2380                           
  2381                           ; BSR set to: 0
  2382  002110  1F8A               	comf	(___fltol@f1+3)& (0+255),f,b
  2383  002112  1F89               	comf	(___fltol@f1+2)& (0+255),f,b
  2384  002114  1F88               	comf	(___fltol@f1+1)& (0+255),f,b
  2385  002116  6D87               	negf	___fltol@f1& (0+255),b
  2386  002118  0E00               	movlw	0
  2387  00211A  2388               	addwfc	(___fltol@f1+1)& (0+255),f,b
  2388  00211C  2389               	addwfc	(___fltol@f1+2)& (0+255),f,b
  2389  00211E  238A               	addwfc	(___fltol@f1+3)& (0+255),f,b
  2390  002120                     l2747:
  2391                           
  2392                           ; BSR set to: 0
  2393  002120  C087  F087         	movff	___fltol@f1,?___fltol
  2394  002124  C088  F088         	movff	___fltol@f1+1,?___fltol+1
  2395  002128  C089  F089         	movff	___fltol@f1+2,?___fltol+2
  2396  00212C  C08A  F08A         	movff	___fltol@f1+3,?___fltol+3
  2397                           
  2398                           ; BSR set to: 0
  2399  002130  0012               	return		;funcret
  2400  002132                     __end_of___fltol:
  2401                           	opt callstack 0
  2402                           
  2403 ;; *************** function ___flmul *****************
  2404 ;; Defined at:
  2405 ;;		line 8 in file "C:\Program Files (x86)\Microchip\xc8\v2.05\pic\sources\c99\common\sprcmul.c"
  2406 ;; Parameters:    Size  Location     Type
  2407 ;;  b               4   14[BANK0 ] long 
  2408 ;;  a               4   18[BANK0 ] long 
  2409 ;; Auto vars:     Size  Location     Type
  2410 ;;  prod            4   33[BANK0 ] struct .
  2411 ;;  grs             4   28[BANK0 ] unsigned long 
  2412 ;;  temp            2   37[BANK0 ] struct .
  2413 ;;  bexp            1   32[BANK0 ] unsigned char 
  2414 ;;  aexp            1   27[BANK0 ] unsigned char 
  2415 ;;  sign            1   26[BANK0 ] unsigned char 
  2416 ;; Return value:  Size  Location     Type
  2417 ;;                  4   14[BANK0 ] unsigned char 
  2418 ;; Registers used:
  2419 ;;		wreg, status,2, status,0, prodl, prodh
  2420 ;; Tracked objects:
  2421 ;;		On entry : 0/0
  2422 ;;		On exit  : 0/0
  2423 ;;		Unchanged: 0/0
  2424 ;; Data sizes:     COMRAM   BANK0   BANK1   BANK2   BANK3   BANK4   BANK5   BANK6   BANK7   BANK8   BANK9  BANK10  BANK1
      +1  BANK12  BANK13  BANK14
  2425 ;;      Params:         0       8       0       0       0       0       0       0       0       0       0       0       
      +0       0       0       0
  2426 ;;      Locals:         0      13       0       0       0       0       0       0       0       0       0       0       
      +0       0       0       0
  2427 ;;      Temps:          0       4       0       0       0       0       0       0       0       0       0       0       
      +0       0       0       0
  2428 ;;      Totals:         0      25       0       0       0       0       0       0       0       0       0       0       
      +0       0       0       0
  2429 ;;Total ram usage:       25 bytes
  2430 ;; Hardware stack levels used:    1
  2431 ;; Hardware stack levels required when called:    2
  2432 ;; This function calls:
  2433 ;;		Nothing
  2434 ;; This function is called by:
  2435 ;;		_fijarVelocidad
  2436 ;; This function uses a non-reentrant model
  2437 ;;
  2438                           
  2439                           	psect	text9
  2440  000FDE                     __ptext9:
  2441                           	opt callstack 0
  2442  000FDE                     ___flmul:
  2443                           	opt callstack 26
  2444                           
  2445                           ; BSR set to: 0
  2446                           ;incstack = 0
  2447  000FDE  0100               	movlb	0	; () banked
  2448  000FE0  5171               	movf	(___flmul@b+3)& (0+255),w,b
  2449  000FE2  0B80               	andlw	128
  2450  000FE4  6F7A               	movwf	___flmul@sign& (0+255),b
  2451  000FE6  5171               	movf	(___flmul@b+3)& (0+255),w,b
  2452  000FE8  2571               	addwf	(___flmul@b+3)& (0+255),w,b
  2453  000FEA  6F80               	movwf	___flmul@bexp& (0+255),b
  2454                           
  2455                           ; BSR set to: 0
  2456  000FEC  BF70               	btfsc	(___flmul@b+2)& (0+255),7,b
  2457                           
  2458                           ; BSR set to: 0
  2459  000FEE  8180               	bsf	___flmul@bexp& (0+255),0,b
  2460                           
  2461                           ; BSR set to: 0
  2462  000FF0  5180               	movf	___flmul@bexp& (0+255),w,b
  2463  000FF2  B4D8               	btfsc	status,2,c
  2464  000FF4  D00D               	goto	l3743
  2465                           
  2466                           ; BSR set to: 0
  2467  000FF6  2980               	incf	___flmul@bexp& (0+255),w,b
  2468  000FF8  A4D8               	btfss	status,2,c
  2469  000FFA  D008               	goto	l3741
  2470                           
  2471                           ; BSR set to: 0
  2472  000FFC  0E00               	movlw	0
  2473  000FFE  6F6E               	movwf	___flmul@b& (0+255),b
  2474  001000  0E00               	movlw	0
  2475  001002  6F6F               	movwf	(___flmul@b+1)& (0+255),b
  2476  001004  0E00               	movlw	0
  2477  001006  6F70               	movwf	(___flmul@b+2)& (0+255),b
  2478  001008  0E00               	movlw	0
  2479  00100A  6F71               	movwf	(___flmul@b+3)& (0+255),b
  2480  00100C                     l3741:
  2481                           
  2482                           ; BSR set to: 0
  2483  00100C  8F70               	bsf	(___flmul@b+2)& (0+255),7,b
  2484  00100E  D008               	goto	l3745
  2485  001010                     l3743:
  2486                           
  2487                           ; BSR set to: 0
  2488  001010  0E00               	movlw	0
  2489  001012  6F6E               	movwf	___flmul@b& (0+255),b
  2490  001014  0E00               	movlw	0
  2491  001016  6F6F               	movwf	(___flmul@b+1)& (0+255),b
  2492  001018  0E00               	movlw	0
  2493  00101A  6F70               	movwf	(___flmul@b+2)& (0+255),b
  2494  00101C  0E00               	movlw	0
  2495  00101E  6F71               	movwf	(___flmul@b+3)& (0+255),b
  2496  001020                     l3745:
  2497                           
  2498                           ; BSR set to: 0
  2499  001020  5175               	movf	(___flmul@a+3)& (0+255),w,b
  2500  001022  0B80               	andlw	128
  2501  001024  1B7A               	xorwf	___flmul@sign& (0+255),f,b
  2502                           
  2503                           ; BSR set to: 0
  2504  001026  5175               	movf	(___flmul@a+3)& (0+255),w,b
  2505  001028  2575               	addwf	(___flmul@a+3)& (0+255),w,b
  2506  00102A  6F7B               	movwf	___flmul@aexp& (0+255),b
  2507                           
  2508                           ; BSR set to: 0
  2509  00102C  BF74               	btfsc	(___flmul@a+2)& (0+255),7,b
  2510                           
  2511                           ; BSR set to: 0
  2512  00102E  817B               	bsf	___flmul@aexp& (0+255),0,b
  2513                           
  2514                           ; BSR set to: 0
  2515  001030  517B               	movf	___flmul@aexp& (0+255),w,b
  2516  001032  B4D8               	btfsc	status,2,c
  2517  001034  D00D               	goto	l3761
  2518                           
  2519                           ; BSR set to: 0
  2520  001036  297B               	incf	___flmul@aexp& (0+255),w,b
  2521  001038  A4D8               	btfss	status,2,c
  2522  00103A  D008               	goto	l3759
  2523                           
  2524                           ; BSR set to: 0
  2525  00103C  0E00               	movlw	0
  2526  00103E  6F72               	movwf	___flmul@a& (0+255),b
  2527  001040  0E00               	movlw	0
  2528  001042  6F73               	movwf	(___flmul@a+1)& (0+255),b
  2529  001044  0E00               	movlw	0
  2530  001046  6F74               	movwf	(___flmul@a+2)& (0+255),b
  2531  001048  0E00               	movlw	0
  2532  00104A  6F75               	movwf	(___flmul@a+3)& (0+255),b
  2533  00104C                     l3759:
  2534                           
  2535                           ; BSR set to: 0
  2536  00104C  8F74               	bsf	(___flmul@a+2)& (0+255),7,b
  2537  00104E  D008               	goto	l964
  2538  001050                     l3761:
  2539                           
  2540                           ; BSR set to: 0
  2541  001050  0E00               	movlw	0
  2542  001052  6F72               	movwf	___flmul@a& (0+255),b
  2543  001054  0E00               	movlw	0
  2544  001056  6F73               	movwf	(___flmul@a+1)& (0+255),b
  2545  001058  0E00               	movlw	0
  2546  00105A  6F74               	movwf	(___flmul@a+2)& (0+255),b
  2547  00105C  0E00               	movlw	0
  2548  00105E  6F75               	movwf	(___flmul@a+3)& (0+255),b
  2549  001060                     l964:
  2550                           
  2551                           ; BSR set to: 0
  2552  001060  517B               	movf	___flmul@aexp& (0+255),w,b
  2553  001062  B4D8               	btfsc	status,2,c
  2554  001064  D003               	goto	u3450
  2555                           
  2556                           ; BSR set to: 0
  2557  001066  5180               	movf	___flmul@bexp& (0+255),w,b
  2558  001068  A4D8               	btfss	status,2,c
  2559  00106A  D009               	goto	l3769
  2560  00106C                     u3450:
  2561                           
  2562                           ; BSR set to: 0
  2563  00106C  0E00               	movlw	0
  2564  00106E  6F6E               	movwf	?___flmul& (0+255),b
  2565  001070  0E00               	movlw	0
  2566  001072  6F6F               	movwf	(?___flmul+1)& (0+255),b
  2567  001074  0E00               	movlw	0
  2568  001076  6F70               	movwf	(?___flmul+2)& (0+255),b
  2569  001078  0E00               	movlw	0
  2570  00107A  6F71               	movwf	(?___flmul+3)& (0+255),b
  2571  00107C  0012               	return	
  2572  00107E                     l3769:
  2573                           
  2574                           ; BSR set to: 0
  2575  00107E  5174               	movf	(___flmul@a+2)& (0+255),w,b
  2576  001080  036E               	mulwf	___flmul@b& (0+255),b
  2577  001082  CFF3 F085          	movff	prodl,___flmul@temp
  2578  001086  CFF4 F086          	movff	prodh,___flmul@temp+1
  2579                           
  2580                           ; BSR set to: 0
  2581  00108A  5185               	movf	___flmul@temp& (0+255),w,b
  2582  00108C  6F7C               	movwf	___flmul@grs& (0+255),b
  2583  00108E  6B7D               	clrf	(___flmul@grs+1)& (0+255),b
  2584  001090  6B7E               	clrf	(___flmul@grs+2)& (0+255),b
  2585  001092  6B7F               	clrf	(___flmul@grs+3)& (0+255),b
  2586                           
  2587                           ; BSR set to: 0
  2588  001094  5186               	movf	(___flmul@temp+1)& (0+255),w,b
  2589  001096  6F81               	movwf	___flmul@prod& (0+255),b
  2590  001098  6B82               	clrf	(___flmul@prod+1)& (0+255),b
  2591  00109A  6B83               	clrf	(___flmul@prod+2)& (0+255),b
  2592  00109C  6B84               	clrf	(___flmul@prod+3)& (0+255),b
  2593  00109E  5173               	movf	(___flmul@a+1)& (0+255),w,b
  2594  0010A0  036F               	mulwf	(___flmul@b+1)& (0+255),b
  2595  0010A2  CFF3 F085          	movff	prodl,___flmul@temp
  2596  0010A6  CFF4 F086          	movff	prodh,___flmul@temp+1
  2597                           
  2598                           ; BSR set to: 0
  2599  0010AA  5185               	movf	___flmul@temp& (0+255),w,b
  2600  0010AC  277C               	addwf	___flmul@grs& (0+255),f,b
  2601  0010AE  0E00               	movlw	0
  2602  0010B0  237D               	addwfc	(___flmul@grs+1)& (0+255),f,b
  2603  0010B2  237E               	addwfc	(___flmul@grs+2)& (0+255),f,b
  2604  0010B4  237F               	addwfc	(___flmul@grs+3)& (0+255),f,b
  2605                           
  2606                           ; BSR set to: 0
  2607  0010B6  5186               	movf	(___flmul@temp+1)& (0+255),w,b
  2608  0010B8  2781               	addwf	___flmul@prod& (0+255),f,b
  2609  0010BA  0E00               	movlw	0
  2610  0010BC  2382               	addwfc	(___flmul@prod+1)& (0+255),f,b
  2611  0010BE  2383               	addwfc	(___flmul@prod+2)& (0+255),f,b
  2612  0010C0  2384               	addwfc	(___flmul@prod+3)& (0+255),f,b
  2613  0010C2  5172               	movf	___flmul@a& (0+255),w,b
  2614  0010C4  0370               	mulwf	(___flmul@b+2)& (0+255),b
  2615  0010C6  CFF3 F085          	movff	prodl,___flmul@temp
  2616  0010CA  CFF4 F086          	movff	prodh,___flmul@temp+1
  2617                           
  2618                           ; BSR set to: 0
  2619  0010CE  5185               	movf	___flmul@temp& (0+255),w,b
  2620  0010D0  277C               	addwf	___flmul@grs& (0+255),f,b
  2621  0010D2  0E00               	movlw	0
  2622  0010D4  237D               	addwfc	(___flmul@grs+1)& (0+255),f,b
  2623  0010D6  237E               	addwfc	(___flmul@grs+2)& (0+255),f,b
  2624  0010D8  237F               	addwfc	(___flmul@grs+3)& (0+255),f,b
  2625                           
  2626                           ; BSR set to: 0
  2627  0010DA  5186               	movf	(___flmul@temp+1)& (0+255),w,b
  2628  0010DC  2781               	addwf	___flmul@prod& (0+255),f,b
  2629  0010DE  0E00               	movlw	0
  2630  0010E0  2382               	addwfc	(___flmul@prod+1)& (0+255),f,b
  2631  0010E2  2383               	addwfc	(___flmul@prod+2)& (0+255),f,b
  2632  0010E4  2384               	addwfc	(___flmul@prod+3)& (0+255),f,b
  2633                           
  2634                           ; BSR set to: 0
  2635  0010E6  C07E  F07F         	movff	___flmul@grs+2,___flmul@grs+3
  2636  0010EA  C07D  F07E         	movff	___flmul@grs+1,___flmul@grs+2
  2637  0010EE  C07C  F07D         	movff	___flmul@grs,___flmul@grs+1
  2638  0010F2  6B7C               	clrf	___flmul@grs& (0+255),b
  2639                           
  2640                           ; BSR set to: 0
  2641  0010F4  5172               	movf	___flmul@a& (0+255),w,b
  2642  0010F6  036F               	mulwf	(___flmul@b+1)& (0+255),b
  2643  0010F8  CFF3 F085          	movff	prodl,___flmul@temp
  2644  0010FC  CFF4 F086          	movff	prodh,___flmul@temp+1
  2645                           
  2646                           ; BSR set to: 0
  2647  001100  5185               	movf	___flmul@temp& (0+255),w,b
  2648  001102  277C               	addwf	___flmul@grs& (0+255),f,b
  2649  001104  5186               	movf	(___flmul@temp+1)& (0+255),w,b
  2650  001106  237D               	addwfc	(___flmul@grs+1)& (0+255),f,b
  2651  001108  0E00               	movlw	0
  2652  00110A  237E               	addwfc	(___flmul@grs+2)& (0+255),f,b
  2653  00110C  0E00               	movlw	0
  2654  00110E  237F               	addwfc	(___flmul@grs+3)& (0+255),f,b
  2655                           
  2656                           ; BSR set to: 0
  2657  001110  5173               	movf	(___flmul@a+1)& (0+255),w,b
  2658  001112  036E               	mulwf	___flmul@b& (0+255),b
  2659  001114  CFF3 F085          	movff	prodl,___flmul@temp
  2660  001118  CFF4 F086          	movff	prodh,___flmul@temp+1
  2661                           
  2662                           ; BSR set to: 0
  2663  00111C  5185               	movf	___flmul@temp& (0+255),w,b
  2664  00111E  277C               	addwf	___flmul@grs& (0+255),f,b
  2665  001120  5186               	movf	(___flmul@temp+1)& (0+255),w,b
  2666  001122  237D               	addwfc	(___flmul@grs+1)& (0+255),f,b
  2667  001124  0E00               	movlw	0
  2668  001126  237E               	addwfc	(___flmul@grs+2)& (0+255),f,b
  2669  001128  0E00               	movlw	0
  2670  00112A  237F               	addwfc	(___flmul@grs+3)& (0+255),f,b
  2671                           
  2672                           ; BSR set to: 0
  2673  00112C  C07E  F07F         	movff	___flmul@grs+2,___flmul@grs+3
  2674  001130  C07D  F07E         	movff	___flmul@grs+1,___flmul@grs+2
  2675  001134  C07C  F07D         	movff	___flmul@grs,___flmul@grs+1
  2676  001138  6B7C               	clrf	___flmul@grs& (0+255),b
  2677  00113A  5172               	movf	___flmul@a& (0+255),w,b
  2678  00113C  036E               	mulwf	___flmul@b& (0+255),b
  2679  00113E  CFF3 F085          	movff	prodl,___flmul@temp
  2680  001142  CFF4 F086          	movff	prodh,___flmul@temp+1
  2681                           
  2682                           ; BSR set to: 0
  2683  001146  5185               	movf	___flmul@temp& (0+255),w,b
  2684  001148  277C               	addwf	___flmul@grs& (0+255),f,b
  2685  00114A  5186               	movf	(___flmul@temp+1)& (0+255),w,b
  2686  00114C  237D               	addwfc	(___flmul@grs+1)& (0+255),f,b
  2687  00114E  0E00               	movlw	0
  2688  001150  237E               	addwfc	(___flmul@grs+2)& (0+255),f,b
  2689  001152  0E00               	movlw	0
  2690  001154  237F               	addwfc	(___flmul@grs+3)& (0+255),f,b
  2691                           
  2692                           ; BSR set to: 0
  2693  001156  5174               	movf	(___flmul@a+2)& (0+255),w,b
  2694  001158  036F               	mulwf	(___flmul@b+1)& (0+255),b
  2695  00115A  CFF3 F085          	movff	prodl,___flmul@temp
  2696  00115E  CFF4 F086          	movff	prodh,___flmul@temp+1
  2697  001162  5185               	movf	___flmul@temp& (0+255),w,b
  2698  001164  2781               	addwf	___flmul@prod& (0+255),f,b
  2699  001166  5186               	movf	(___flmul@temp+1)& (0+255),w,b
  2700  001168  2382               	addwfc	(___flmul@prod+1)& (0+255),f,b
  2701  00116A  0E00               	movlw	0
  2702  00116C  2383               	addwfc	(___flmul@prod+2)& (0+255),f,b
  2703  00116E  0E00               	movlw	0
  2704  001170  2384               	addwfc	(___flmul@prod+3)& (0+255),f,b
  2705                           
  2706                           ; BSR set to: 0
  2707  001172  5173               	movf	(___flmul@a+1)& (0+255),w,b
  2708  001174  0370               	mulwf	(___flmul@b+2)& (0+255),b
  2709  001176  CFF3 F085          	movff	prodl,___flmul@temp
  2710  00117A  CFF4 F086          	movff	prodh,___flmul@temp+1
  2711                           
  2712                           ; BSR set to: 0
  2713  00117E  5185               	movf	___flmul@temp& (0+255),w,b
  2714  001180  2781               	addwf	___flmul@prod& (0+255),f,b
  2715  001182  5186               	movf	(___flmul@temp+1)& (0+255),w,b
  2716  001184  2382               	addwfc	(___flmul@prod+1)& (0+255),f,b
  2717  001186  0E00               	movlw	0
  2718  001188  2383               	addwfc	(___flmul@prod+2)& (0+255),f,b
  2719  00118A  0E00               	movlw	0
  2720  00118C  2384               	addwfc	(___flmul@prod+3)& (0+255),f,b
  2721  00118E  5174               	movf	(___flmul@a+2)& (0+255),w,b
  2722  001190  0370               	mulwf	(___flmul@b+2)& (0+255),b
  2723  001192  CFF3 F085          	movff	prodl,___flmul@temp
  2724  001196  CFF4 F086          	movff	prodh,___flmul@temp+1
  2725                           
  2726                           ; BSR set to: 0
  2727  00119A  5185               	movf	___flmul@temp& (0+255),w,b
  2728  00119C  6F76               	movwf	??___flmul& (0+255),b
  2729  00119E  5186               	movf	(___flmul@temp+1)& (0+255),w,b
  2730  0011A0  6F77               	movwf	(??___flmul+1)& (0+255),b
  2731  0011A2  6B78               	clrf	(??___flmul+2)& (0+255),b
  2732  0011A4  6B79               	clrf	(??___flmul+3)& (0+255),b
  2733  0011A6  C078  F079         	movff	??___flmul+2,??___flmul+3
  2734  0011AA  C077  F078         	movff	??___flmul+1,??___flmul+2
  2735  0011AE  C076  F077         	movff	??___flmul,??___flmul+1
  2736  0011B2  6B76               	clrf	??___flmul& (0+255),b
  2737  0011B4  5176               	movf	??___flmul& (0+255),w,b
  2738  0011B6  2781               	addwf	___flmul@prod& (0+255),f,b
  2739  0011B8  5177               	movf	(??___flmul+1)& (0+255),w,b
  2740  0011BA  2382               	addwfc	(___flmul@prod+1)& (0+255),f,b
  2741  0011BC  5178               	movf	(??___flmul+2)& (0+255),w,b
  2742  0011BE  2383               	addwfc	(___flmul@prod+2)& (0+255),f,b
  2743  0011C0  5179               	movf	(??___flmul+3)& (0+255),w,b
  2744  0011C2  2384               	addwfc	(___flmul@prod+3)& (0+255),f,b
  2745                           
  2746                           ; BSR set to: 0
  2747  0011C4  C07C  F076         	movff	___flmul@grs,??___flmul
  2748  0011C8  C07D  F077         	movff	___flmul@grs+1,??___flmul+1
  2749  0011CC  C07E  F078         	movff	___flmul@grs+2,??___flmul+2
  2750  0011D0  C07F  F079         	movff	___flmul@grs+3,??___flmul+3
  2751  0011D4  0E19               	movlw	25
  2752  0011D6  D005               	goto	u3460
  2753  0011D8                     u3465:
  2754  0011D8  90D8               	bcf	status,0,c
  2755  0011DA  3379               	rrcf	(??___flmul+3)& (0+255),f,b
  2756  0011DC  3378               	rrcf	(??___flmul+2)& (0+255),f,b
  2757  0011DE  3377               	rrcf	(??___flmul+1)& (0+255),f,b
  2758  0011E0  3376               	rrcf	??___flmul& (0+255),f,b
  2759  0011E2                     u3460:
  2760  0011E2  2EE8               	decfsz	wreg,f,c
  2761  0011E4  D7F9               	goto	u3465
  2762  0011E6  5176               	movf	??___flmul& (0+255),w,b
  2763  0011E8  2781               	addwf	___flmul@prod& (0+255),f,b
  2764  0011EA  5177               	movf	(??___flmul+1)& (0+255),w,b
  2765  0011EC  2382               	addwfc	(___flmul@prod+1)& (0+255),f,b
  2766  0011EE  5178               	movf	(??___flmul+2)& (0+255),w,b
  2767  0011F0  2383               	addwfc	(___flmul@prod+2)& (0+255),f,b
  2768  0011F2  5179               	movf	(??___flmul+3)& (0+255),w,b
  2769  0011F4  2384               	addwfc	(___flmul@prod+3)& (0+255),f,b
  2770                           
  2771                           ; BSR set to: 0
  2772  0011F6  C07E  F07F         	movff	___flmul@grs+2,___flmul@grs+3
  2773  0011FA  C07D  F07E         	movff	___flmul@grs+1,___flmul@grs+2
  2774  0011FE  C07C  F07D         	movff	___flmul@grs,___flmul@grs+1
  2775  001202  6B7C               	clrf	___flmul@grs& (0+255),b
  2776                           
  2777                           ; BSR set to: 0
  2778  001204  517B               	movf	___flmul@aexp& (0+255),w,b
  2779  001206  C080  F076         	movff	___flmul@bexp,??___flmul
  2780  00120A  6B77               	clrf	(??___flmul+1)& (0+255),b
  2781  00120C  2776               	addwf	??___flmul& (0+255),f,b
  2782  00120E  0E00               	movlw	0
  2783  001210  2377               	addwfc	(??___flmul+1)& (0+255),f,b
  2784  001212  0E82               	movlw	130
  2785  001214  2576               	addwf	??___flmul& (0+255),w,b
  2786  001216  6F85               	movwf	___flmul@temp& (0+255),b
  2787  001218  0EFF               	movlw	255
  2788  00121A  2177               	addwfc	(??___flmul+1)& (0+255),w,b
  2789  00121C  6F86               	movwf	(___flmul@temp+1)& (0+255),b
  2790  00121E  D00F               	goto	l3817
  2791  001220                     l3811:
  2792                           
  2793                           ; BSR set to: 0
  2794  001220  90D8               	bcf	status,0,c
  2795  001222  3781               	rlcf	___flmul@prod& (0+255),f,b
  2796  001224  3782               	rlcf	(___flmul@prod+1)& (0+255),f,b
  2797  001226  3783               	rlcf	(___flmul@prod+2)& (0+255),f,b
  2798  001228  3784               	rlcf	(___flmul@prod+3)& (0+255),f,b
  2799                           
  2800                           ; BSR set to: 0
  2801  00122A  BF7F               	btfsc	(___flmul@grs+3)& (0+255),7,b
  2802                           
  2803                           ; BSR set to: 0
  2804  00122C  8181               	bsf	___flmul@prod& (0+255),0,b
  2805                           
  2806                           ; BSR set to: 0
  2807  00122E  90D8               	bcf	status,0,c
  2808  001230  377C               	rlcf	___flmul@grs& (0+255),f,b
  2809  001232  377D               	rlcf	(___flmul@grs+1)& (0+255),f,b
  2810  001234  377E               	rlcf	(___flmul@grs+2)& (0+255),f,b
  2811  001236  377F               	rlcf	(___flmul@grs+3)& (0+255),f,b
  2812  001238  0785               	decf	___flmul@temp& (0+255),f,b
  2813  00123A  A0D8               	btfss	status,0,c
  2814  00123C  0786               	decf	(___flmul@temp+1)& (0+255),f,b
  2815  00123E                     l3817:
  2816                           
  2817                           ; BSR set to: 0
  2818  00123E  AF83               	btfss	(___flmul@prod+2)& (0+255),7,b
  2819  001240  D7EF               	goto	l3811
  2820                           
  2821                           ; BSR set to: 0
  2822  001242  0E00               	movlw	0
  2823  001244  6F7B               	movwf	___flmul@aexp& (0+255),b
  2824                           
  2825                           ; BSR set to: 0
  2826  001246  AF7F               	btfss	(___flmul@grs+3)& (0+255),7,b
  2827  001248  D017               	goto	l973
  2828                           
  2829                           ; BSR set to: 0
  2830  00124A  0EFF               	movlw	255
  2831  00124C  157C               	andwf	___flmul@grs& (0+255),w,b
  2832  00124E  6F76               	movwf	??___flmul& (0+255),b
  2833  001250  0EFF               	movlw	255
  2834  001252  157D               	andwf	(___flmul@grs+1)& (0+255),w,b
  2835  001254  6F77               	movwf	(??___flmul+1)& (0+255),b
  2836  001256  0EFF               	movlw	255
  2837  001258  157E               	andwf	(___flmul@grs+2)& (0+255),w,b
  2838  00125A  6F78               	movwf	(??___flmul+2)& (0+255),b
  2839  00125C  0E7F               	movlw	127
  2840  00125E  157F               	andwf	(___flmul@grs+3)& (0+255),w,b
  2841  001260  6F79               	movwf	(??___flmul+3)& (0+255),b
  2842  001262  5176               	movf	??___flmul& (0+255),w,b
  2843  001264  1177               	iorwf	(??___flmul+1)& (0+255),w,b
  2844  001266  1178               	iorwf	(??___flmul+2)& (0+255),w,b
  2845  001268  1179               	iorwf	(??___flmul+3)& (0+255),w,b
  2846  00126A  B4D8               	btfsc	status,2,c
  2847  00126C  D003               	goto	l974
  2848  00126E                     u3500:
  2849                           
  2850                           ; BSR set to: 0
  2851  00126E  0E01               	movlw	1
  2852  001270  6F7B               	movwf	___flmul@aexp& (0+255),b
  2853  001272  D002               	goto	l973
  2854  001274                     l974:
  2855                           
  2856                           ; BSR set to: 0
  2857  001274  B181               	btfsc	___flmul@prod& (0+255),0,b
  2858  001276  D7FB               	goto	u3500
  2859  001278                     l973:
  2860                           
  2861                           ; BSR set to: 0
  2862  001278  517B               	movf	___flmul@aexp& (0+255),w,b
  2863  00127A  B4D8               	btfsc	status,2,c
  2864  00127C  D01F               	goto	l3837
  2865                           
  2866                           ; BSR set to: 0
  2867  00127E  0E01               	movlw	1
  2868  001280  2781               	addwf	___flmul@prod& (0+255),f,b
  2869  001282  0E00               	movlw	0
  2870  001284  2382               	addwfc	(___flmul@prod+1)& (0+255),f,b
  2871  001286  2383               	addwfc	(___flmul@prod+2)& (0+255),f,b
  2872  001288  2384               	addwfc	(___flmul@prod+3)& (0+255),f,b
  2873                           
  2874                           ; BSR set to: 0
  2875  00128A  A184               	btfss	(___flmul@prod+3)& (0+255),0,b
  2876  00128C  D017               	goto	l3837
  2877                           
  2878                           ; BSR set to: 0
  2879  00128E  C081  F076         	movff	___flmul@prod,??___flmul
  2880  001292  C082  F077         	movff	___flmul@prod+1,??___flmul+1
  2881  001296  C083  F078         	movff	___flmul@prod+2,??___flmul+2
  2882  00129A  C084  F079         	movff	___flmul@prod+3,??___flmul+3
  2883  00129E  3579               	rlcf	(??___flmul+3)& (0+255),w,b
  2884  0012A0  3379               	rrcf	(??___flmul+3)& (0+255),f,b
  2885  0012A2  3378               	rrcf	(??___flmul+2)& (0+255),f,b
  2886  0012A4  3377               	rrcf	(??___flmul+1)& (0+255),f,b
  2887  0012A6  3376               	rrcf	??___flmul& (0+255),f,b
  2888  0012A8  C076  F081         	movff	??___flmul,___flmul@prod
  2889  0012AC  C077  F082         	movff	??___flmul+1,___flmul@prod+1
  2890  0012B0  C078  F083         	movff	??___flmul+2,___flmul@prod+2
  2891  0012B4  C079  F084         	movff	??___flmul+3,___flmul@prod+3
  2892                           
  2893                           ; BSR set to: 0
  2894  0012B8  4B85               	infsnz	___flmul@temp& (0+255),f,b
  2895  0012BA  2B86               	incf	(___flmul@temp+1)& (0+255),f,b
  2896  0012BC                     l3837:
  2897                           
  2898                           ; BSR set to: 0
  2899  0012BC  BF86               	btfsc	(___flmul@temp+1)& (0+255),7,b
  2900  0012BE  D00D               	goto	l3841
  2901  0012C0  5186               	movf	(___flmul@temp+1)& (0+255),w,b
  2902  0012C2  E103               	bnz	u3540
  2903  0012C4  2985               	incf	___flmul@temp& (0+255),w,b
  2904  0012C6  A0D8               	btfss	status,0,c
  2905  0012C8  D008               	goto	l3841
  2906  0012CA                     u3540:
  2907                           
  2908                           ; BSR set to: 0
  2909  0012CA  0E00               	movlw	0
  2910  0012CC  6F81               	movwf	___flmul@prod& (0+255),b
  2911  0012CE  0E00               	movlw	0
  2912  0012D0  6F82               	movwf	(___flmul@prod+1)& (0+255),b
  2913  0012D2  0E80               	movlw	128
  2914  0012D4  6F83               	movwf	(___flmul@prod+2)& (0+255),b
  2915  0012D6  0E7F               	movlw	127
  2916  0012D8  D020               	goto	L1
  2917  0012DA                     l3841:
  2918                           
  2919                           ; BSR set to: 0
  2920  0012DA  BF86               	btfsc	(___flmul@temp+1)& (0+255),7,b
  2921  0012DC  D005               	goto	u3550
  2922  0012DE  5186               	movf	(___flmul@temp+1)& (0+255),w,b
  2923  0012E0  E10E               	bnz	l981
  2924  0012E2  0585               	decf	___flmul@temp& (0+255),w,b
  2925  0012E4  B0D8               	btfsc	status,0,c
  2926  0012E6  D00B               	goto	l981
  2927  0012E8                     u3550:
  2928                           
  2929                           ; BSR set to: 0
  2930  0012E8  0E00               	movlw	0
  2931  0012EA  6F81               	movwf	___flmul@prod& (0+255),b
  2932  0012EC  0E00               	movlw	0
  2933  0012EE  6F82               	movwf	(___flmul@prod+1)& (0+255),b
  2934  0012F0  0E00               	movlw	0
  2935  0012F2  6F83               	movwf	(___flmul@prod+2)& (0+255),b
  2936  0012F4  0E00               	movlw	0
  2937  0012F6  6F84               	movwf	(___flmul@prod+3)& (0+255),b
  2938  0012F8  0E00               	movlw	0
  2939  0012FA  6F7A               	movwf	___flmul@sign& (0+255),b
  2940  0012FC  D00F               	goto	l3853
  2941  0012FE                     l981:
  2942                           
  2943                           ; BSR set to: 0
  2944  0012FE  C085  F080         	movff	___flmul@temp,___flmul@bexp
  2945                           
  2946                           ; BSR set to: 0
  2947  001302  0EFF               	movlw	255
  2948  001304  1781               	andwf	___flmul@prod& (0+255),f,b
  2949  001306  0EFF               	movlw	255
  2950  001308  1782               	andwf	(___flmul@prod+1)& (0+255),f,b
  2951  00130A  0E7F               	movlw	127
  2952  00130C  1783               	andwf	(___flmul@prod+2)& (0+255),f,b
  2953  00130E  0E00               	movlw	0
  2954  001310  1784               	andwf	(___flmul@prod+3)& (0+255),f,b
  2955                           
  2956                           ; BSR set to: 0
  2957  001312  B180               	btfsc	___flmul@bexp& (0+255),0,b
  2958                           
  2959                           ; BSR set to: 0
  2960  001314  8F83               	bsf	(___flmul@prod+2)& (0+255),7,b
  2961                           
  2962                           ; BSR set to: 0
  2963  001316  90D8               	bcf	status,0,c
  2964  001318  3180               	rrcf	___flmul@bexp& (0+255),w,b
  2965  00131A                     L1:
  2966  00131A  6F84               	movwf	(___flmul@prod+3)& (0+255),b
  2967  00131C                     l3853:
  2968                           
  2969                           ; BSR set to: 0
  2970  00131C  517A               	movf	___flmul@sign& (0+255),w,b
  2971  00131E  1384               	iorwf	(___flmul@prod+3)& (0+255),f,b
  2972                           
  2973                           ; BSR set to: 0
  2974  001320  C081  F06E         	movff	___flmul@prod,?___flmul
  2975  001324  C082  F06F         	movff	___flmul@prod+1,?___flmul+1
  2976  001328  C083  F070         	movff	___flmul@prod+2,?___flmul+2
  2977  00132C  C084  F071         	movff	___flmul@prod+3,?___flmul+3
  2978                           
  2979                           ; BSR set to: 0
  2980  001330  0012               	return		;funcret
  2981  001332                     __end_of___flmul:
  2982                           	opt callstack 0
  2983                           
  2984 ;; *************** function ___fladd *****************
  2985 ;; Defined at:
  2986 ;;		line 10 in file "C:\Program Files (x86)\Microchip\xc8\v2.05\pic\sources\c99\common\sprcadd.c"
  2987 ;; Parameters:    Size  Location     Type
  2988 ;;  b               4   39[BANK0 ] unsigned char 
  2989 ;;  a               4   43[BANK0 ] unsigned char 
  2990 ;; Auto vars:     Size  Location     Type
  2991 ;;  grs             1   54[BANK0 ] unsigned char 
  2992 ;;  bexp            1   53[BANK0 ] unsigned char 
  2993 ;;  aexp            1   52[BANK0 ] unsigned char 
  2994 ;;  signs           1   51[BANK0 ] unsigned char 
  2995 ;; Return value:  Size  Location     Type
  2996 ;;                  4   39[BANK0 ] unsigned char 
  2997 ;; Registers used:
  2998 ;;		wreg, status,2, status,0
  2999 ;; Tracked objects:
  3000 ;;		On entry : 0/0
  3001 ;;		On exit  : 0/0
  3002 ;;		Unchanged: 0/0
  3003 ;; Data sizes:     COMRAM   BANK0   BANK1   BANK2   BANK3   BANK4   BANK5   BANK6   BANK7   BANK8   BANK9  BANK10  BANK1
      +1  BANK12  BANK13  BANK14
  3004 ;;      Params:         0       8       0       0       0       0       0       0       0       0       0       0       
      +0       0       0       0
  3005 ;;      Locals:         0       4       0       0       0       0       0       0       0       0       0       0       
      +0       0       0       0
  3006 ;;      Temps:          0       4       0       0       0       0       0       0       0       0       0       0       
      +0       0       0       0
  3007 ;;      Totals:         0      16       0       0       0       0       0       0       0       0       0       0       
      +0       0       0       0
  3008 ;;Total ram usage:       16 bytes
  3009 ;; Hardware stack levels used:    1
  3010 ;; Hardware stack levels required when called:    2
  3011 ;; This function calls:
  3012 ;;		Nothing
  3013 ;; This function is called by:
  3014 ;;		_fijarVelocidad
  3015 ;; This function uses a non-reentrant model
  3016 ;;
  3017                           
  3018                           	psect	text10
  3019  001332                     __ptext10:
  3020                           	opt callstack 0
  3021  001332                     ___fladd:
  3022                           	opt callstack 26
  3023                           
  3024                           ; BSR set to: 0
  3025                           ;incstack = 0
  3026  001332  0100               	movlb	0	; () banked
  3027  001334  518A               	movf	(___fladd@b+3)& (0+255),w,b
  3028  001336  0B80               	andlw	128
  3029  001338  6F93               	movwf	___fladd@signs& (0+255),b
  3030  00133A  518A               	movf	(___fladd@b+3)& (0+255),w,b
  3031  00133C  258A               	addwf	(___fladd@b+3)& (0+255),w,b
  3032  00133E  6F95               	movwf	___fladd@bexp& (0+255),b
  3033                           
  3034                           ; BSR set to: 0
  3035  001340  BF89               	btfsc	(___fladd@b+2)& (0+255),7,b
  3036                           
  3037                           ; BSR set to: 0
  3038  001342  8195               	bsf	___fladd@bexp& (0+255),0,b
  3039                           
  3040                           ; BSR set to: 0
  3041  001344  5195               	movf	___fladd@bexp& (0+255),w,b
  3042  001346  B4D8               	btfsc	status,2,c
  3043  001348  D00D               	goto	l2391
  3044                           
  3045                           ; BSR set to: 0
  3046  00134A  2995               	incf	___fladd@bexp& (0+255),w,b
  3047  00134C  A4D8               	btfss	status,2,c
  3048  00134E  D008               	goto	l2387
  3049                           
  3050                           ; BSR set to: 0
  3051  001350  0E00               	movlw	0
  3052  001352  6F87               	movwf	___fladd@b& (0+255),b
  3053  001354  0E00               	movlw	0
  3054  001356  6F88               	movwf	(___fladd@b+1)& (0+255),b
  3055  001358  0E00               	movlw	0
  3056  00135A  6F89               	movwf	(___fladd@b+2)& (0+255),b
  3057  00135C  0E00               	movlw	0
  3058  00135E  6F8A               	movwf	(___fladd@b+3)& (0+255),b
  3059  001360                     l2387:
  3060                           
  3061                           ; BSR set to: 0
  3062  001360  8F89               	bsf	(___fladd@b+2)& (0+255),7,b
  3063  001362  D006               	goto	L2
  3064  001364                     l2391:
  3065                           
  3066                           ; BSR set to: 0
  3067  001364  0E00               	movlw	0
  3068  001366  6F87               	movwf	___fladd@b& (0+255),b
  3069  001368  0E00               	movlw	0
  3070  00136A  6F88               	movwf	(___fladd@b+1)& (0+255),b
  3071  00136C  0E00               	movlw	0
  3072  00136E  6F89               	movwf	(___fladd@b+2)& (0+255),b
  3073  001370                     L2:
  3074  001370  0E00               	movlw	0
  3075  001372  6F8A               	movwf	(___fladd@b+3)& (0+255),b
  3076                           
  3077                           ; BSR set to: 0
  3078  001374  518E               	movf	(___fladd@a+3)& (0+255),w,b
  3079  001376  0B80               	andlw	128
  3080  001378  6F94               	movwf	___fladd@aexp& (0+255),b
  3081                           
  3082                           ; BSR set to: 0
  3083  00137A  5193               	movf	___fladd@signs& (0+255),w,b
  3084  00137C  1994               	xorwf	___fladd@aexp& (0+255),w,b
  3085  00137E  A4D8               	btfss	status,2,c
  3086                           
  3087                           ; BSR set to: 0
  3088  001380  8D93               	bsf	___fladd@signs& (0+255),6,b
  3089                           
  3090                           ; BSR set to: 0
  3091  001382  518E               	movf	(___fladd@a+3)& (0+255),w,b
  3092  001384  258E               	addwf	(___fladd@a+3)& (0+255),w,b
  3093  001386  6F94               	movwf	___fladd@aexp& (0+255),b
  3094                           
  3095                           ; BSR set to: 0
  3096  001388  BF8D               	btfsc	(___fladd@a+2)& (0+255),7,b
  3097                           
  3098                           ; BSR set to: 0
  3099  00138A  8194               	bsf	___fladd@aexp& (0+255),0,b
  3100                           
  3101                           ; BSR set to: 0
  3102  00138C  5194               	movf	___fladd@aexp& (0+255),w,b
  3103  00138E  B4D8               	btfsc	status,2,c
  3104  001390  D00D               	goto	l2415
  3105                           
  3106                           ; BSR set to: 0
  3107  001392  2994               	incf	___fladd@aexp& (0+255),w,b
  3108  001394  A4D8               	btfss	status,2,c
  3109  001396  D008               	goto	l2411
  3110                           
  3111                           ; BSR set to: 0
  3112  001398  0E00               	movlw	0
  3113  00139A  6F8B               	movwf	___fladd@a& (0+255),b
  3114  00139C  0E00               	movlw	0
  3115  00139E  6F8C               	movwf	(___fladd@a+1)& (0+255),b
  3116  0013A0  0E00               	movlw	0
  3117  0013A2  6F8D               	movwf	(___fladd@a+2)& (0+255),b
  3118  0013A4  0E00               	movlw	0
  3119  0013A6  6F8E               	movwf	(___fladd@a+3)& (0+255),b
  3120  0013A8                     l2411:
  3121                           
  3122                           ; BSR set to: 0
  3123  0013A8  8F8D               	bsf	(___fladd@a+2)& (0+255),7,b
  3124  0013AA  D006               	goto	L3
  3125  0013AC                     l2415:
  3126                           
  3127                           ; BSR set to: 0
  3128  0013AC  0E00               	movlw	0
  3129  0013AE  6F8B               	movwf	___fladd@a& (0+255),b
  3130  0013B0  0E00               	movlw	0
  3131  0013B2  6F8C               	movwf	(___fladd@a+1)& (0+255),b
  3132  0013B4  0E00               	movlw	0
  3133  0013B6  6F8D               	movwf	(___fladd@a+2)& (0+255),b
  3134  0013B8                     L3:
  3135  0013B8  0E00               	movlw	0
  3136  0013BA  6F8E               	movwf	(___fladd@a+3)& (0+255),b
  3137                           
  3138                           ; BSR set to: 0
  3139  0013BC  5195               	movf	___fladd@bexp& (0+255),w,b
  3140  0013BE  5D94               	subwf	___fladd@aexp& (0+255),w,b
  3141  0013C0  B0D8               	btfsc	status,0,c
  3142  0013C2  D022               	goto	l2453
  3143                           
  3144                           ; BSR set to: 0
  3145  0013C4  AD93               	btfss	___fladd@signs& (0+255),6,b
  3146  0013C6  D002               	goto	l2423
  3147                           
  3148                           ; BSR set to: 0
  3149  0013C8  0E80               	movlw	128
  3150  0013CA  1B93               	xorwf	___fladd@signs& (0+255),f,b
  3151  0013CC                     l2423:
  3152                           
  3153                           ; BSR set to: 0
  3154  0013CC  C095  F096         	movff	___fladd@bexp,___fladd@grs
  3155                           
  3156                           ; BSR set to: 0
  3157  0013D0  C094  F095         	movff	___fladd@aexp,___fladd@bexp
  3158                           
  3159                           ; BSR set to: 0
  3160  0013D4  C096  F094         	movff	___fladd@grs,___fladd@aexp
  3161                           
  3162                           ; BSR set to: 0
  3163  0013D8  C087  F096         	movff	___fladd@b,___fladd@grs
  3164                           
  3165                           ; BSR set to: 0
  3166  0013DC  C08B  F087         	movff	___fladd@a,___fladd@b
  3167                           
  3168                           ; BSR set to: 0
  3169  0013E0  C096  F08B         	movff	___fladd@grs,___fladd@a
  3170                           
  3171                           ; BSR set to: 0
  3172  0013E4  C088  F096         	movff	___fladd@b+1,___fladd@grs
  3173                           
  3174                           ; BSR set to: 0
  3175  0013E8  C08C  F088         	movff	___fladd@a+1,___fladd@b+1
  3176                           
  3177                           ; BSR set to: 0
  3178  0013EC  C096  F08C         	movff	___fladd@grs,___fladd@a+1
  3179                           
  3180                           ; BSR set to: 0
  3181  0013F0  C089  F096         	movff	___fladd@b+2,___fladd@grs
  3182                           
  3183                           ; BSR set to: 0
  3184  0013F4  C08D  F089         	movff	___fladd@a+2,___fladd@b+2
  3185                           
  3186                           ; BSR set to: 0
  3187  0013F8  C096  F08D         	movff	___fladd@grs,___fladd@a+2
  3188                           
  3189                           ; BSR set to: 0
  3190  0013FC  C08A  F096         	movff	___fladd@b+3,___fladd@grs
  3191                           
  3192                           ; BSR set to: 0
  3193  001400  C08E  F08A         	movff	___fladd@a+3,___fladd@b+3
  3194                           
  3195                           ; BSR set to: 0
  3196  001404  C096  F08E         	movff	___fladd@grs,___fladd@a+3
  3197  001408                     l2453:
  3198                           
  3199                           ; BSR set to: 0
  3200  001408  0E00               	movlw	0
  3201  00140A  6F96               	movwf	___fladd@grs& (0+255),b
  3202                           
  3203                           ; BSR set to: 0
  3204  00140C  5195               	movf	___fladd@bexp& (0+255),w,b
  3205  00140E  C094  F08F         	movff	___fladd@aexp,??___fladd
  3206  001412  6B90               	clrf	(??___fladd+1)& (0+255),b
  3207  001414  5F8F               	subwf	??___fladd& (0+255),f,b
  3208  001416  0E00               	movlw	0
  3209  001418  5B90               	subwfb	(??___fladd+1)& (0+255),f,b
  3210  00141A  BF90               	btfsc	(??___fladd+1)& (0+255),7,b
  3211  00141C  D02C               	goto	l879
  3212  00141E  5190               	movf	(??___fladd+1)& (0+255),w,b
  3213  001420  E104               	bnz	u1790
  3214  001422  0E1A               	movlw	26
  3215  001424  5D8F               	subwf	??___fladd& (0+255),w,b
  3216  001426  A0D8               	btfss	status,0,c
  3217  001428  D026               	goto	l879
  3218  00142A                     u1790:
  3219                           
  3220                           ; BSR set to: 0
  3221  00142A  5187               	movf	___fladd@b& (0+255),w,b
  3222  00142C  1188               	iorwf	(___fladd@b+1)& (0+255),w,b
  3223  00142E  1189               	iorwf	(___fladd@b+2)& (0+255),w,b
  3224  001430  118A               	iorwf	(___fladd@b+3)& (0+255),w,b
  3225  001432  B4D8               	btfsc	status,2,c
  3226  001434  D002               	goto	u1800
  3227  001436  0E01               	movlw	1
  3228  001438  D001               	goto	u1810
  3229  00143A                     u1800:
  3230  00143A  0E00               	movlw	0
  3231  00143C                     u1810:
  3232  00143C  6F96               	movwf	___fladd@grs& (0+255),b
  3233                           
  3234                           ; BSR set to: 0
  3235  00143E  0E00               	movlw	0
  3236  001440  6F87               	movwf	___fladd@b& (0+255),b
  3237  001442  0E00               	movlw	0
  3238  001444  6F88               	movwf	(___fladd@b+1)& (0+255),b
  3239  001446  0E00               	movlw	0
  3240  001448  6F89               	movwf	(___fladd@b+2)& (0+255),b
  3241  00144A  0E00               	movlw	0
  3242  00144C  6F8A               	movwf	(___fladd@b+3)& (0+255),b
  3243                           
  3244                           ; BSR set to: 0
  3245  00144E  C094  F095         	movff	___fladd@aexp,___fladd@bexp
  3246  001452  D015               	goto	u1840
  3247  001454                     l880:
  3248                           
  3249                           ; BSR set to: 0
  3250  001454  A196               	btfss	___fladd@grs& (0+255),0,b
  3251  001456  D005               	goto	l2465
  3252                           
  3253                           ; BSR set to: 0
  3254  001458  90D8               	bcf	status,0,c
  3255  00145A  3196               	rrcf	___fladd@grs& (0+255),w,b
  3256  00145C  0901               	iorlw	1
  3257  00145E  6F96               	movwf	___fladd@grs& (0+255),b
  3258  001460  D002               	goto	l2467
  3259  001462                     l2465:
  3260                           
  3261                           ; BSR set to: 0
  3262  001462  90D8               	bcf	status,0,c
  3263  001464  3396               	rrcf	___fladd@grs& (0+255),f,b
  3264  001466                     l2467:
  3265                           
  3266                           ; BSR set to: 0
  3267  001466  B187               	btfsc	___fladd@b& (0+255),0,b
  3268                           
  3269                           ; BSR set to: 0
  3270  001468  8F96               	bsf	___fladd@grs& (0+255),7,b
  3271                           
  3272                           ; BSR set to: 0
  3273  00146A  358A               	rlcf	(___fladd@b+3)& (0+255),w,b
  3274  00146C  338A               	rrcf	(___fladd@b+3)& (0+255),f,b
  3275  00146E  3389               	rrcf	(___fladd@b+2)& (0+255),f,b
  3276  001470  3388               	rrcf	(___fladd@b+1)& (0+255),f,b
  3277  001472  3387               	rrcf	___fladd@b& (0+255),f,b
  3278                           
  3279                           ; BSR set to: 0
  3280  001474  2B95               	incf	___fladd@bexp& (0+255),f,b
  3281  001476                     l879:
  3282                           
  3283                           ; BSR set to: 0
  3284  001476  5194               	movf	___fladd@aexp& (0+255),w,b
  3285  001478  5D95               	subwf	___fladd@bexp& (0+255),w,b
  3286  00147A  A0D8               	btfss	status,0,c
  3287  00147C  D7EB               	goto	l880
  3288  00147E                     u1840:
  3289                           
  3290                           ; BSR set to: 0
  3291  00147E  BD93               	btfsc	___fladd@signs& (0+255),6,b
  3292  001480  D028               	goto	l2499
  3293                           
  3294                           ; BSR set to: 0
  3295  001482  5195               	movf	___fladd@bexp& (0+255),w,b
  3296  001484  A4D8               	btfss	status,2,c
  3297  001486  D009               	goto	l2481
  3298                           
  3299                           ; BSR set to: 0
  3300  001488  0E00               	movlw	0
  3301  00148A  6F87               	movwf	?___fladd& (0+255),b
  3302  00148C  0E00               	movlw	0
  3303  00148E  6F88               	movwf	(?___fladd+1)& (0+255),b
  3304  001490  0E00               	movlw	0
  3305  001492  6F89               	movwf	(?___fladd+2)& (0+255),b
  3306  001494  0E00               	movlw	0
  3307  001496  6F8A               	movwf	(?___fladd+3)& (0+255),b
  3308  001498  0012               	return	
  3309  00149A                     l2481:
  3310                           
  3311                           ; BSR set to: 0
  3312  00149A  518B               	movf	___fladd@a& (0+255),w,b
  3313  00149C  2787               	addwf	___fladd@b& (0+255),f,b
  3314  00149E  518C               	movf	(___fladd@a+1)& (0+255),w,b
  3315  0014A0  2388               	addwfc	(___fladd@b+1)& (0+255),f,b
  3316  0014A2  518D               	movf	(___fladd@a+2)& (0+255),w,b
  3317  0014A4  2389               	addwfc	(___fladd@b+2)& (0+255),f,b
  3318  0014A6  518E               	movf	(___fladd@a+3)& (0+255),w,b
  3319  0014A8  238A               	addwfc	(___fladd@b+3)& (0+255),f,b
  3320                           
  3321                           ; BSR set to: 0
  3322  0014AA  A18A               	btfss	(___fladd@b+3)& (0+255),0,b
  3323  0014AC  D071               	goto	u1970
  3324                           
  3325                           ; BSR set to: 0
  3326  0014AE  A196               	btfss	___fladd@grs& (0+255),0,b
  3327  0014B0  D005               	goto	l2489
  3328                           
  3329                           ; BSR set to: 0
  3330  0014B2  90D8               	bcf	status,0,c
  3331  0014B4  3196               	rrcf	___fladd@grs& (0+255),w,b
  3332  0014B6  0901               	iorlw	1
  3333  0014B8  6F96               	movwf	___fladd@grs& (0+255),b
  3334  0014BA  D002               	goto	l2491
  3335  0014BC                     l2489:
  3336                           
  3337                           ; BSR set to: 0
  3338  0014BC  90D8               	bcf	status,0,c
  3339  0014BE  3396               	rrcf	___fladd@grs& (0+255),f,b
  3340  0014C0                     l2491:
  3341                           
  3342                           ; BSR set to: 0
  3343  0014C0  B187               	btfsc	___fladd@b& (0+255),0,b
  3344                           
  3345                           ; BSR set to: 0
  3346  0014C2  8F96               	bsf	___fladd@grs& (0+255),7,b
  3347                           
  3348                           ; BSR set to: 0
  3349  0014C4  358A               	rlcf	(___fladd@b+3)& (0+255),w,b
  3350  0014C6  338A               	rrcf	(___fladd@b+3)& (0+255),f,b
  3351  0014C8  3389               	rrcf	(___fladd@b+2)& (0+255),f,b
  3352  0014CA  3388               	rrcf	(___fladd@b+1)& (0+255),f,b
  3353  0014CC  3387               	rrcf	___fladd@b& (0+255),f,b
  3354                           
  3355                           ; BSR set to: 0
  3356  0014CE  2B95               	incf	___fladd@bexp& (0+255),f,b
  3357  0014D0  D05F               	goto	u1970
  3358  0014D2                     l2499:
  3359                           
  3360                           ; BSR set to: 0
  3361  0014D2  518B               	movf	___fladd@a& (0+255),w,b
  3362  0014D4  5D87               	subwf	___fladd@b& (0+255),w,b
  3363  0014D6  518C               	movf	(___fladd@a+1)& (0+255),w,b
  3364  0014D8  5988               	subwfb	(___fladd@b+1)& (0+255),w,b
  3365  0014DA  518D               	movf	(___fladd@a+2)& (0+255),w,b
  3366  0014DC  5989               	subwfb	(___fladd@b+2)& (0+255),w,b
  3367  0014DE  518A               	movf	(___fladd@b+3)& (0+255),w,b
  3368  0014E0  0A80               	xorlw	128
  3369  0014E2  6F8F               	movwf	??___fladd& (0+255),b
  3370  0014E4  518E               	movf	(___fladd@a+3)& (0+255),w,b
  3371  0014E6  0A80               	xorlw	128
  3372  0014E8  598F               	subwfb	??___fladd& (0+255),w,b
  3373  0014EA  B0D8               	btfsc	status,0,c
  3374  0014EC  D025               	goto	l2509
  3375                           
  3376                           ; BSR set to: 0
  3377  0014EE  5187               	movf	___fladd@b& (0+255),w,b
  3378  0014F0  5D8B               	subwf	___fladd@a& (0+255),w,b
  3379  0014F2  6F8F               	movwf	??___fladd& (0+255),b
  3380  0014F4  5188               	movf	(___fladd@b+1)& (0+255),w,b
  3381  0014F6  598C               	subwfb	(___fladd@a+1)& (0+255),w,b
  3382  0014F8  6F90               	movwf	(??___fladd+1)& (0+255),b
  3383  0014FA  5189               	movf	(___fladd@b+2)& (0+255),w,b
  3384  0014FC  598D               	subwfb	(___fladd@a+2)& (0+255),w,b
  3385  0014FE  6F91               	movwf	(??___fladd+2)& (0+255),b
  3386  001500  518A               	movf	(___fladd@b+3)& (0+255),w,b
  3387  001502  598E               	subwfb	(___fladd@a+3)& (0+255),w,b
  3388  001504  6F92               	movwf	(??___fladd+3)& (0+255),b
  3389  001506  0EFF               	movlw	255
  3390  001508  258F               	addwf	??___fladd& (0+255),w,b
  3391  00150A  6F87               	movwf	___fladd@b& (0+255),b
  3392  00150C  0EFF               	movlw	255
  3393  00150E  2190               	addwfc	(??___fladd+1)& (0+255),w,b
  3394  001510  6F88               	movwf	(___fladd@b+1)& (0+255),b
  3395  001512  0EFF               	movlw	255
  3396  001514  2191               	addwfc	(??___fladd+2)& (0+255),w,b
  3397  001516  6F89               	movwf	(___fladd@b+2)& (0+255),b
  3398  001518  0EFF               	movlw	255
  3399  00151A  2192               	addwfc	(??___fladd+3)& (0+255),w,b
  3400  00151C  6F8A               	movwf	(___fladd@b+3)& (0+255),b
  3401  00151E  0E80               	movlw	128
  3402  001520  1B93               	xorwf	___fladd@signs& (0+255),f,b
  3403                           
  3404                           ; BSR set to: 0
  3405  001522  6D96               	negf	___fladd@grs& (0+255),b
  3406                           
  3407                           ; BSR set to: 0
  3408  001524  5196               	movf	___fladd@grs& (0+255),w,b
  3409  001526  A4D8               	btfss	status,2,c
  3410  001528  D00F               	goto	l895
  3411                           
  3412                           ; BSR set to: 0
  3413  00152A  0E01               	movlw	1
  3414  00152C  2787               	addwf	___fladd@b& (0+255),f,b
  3415  00152E  0E00               	movlw	0
  3416  001530  2388               	addwfc	(___fladd@b+1)& (0+255),f,b
  3417  001532  2389               	addwfc	(___fladd@b+2)& (0+255),f,b
  3418  001534  238A               	addwfc	(___fladd@b+3)& (0+255),f,b
  3419  001536  D008               	goto	l895
  3420  001538                     l2509:
  3421                           
  3422                           ; BSR set to: 0
  3423  001538  518B               	movf	___fladd@a& (0+255),w,b
  3424  00153A  5F87               	subwf	___fladd@b& (0+255),f,b
  3425  00153C  518C               	movf	(___fladd@a+1)& (0+255),w,b
  3426  00153E  5B88               	subwfb	(___fladd@b+1)& (0+255),f,b
  3427  001540  518D               	movf	(___fladd@a+2)& (0+255),w,b
  3428  001542  5B89               	subwfb	(___fladd@b+2)& (0+255),f,b
  3429  001544  518E               	movf	(___fladd@a+3)& (0+255),w,b
  3430  001546  5B8A               	subwfb	(___fladd@b+3)& (0+255),f,b
  3431  001548                     l895:
  3432                           
  3433                           ; BSR set to: 0
  3434  001548  5187               	movf	___fladd@b& (0+255),w,b
  3435  00154A  1188               	iorwf	(___fladd@b+1)& (0+255),w,b
  3436  00154C  1189               	iorwf	(___fladd@b+2)& (0+255),w,b
  3437  00154E  118A               	iorwf	(___fladd@b+3)& (0+255),w,b
  3438  001550  A4D8               	btfss	status,2,c
  3439  001552  D01C               	goto	l2533
  3440                           
  3441                           ; BSR set to: 0
  3442  001554  5196               	movf	___fladd@grs& (0+255),w,b
  3443  001556  A4D8               	btfss	status,2,c
  3444  001558  D019               	goto	l2533
  3445                           
  3446                           ; BSR set to: 0
  3447  00155A  0E00               	movlw	0
  3448  00155C  6F87               	movwf	?___fladd& (0+255),b
  3449  00155E  0E00               	movlw	0
  3450  001560  6F88               	movwf	(?___fladd+1)& (0+255),b
  3451  001562  0E00               	movlw	0
  3452  001564  6F89               	movwf	(?___fladd+2)& (0+255),b
  3453  001566  0E00               	movlw	0
  3454  001568  6F8A               	movwf	(?___fladd+3)& (0+255),b
  3455  00156A  0012               	return	
  3456  00156C                     l2517:
  3457                           
  3458                           ; BSR set to: 0
  3459  00156C  90D8               	bcf	status,0,c
  3460  00156E  3787               	rlcf	___fladd@b& (0+255),f,b
  3461  001570  3788               	rlcf	(___fladd@b+1)& (0+255),f,b
  3462  001572  3789               	rlcf	(___fladd@b+2)& (0+255),f,b
  3463  001574  378A               	rlcf	(___fladd@b+3)& (0+255),f,b
  3464                           
  3465                           ; BSR set to: 0
  3466  001576  BF96               	btfsc	___fladd@grs& (0+255),7,b
  3467                           
  3468                           ; BSR set to: 0
  3469  001578  8187               	bsf	___fladd@b& (0+255),0,b
  3470                           
  3471                           ; BSR set to: 0
  3472  00157A  A196               	btfss	___fladd@grs& (0+255),0,b
  3473  00157C  D002               	goto	l2527
  3474                           
  3475                           ; BSR set to: 0
  3476  00157E  80D8               	bsf	status,0,c
  3477  001580  D001               	goto	L4
  3478  001582                     l2527:
  3479                           
  3480                           ; BSR set to: 0
  3481  001582  90D8               	bcf	status,0,c
  3482  001584                     L4:
  3483  001584  3796               	rlcf	___fladd@grs& (0+255),f,b
  3484                           
  3485                           ; BSR set to: 0
  3486  001586  5195               	movf	___fladd@bexp& (0+255),w,b
  3487  001588  A4D8               	btfss	status,2,c
  3488                           
  3489                           ; BSR set to: 0
  3490  00158A  0795               	decf	___fladd@bexp& (0+255),f,b
  3491  00158C                     l2533:
  3492                           
  3493                           ; BSR set to: 0
  3494  00158C  AF89               	btfss	(___fladd@b+2)& (0+255),7,b
  3495  00158E  D7EE               	goto	l2517
  3496  001590                     u1970:
  3497                           
  3498                           ; BSR set to: 0
  3499  001590  0E00               	movlw	0
  3500  001592  6F94               	movwf	___fladd@aexp& (0+255),b
  3501                           
  3502                           ; BSR set to: 0
  3503  001594  AF96               	btfss	___fladd@grs& (0+255),7,b
  3504  001596  D00B               	goto	l904
  3505                           
  3506                           ; BSR set to: 0
  3507  001598  C096  F08F         	movff	___fladd@grs,??___fladd
  3508  00159C  0E7F               	movlw	127
  3509  00159E  178F               	andwf	??___fladd& (0+255),f,b
  3510  0015A0  B4D8               	btfsc	status,2,c
  3511  0015A2  D003               	goto	l905
  3512  0015A4                     u1990:
  3513                           
  3514                           ; BSR set to: 0
  3515  0015A4  0E01               	movlw	1
  3516  0015A6  6F94               	movwf	___fladd@aexp& (0+255),b
  3517  0015A8  D002               	goto	l904
  3518  0015AA                     l905:
  3519                           
  3520                           ; BSR set to: 0
  3521  0015AA  B187               	btfsc	___fladd@b& (0+255),0,b
  3522  0015AC  D7FB               	goto	u1990
  3523  0015AE                     l904:
  3524                           
  3525                           ; BSR set to: 0
  3526  0015AE  5194               	movf	___fladd@aexp& (0+255),w,b
  3527  0015B0  B4D8               	btfsc	status,2,c
  3528  0015B2  D020               	goto	l2553
  3529                           
  3530                           ; BSR set to: 0
  3531  0015B4  0E01               	movlw	1
  3532  0015B6  2787               	addwf	___fladd@b& (0+255),f,b
  3533  0015B8  0E00               	movlw	0
  3534  0015BA  2388               	addwfc	(___fladd@b+1)& (0+255),f,b
  3535  0015BC  2389               	addwfc	(___fladd@b+2)& (0+255),f,b
  3536  0015BE  238A               	addwfc	(___fladd@b+3)& (0+255),f,b
  3537                           
  3538                           ; BSR set to: 0
  3539  0015C0  A18A               	btfss	(___fladd@b+3)& (0+255),0,b
  3540  0015C2  D018               	goto	l2553
  3541                           
  3542                           ; BSR set to: 0
  3543  0015C4  C087  F08F         	movff	___fladd@b,??___fladd
  3544  0015C8  C088  F090         	movff	___fladd@b+1,??___fladd+1
  3545  0015CC  C089  F091         	movff	___fladd@b+2,??___fladd+2
  3546  0015D0  C08A  F092         	movff	___fladd@b+3,??___fladd+3
  3547  0015D4  3592               	rlcf	(??___fladd+3)& (0+255),w,b
  3548  0015D6  3392               	rrcf	(??___fladd+3)& (0+255),f,b
  3549  0015D8  3391               	rrcf	(??___fladd+2)& (0+255),f,b
  3550  0015DA  3390               	rrcf	(??___fladd+1)& (0+255),f,b
  3551  0015DC  338F               	rrcf	??___fladd& (0+255),f,b
  3552  0015DE  C08F  F087         	movff	??___fladd,___fladd@b
  3553  0015E2  C090  F088         	movff	??___fladd+1,___fladd@b+1
  3554  0015E6  C091  F089         	movff	??___fladd+2,___fladd@b+2
  3555  0015EA  C092  F08A         	movff	??___fladd+3,___fladd@b+3
  3556  0015EE  2995               	incf	___fladd@bexp& (0+255),w,b
  3557  0015F0  A4D8               	btfss	status,2,c
  3558                           
  3559                           ; BSR set to: 0
  3560  0015F2  2B95               	incf	___fladd@bexp& (0+255),f,b
  3561  0015F4                     l2553:
  3562                           
  3563                           ; BSR set to: 0
  3564  0015F4  2995               	incf	___fladd@bexp& (0+255),w,b
  3565  0015F6  B4D8               	btfsc	status,2,c
  3566  0015F8  D003               	goto	u2050
  3567                           
  3568                           ; BSR set to: 0
  3569  0015FA  5195               	movf	___fladd@bexp& (0+255),w,b
  3570  0015FC  A4D8               	btfss	status,2,c
  3571  0015FE  D00D               	goto	l2561
  3572  001600                     u2050:
  3573                           
  3574                           ; BSR set to: 0
  3575  001600  0E00               	movlw	0
  3576  001602  6F87               	movwf	___fladd@b& (0+255),b
  3577  001604  0E00               	movlw	0
  3578  001606  6F88               	movwf	(___fladd@b+1)& (0+255),b
  3579  001608  0E00               	movlw	0
  3580  00160A  6F89               	movwf	(___fladd@b+2)& (0+255),b
  3581  00160C  0E00               	movlw	0
  3582  00160E  6F8A               	movwf	(___fladd@b+3)& (0+255),b
  3583  001610  5195               	movf	___fladd@bexp& (0+255),w,b
  3584  001612  A4D8               	btfss	status,2,c
  3585  001614  D002               	goto	l2561
  3586                           
  3587                           ; BSR set to: 0
  3588  001616  0E00               	movlw	0
  3589  001618  6F93               	movwf	___fladd@signs& (0+255),b
  3590  00161A                     l2561:
  3591                           
  3592                           ; BSR set to: 0
  3593  00161A  A195               	btfss	___fladd@bexp& (0+255),0,b
  3594  00161C  D002               	goto	l2565
  3595                           
  3596                           ; BSR set to: 0
  3597  00161E  8F89               	bsf	(___fladd@b+2)& (0+255),7,b
  3598  001620  D001               	goto	l2567
  3599  001622                     l2565:
  3600                           
  3601                           ; BSR set to: 0
  3602  001622  9F89               	bcf	(___fladd@b+2)& (0+255),7,b
  3603  001624                     l2567:
  3604                           
  3605                           ; BSR set to: 0
  3606  001624  90D8               	bcf	status,0,c
  3607  001626  3195               	rrcf	___fladd@bexp& (0+255),w,b
  3608  001628  6F8A               	movwf	(___fladd@b+3)& (0+255),b
  3609                           
  3610                           ; BSR set to: 0
  3611  00162A  BF93               	btfsc	___fladd@signs& (0+255),7,b
  3612                           
  3613                           ; BSR set to: 0
  3614  00162C  8F8A               	bsf	(___fladd@b+3)& (0+255),7,b
  3615                           
  3616                           ; BSR set to: 0
  3617  00162E  C087  F087         	movff	___fladd@b,?___fladd
  3618  001632  C088  F088         	movff	___fladd@b+1,?___fladd+1
  3619  001636  C089  F089         	movff	___fladd@b+2,?___fladd+2
  3620  00163A  C08A  F08A         	movff	___fladd@b+3,?___fladd+3
  3621                           
  3622                           ; BSR set to: 0
  3623  00163E  0012               	return		;funcret
  3624  001640                     __end_of___fladd:
  3625                           	opt callstack 0
  3626                           
  3627 ;; *************** function _enviarRS232 *****************
  3628 ;; Defined at:
  3629 ;;		line 65 in file "./../LIBRERIAS/funciones_auto.h"
  3630 ;; Parameters:    Size  Location     Type
  3631 ;;  valores         2    8[BANK0 ] PTR unsigned char 
  3632 ;;		 -> STR_11(7), STR_10(25), STR_9(27), STR_8(21), 
  3633 ;;		 -> STR_7(20), STR_6(23), STR_5(14), STR_4(29), 
  3634 ;;		 -> STR_3(21), STR_2(24), STR_1(9), 
  3635 ;; Auto vars:     Size  Location     Type
  3636 ;;  i               1   14[BANK0 ] unsigned char 
  3637 ;;  longitud_tex    2   12[BANK0 ] unsigned int 
  3638 ;; Return value:  Size  Location     Type
  3639 ;;                  1    wreg      void 
  3640 ;; Registers used:
  3641 ;;		wreg, status,2, status,0, tblptrl, tblptrh, tblptru, cstack
  3642 ;; Tracked objects:
  3643 ;;		On entry : 0/0
  3644 ;;		On exit  : 0/0
  3645 ;;		Unchanged: 0/0
  3646 ;; Data sizes:     COMRAM   BANK0   BANK1   BANK2   BANK3   BANK4   BANK5   BANK6   BANK7   BANK8   BANK9  BANK10  BANK1
      +1  BANK12  BANK13  BANK14
  3647 ;;      Params:         0       2       0       0       0       0       0       0       0       0       0       0       
      +0       0       0       0
  3648 ;;      Locals:         0       3       0       0       0       0       0       0       0       0       0       0       
      +0       0       0       0
  3649 ;;      Temps:          0       2       0       0       0       0       0       0       0       0       0       0       
      +0       0       0       0
  3650 ;;      Totals:         0       7       0       0       0       0       0       0       0       0       0       0       
      +0       0       0       0
  3651 ;;Total ram usage:        7 bytes
  3652 ;; Hardware stack levels used:    1
  3653 ;; Hardware stack levels required when called:    3
  3654 ;; This function calls:
  3655 ;;		_length
  3656 ;; This function is called by:
  3657 ;;		_main
  3658 ;;		_terminal
  3659 ;;		_rutinaEscape
  3660 ;; This function uses a non-reentrant model
  3661 ;;
  3662                           
  3663                           	psect	text11
  3664  0023A2                     __ptext11:
  3665                           	opt callstack 0
  3666  0023A2                     _enviarRS232:
  3667                           	opt callstack 26
  3668                           
  3669                           ;./../LIBRERIAS/funciones_auto.h: 66:     unsigned int longitud_texto = length(valores);
  3670                           
  3671                           ; BSR set to: 0
  3672                           ;incstack = 0
  3673  0023A2  C068  F060         	movff	enviarRS232@valores,length@text
  3674  0023A6  C069  F061         	movff	enviarRS232@valores+1,length@text+1
  3675  0023AA  EC34  F012         	call	_length	;wreg free
  3676  0023AE  C060  F06C         	movff	?_length,enviarRS232@longitud_texto
  3677  0023B2  C061  F06D         	movff	?_length+1,enviarRS232@longitud_texto+1
  3678                           
  3679                           ;./../LIBRERIAS/funciones_auto.h: 67:     for(unsigned char i = 0; i<longitud_texto; i++
      +                          ){
  3680  0023B6  0E00               	movlw	0
  3681  0023B8  0100               	movlb	0	; () banked
  3682  0023BA  6F6E               	movwf	enviarRS232@i& (0+255),b
  3683  0023BC  D01A               	goto	l4013
  3684  0023BE                     l4007:
  3685                           
  3686                           ; BSR set to: 0
  3687                           ;./../LIBRERIAS/funciones_auto.h: 68:         TXREG1 = valores[i];
  3688  0023BE  516E               	movf	enviarRS232@i& (0+255),w,b
  3689  0023C0  2568               	addwf	enviarRS232@valores& (0+255),w,b
  3690  0023C2  6F6A               	movwf	??_enviarRS232& (0+255),b
  3691  0023C4  0E00               	movlw	0
  3692  0023C6  2169               	addwfc	(enviarRS232@valores+1)& (0+255),w,b
  3693  0023C8  6F6B               	movwf	(??_enviarRS232+1)& (0+255),b
  3694  0023CA  C06A  FFF6         	movff	??_enviarRS232,tblptrl
  3695  0023CE  C06B  FFF7         	movff	??_enviarRS232+1,tblptrh
  3696  0023D2                     	if	0	;tblptru may be non-zero
  3697  0023D2                     	endif
  3698  0023D2                     	if	1	;Program memory is > 0xFFFF, there are 3 active tblptr bytes
  3699  0023D2  0E00               	movlw	low (__mediumconst shr (0+16))
  3700  0023D4  6EF8               	movwf	tblptru,c
  3701  0023D6                     	endif
  3702  0023D6  0008               	tblrd		*
  3703  0023D8  CFF5 FFAE          	movff	tablat,4014	;volatile
  3704                           
  3705                           ; BSR set to: 0
  3706                           ;./../LIBRERIAS/funciones_auto.h: 69:         _delay((unsigned long)((3)*(48000000/4000.
      +                          0)));
  3707  0023DC  0E2F               	movlw	47
  3708  0023DE  0100               	movlb	0	; () banked
  3709  0023E0  6F6A               	movwf	??_enviarRS232& (0+255),b
  3710  0023E2  0EBF               	movlw	191
  3711  0023E4                     u3947:
  3712  0023E4  2EE8               	decfsz	wreg,f,c
  3713  0023E6  D7FE               	bra	u3947
  3714  0023E8  2F6A               	decfsz	??_enviarRS232& (0+255),f,b
  3715  0023EA  D7FC               	bra	u3947
  3716  0023EC  D000               	nop2	
  3717                           
  3718                           ;./../LIBRERIAS/funciones_auto.h: 70:     }
  3719  0023EE  0100               	movlb	0	; () banked
  3720  0023F0  2B6E               	incf	enviarRS232@i& (0+255),f,b
  3721  0023F2                     l4013:
  3722                           
  3723                           ; BSR set to: 0
  3724  0023F2  516E               	movf	enviarRS232@i& (0+255),w,b
  3725  0023F4  6F6A               	movwf	??_enviarRS232& (0+255),b
  3726  0023F6  6B6B               	clrf	(??_enviarRS232+1)& (0+255),b
  3727  0023F8  516C               	movf	enviarRS232@longitud_texto& (0+255),w,b
  3728  0023FA  5D6A               	subwf	??_enviarRS232& (0+255),w,b
  3729  0023FC  516D               	movf	(enviarRS232@longitud_texto+1)& (0+255),w,b
  3730  0023FE  596B               	subwfb	(??_enviarRS232+1)& (0+255),w,b
  3731  002400  B0D8               	btfsc	status,0,c
  3732  002402  0012               	return	
  3733  002404  D7DC               	goto	l4007
  3734  002406                     __end_of_enviarRS232:
  3735                           	opt callstack 0
  3736                           
  3737 ;; *************** function _length *****************
  3738 ;; Defined at:
  3739 ;;		line 73 in file "./../LIBRERIAS/funciones_auto.h"
  3740 ;; Parameters:    Size  Location     Type
  3741 ;;  text            2    0[BANK0 ] PTR unsigned char 
  3742 ;;		 -> STR_11(7), STR_10(25), STR_9(27), STR_8(21), 
  3743 ;;		 -> STR_7(20), STR_6(23), STR_5(14), STR_4(29), 
  3744 ;;		 -> STR_3(21), STR_2(24), STR_1(9), 
  3745 ;; Auto vars:     Size  Location     Type
  3746 ;;  longitud        2    4[BANK0 ] int 
  3747 ;;  i               1    7[BANK0 ] unsigned char 
  3748 ;;  dato            1    6[BANK0 ] unsigned char 
  3749 ;; Return value:  Size  Location     Type
  3750 ;;                  2    0[BANK0 ] int 
  3751 ;; Registers used:
  3752 ;;		wreg, status,2, status,0, tblptrl, tblptrh, tblptru
  3753 ;; Tracked objects:
  3754 ;;		On entry : 0/0
  3755 ;;		On exit  : 0/0
  3756 ;;		Unchanged: 0/0
  3757 ;; Data sizes:     COMRAM   BANK0   BANK1   BANK2   BANK3   BANK4   BANK5   BANK6   BANK7   BANK8   BANK9  BANK10  BANK1
      +1  BANK12  BANK13  BANK14
  3758 ;;      Params:         0       2       0       0       0       0       0       0       0       0       0       0       
      +0       0       0       0
  3759 ;;      Locals:         0       4       0       0       0       0       0       0       0       0       0       0       
      +0       0       0       0
  3760 ;;      Temps:          0       2       0       0       0       0       0       0       0       0       0       0       
      +0       0       0       0
  3761 ;;      Totals:         0       8       0       0       0       0       0       0       0       0       0       0       
      +0       0       0       0
  3762 ;;Total ram usage:        8 bytes
  3763 ;; Hardware stack levels used:    1
  3764 ;; Hardware stack levels required when called:    2
  3765 ;; This function calls:
  3766 ;;		Nothing
  3767 ;; This function is called by:
  3768 ;;		_enviarRS232
  3769 ;; This function uses a non-reentrant model
  3770 ;;
  3771                           
  3772                           	psect	text12
  3773  002468                     __ptext12:
  3774                           	opt callstack 0
  3775  002468                     _length:
  3776                           	opt callstack 26
  3777                           
  3778                           ;./../LIBRERIAS/funciones_auto.h: 74:     unsigned char dato = text[0], i = 1;
  3779                           
  3780                           ; BSR set to: 0
  3781                           ;incstack = 0
  3782  002468  C060  FFF6         	movff	length@text,tblptrl
  3783  00246C  C061  FFF7         	movff	length@text+1,tblptrh
  3784  002470                     	if	0	;tblptru may be non-zero
  3785  002470                     	endif
  3786  002470                     	if	1	;Program memory is > 0xFFFF, there are 3 active tblptr bytes
  3787  002470  0E00               	movlw	low (__mediumconst shr (0+16))
  3788  002472  6EF8               	movwf	tblptru,c
  3789  002474                     	endif
  3790  002474  0008               	tblrd		*
  3791  002476  CFF5 F066          	movff	tablat,length@dato
  3792  00247A  0E01               	movlw	1
  3793  00247C  0100               	movlb	0	; () banked
  3794  00247E  6F67               	movwf	length@i& (0+255),b
  3795                           
  3796                           ; BSR set to: 0
  3797                           ;./../LIBRERIAS/funciones_auto.h: 75:     int longitud = 0;
  3798  002480  0E00               	movlw	0
  3799  002482  6F65               	movwf	(length@longitud+1)& (0+255),b
  3800  002484  0E00               	movlw	0
  3801  002486  6F64               	movwf	length@longitud& (0+255),b
  3802                           
  3803                           ;./../LIBRERIAS/funciones_auto.h: 76:     while(dato != '\0'){
  3804  002488  D012               	goto	l3727
  3805  00248A                     l3721:
  3806                           
  3807                           ; BSR set to: 0
  3808                           ;./../LIBRERIAS/funciones_auto.h: 77:         dato = text[i];
  3809  00248A  5167               	movf	length@i& (0+255),w,b
  3810  00248C  2560               	addwf	length@text& (0+255),w,b
  3811  00248E  6F62               	movwf	??_length& (0+255),b
  3812  002490  0E00               	movlw	0
  3813  002492  2161               	addwfc	(length@text+1)& (0+255),w,b
  3814  002494  6F63               	movwf	(??_length+1)& (0+255),b
  3815  002496  C062  FFF6         	movff	??_length,tblptrl
  3816  00249A  C063  FFF7         	movff	??_length+1,tblptrh
  3817  00249E                     	if	0	;tblptru may be non-zero
  3818  00249E                     	endif
  3819  00249E                     	if	1	;Program memory is > 0xFFFF, there are 3 active tblptr bytes
  3820  00249E  0E00               	movlw	low (__mediumconst shr (0+16))
  3821  0024A0  6EF8               	movwf	tblptru,c
  3822  0024A2                     	endif
  3823  0024A2  0008               	tblrd		*
  3824  0024A4  CFF5 F066          	movff	tablat,length@dato
  3825                           
  3826                           ; BSR set to: 0
  3827                           ;./../LIBRERIAS/funciones_auto.h: 78:         i++;
  3828  0024A8  2B67               	incf	length@i& (0+255),f,b
  3829                           
  3830                           ; BSR set to: 0
  3831                           ;./../LIBRERIAS/funciones_auto.h: 79:         longitud++;
  3832  0024AA  4B64               	infsnz	length@longitud& (0+255),f,b
  3833  0024AC  2B65               	incf	(length@longitud+1)& (0+255),f,b
  3834  0024AE                     l3727:
  3835                           
  3836                           ; BSR set to: 0
  3837                           ;./../LIBRERIAS/funciones_auto.h: 76:     while(dato != '\0'){
  3838  0024AE  5166               	movf	length@dato& (0+255),w,b
  3839  0024B0  A4D8               	btfss	status,2,c
  3840  0024B2  D7EB               	goto	l3721
  3841                           
  3842                           ; BSR set to: 0
  3843                           ;./../LIBRERIAS/funciones_auto.h: 81:     return longitud;
  3844  0024B4  C064  F060         	movff	length@longitud,?_length
  3845  0024B8  C065  F061         	movff	length@longitud+1,?_length+1
  3846                           
  3847                           ; BSR set to: 0
  3848  0024BC  0012               	return		;funcret
  3849  0024BE                     __end_of_length:
  3850                           	opt callstack 0
  3851                           
  3852 ;; *************** function _encenderMotor *****************
  3853 ;; Defined at:
  3854 ;;		line 48 in file "./../LIBRERIAS/funciones_auto.h"
  3855 ;; Parameters:    Size  Location     Type
  3856 ;;		None
  3857 ;; Auto vars:     Size  Location     Type
  3858 ;;		None
  3859 ;; Return value:  Size  Location     Type
  3860 ;;                  1    wreg      void 
  3861 ;; Registers used:
  3862 ;;		wreg, status,2, status,0, cstack
  3863 ;; Tracked objects:
  3864 ;;		On entry : 0/0
  3865 ;;		On exit  : 0/0
  3866 ;;		Unchanged: 0/0
  3867 ;; Data sizes:     COMRAM   BANK0   BANK1   BANK2   BANK3   BANK4   BANK5   BANK6   BANK7   BANK8   BANK9  BANK10  BANK1
      +1  BANK12  BANK13  BANK14
  3868 ;;      Params:         0       0       0       0       0       0       0       0       0       0       0       0       
      +0       0       0       0
  3869 ;;      Locals:         0       0       0       0       0       0       0       0       0       0       0       0       
      +0       0       0       0
  3870 ;;      Temps:          0       0       0       0       0       0       0       0       0       0       0       0       
      +0       0       0       0
  3871 ;;      Totals:         0       0       0       0       0       0       0       0       0       0       0       0       
      +0       0       0       0
  3872 ;;Total ram usage:        0 bytes
  3873 ;; Hardware stack levels used:    1
  3874 ;; Hardware stack levels required when called:    3
  3875 ;; This function calls:
  3876 ;;		_definirVelocidad
  3877 ;;		_rutinaArranque
  3878 ;; This function is called by:
  3879 ;;		_terminal
  3880 ;;		_rutinaEscape
  3881 ;; This function uses a non-reentrant model
  3882 ;;
  3883                           
  3884                           	psect	text13
  3885  0026AE                     __ptext13:
  3886                           	opt callstack 0
  3887  0026AE                     _encenderMotor:
  3888                           	opt callstack 26
  3889                           
  3890                           ;./../LIBRERIAS/funciones_auto.h: 49:     rutinaArranque();
  3891                           
  3892                           ; BSR set to: 0
  3893                           ;incstack = 0
  3894  0026AE  ECC9  F012         	call	_rutinaArranque	;wreg free
  3895                           
  3896                           ;./../LIBRERIAS/funciones_auto.h: 50:     definirVelocidad();
  3897  0026B2  ECAC  F012         	call	_definirVelocidad	;wreg free
  3898                           
  3899                           ;./../LIBRERIAS/funciones_auto.h: 51:     motor = 1;
  3900  0026B6  0E01               	movlw	1
  3901  0026B8  6E41               	movwf	_motor,c
  3902  0026BA  0012               	return		;funcret
  3903  0026BC                     __end_of_encenderMotor:
  3904                           	opt callstack 0
  3905                           
  3906 ;; *************** function _rutinaArranque *****************
  3907 ;; Defined at:
  3908 ;;		line 25 in file "./../LIBRERIAS/funciones_auto.h"
  3909 ;; Parameters:    Size  Location     Type
  3910 ;;		None
  3911 ;; Auto vars:     Size  Location     Type
  3912 ;;		None
  3913 ;; Return value:  Size  Location     Type
  3914 ;;                  1    wreg      void 
  3915 ;; Registers used:
  3916 ;;		wreg, status,2
  3917 ;; Tracked objects:
  3918 ;;		On entry : 0/0
  3919 ;;		On exit  : 0/0
  3920 ;;		Unchanged: 0/0
  3921 ;; Data sizes:     COMRAM   BANK0   BANK1   BANK2   BANK3   BANK4   BANK5   BANK6   BANK7   BANK8   BANK9  BANK10  BANK1
      +1  BANK12  BANK13  BANK14
  3922 ;;      Params:         0       0       0       0       0       0       0       0       0       0       0       0       
      +0       0       0       0
  3923 ;;      Locals:         0       0       0       0       0       0       0       0       0       0       0       0       
      +0       0       0       0
  3924 ;;      Temps:          0       2       0       0       0       0       0       0       0       0       0       0       
      +0       0       0       0
  3925 ;;      Totals:         0       2       0       0       0       0       0       0       0       0       0       0       
      +0       0       0       0
  3926 ;;Total ram usage:        2 bytes
  3927 ;; Hardware stack levels used:    1
  3928 ;; Hardware stack levels required when called:    2
  3929 ;; This function calls:
  3930 ;;		Nothing
  3931 ;; This function is called by:
  3932 ;;		_encenderMotor
  3933 ;; This function uses a non-reentrant model
  3934 ;;
  3935                           
  3936                           	psect	text14
  3937  002592                     __ptext14:
  3938                           	opt callstack 0
  3939  002592                     _rutinaArranque:
  3940                           	opt callstack 26
  3941                           
  3942                           ;./../LIBRERIAS/funciones_auto.h: 26:     CCP7CONbits.DC7B = cicle_90 & 0x0003;
  3943                           
  3944                           ;incstack = 0
  3945  002592  010F               	movlb	15	; () banked
  3946  002594  5109               	movf	9,w,b	;volatile
  3947  002596  0BCF               	andlw	-49
  3948  002598  0920               	iorlw	32
  3949  00259A  6F09               	movwf	9,b	;volatile
  3950                           
  3951                           ;./../LIBRERIAS/funciones_auto.h: 27:     CCPR7L = cicle_90>>2;
  3952  00259C  0E70               	movlw	112
  3953  00259E  6F0A               	movwf	10,b	;volatile
  3954                           
  3955                           ; BSR set to: 15
  3956                           ;./../LIBRERIAS/funciones_auto.h: 28:     T2CONbits.TMR2ON = 1;
  3957  0025A0  84CA               	bsf	4042,2,c	;volatile
  3958                           
  3959                           ; BSR set to: 15
  3960                           ;./../LIBRERIAS/funciones_auto.h: 29:     _delay((unsigned long)((50)*(48000000/4000.0))
      +                          );
  3961  0025A2  0E04               	movlw	4
  3962  0025A4  0100               	movlb	0	; () banked
  3963  0025A6  6F61               	movwf	(??_rutinaArranque+1)& (0+255),b
  3964  0025A8  0E0C               	movlw	12
  3965  0025AA  6F60               	movwf	??_rutinaArranque& (0+255),b
  3966  0025AC  0E33               	movlw	51
  3967  0025AE                     u3957:
  3968  0025AE  2EE8               	decfsz	wreg,f,c
  3969  0025B0  D7FE               	bra	u3957
  3970  0025B2  2F60               	decfsz	??_rutinaArranque& (0+255),f,b
  3971  0025B4  D7FC               	bra	u3957
  3972  0025B6  2F61               	decfsz	(??_rutinaArranque+1)& (0+255),f,b
  3973  0025B8  D7FA               	bra	u3957
  3974  0025BA  D000               	nop2	
  3975  0025BC  0012               	return		;funcret
  3976  0025BE                     __end_of_rutinaArranque:
  3977                           	opt callstack 0
  3978                           
  3979 ;; *************** function _definirVelocidad *****************
  3980 ;; Defined at:
  3981 ;;		line 54 in file "./../LIBRERIAS/funciones_auto.h"
  3982 ;; Parameters:    Size  Location     Type
  3983 ;;		None
  3984 ;; Auto vars:     Size  Location     Type
  3985 ;;		None
  3986 ;; Return value:  Size  Location     Type
  3987 ;;                  1    wreg      void 
  3988 ;; Registers used:
  3989 ;;		wreg, status,2, status,0
  3990 ;; Tracked objects:
  3991 ;;		On entry : 0/0
  3992 ;;		On exit  : 0/0
  3993 ;;		Unchanged: 0/0
  3994 ;; Data sizes:     COMRAM   BANK0   BANK1   BANK2   BANK3   BANK4   BANK5   BANK6   BANK7   BANK8   BANK9  BANK10  BANK1
      +1  BANK12  BANK13  BANK14
  3995 ;;      Params:         0       0       0       0       0       0       0       0       0       0       0       0       
      +0       0       0       0
  3996 ;;      Locals:         0       0       0       0       0       0       0       0       0       0       0       0       
      +0       0       0       0
  3997 ;;      Temps:          0       2       0       0       0       0       0       0       0       0       0       0       
      +0       0       0       0
  3998 ;;      Totals:         0       2       0       0       0       0       0       0       0       0       0       0       
      +0       0       0       0
  3999 ;;Total ram usage:        2 bytes
  4000 ;; Hardware stack levels used:    1
  4001 ;; Hardware stack levels required when called:    2
  4002 ;; This function calls:
  4003 ;;		Nothing
  4004 ;; This function is called by:
  4005 ;;		_encenderMotor
  4006 ;;		_cambiarPWM
  4007 ;; This function uses a non-reentrant model
  4008 ;;
  4009                           
  4010                           	psect	text15
  4011  002558                     __ptext15:
  4012                           	opt callstack 0
  4013  002558                     _definirVelocidad:
  4014                           	opt callstack 26
  4015                           
  4016                           ;./../LIBRERIAS/funciones_auto.h: 55:     CCP7CONbits.DC7B = velocidad & 0x0003;
  4017                           
  4018                           ;incstack = 0
  4019  002558  C0DF  F060         	movff	_velocidad,??_definirVelocidad
  4020  00255C  0E03               	movlw	3
  4021  00255E  0100               	movlb	0	; () banked
  4022  002560  1760               	andwf	??_definirVelocidad& (0+255),f,b
  4023  002562  3B60               	swapf	??_definirVelocidad& (0+255),f,b
  4024  002564  010F               	movlb	15	; () banked
  4025  002566  5109               	movf	9,w,b	;volatile
  4026  002568  0100               	movlb	0	; () banked
  4027  00256A  1960               	xorwf	??_definirVelocidad& (0+255),w,b
  4028  00256C  0BCF               	andlw	-49
  4029  00256E  1960               	xorwf	??_definirVelocidad& (0+255),w,b
  4030  002570  010F               	movlb	15	; () banked
  4031  002572  6F09               	movwf	9,b	;volatile
  4032                           
  4033                           ;./../LIBRERIAS/funciones_auto.h: 56:     CCPR7L = velocidad>>2;
  4034  002574  C0DF  F060         	movff	_velocidad,??_definirVelocidad
  4035  002578  C0E0  F061         	movff	_velocidad+1,??_definirVelocidad+1
  4036  00257C  0100               	movlb	0	; () banked
  4037  00257E  90D8               	bcf	status,0,c
  4038  002580  3361               	rrcf	(??_definirVelocidad+1)& (0+255),f,b
  4039  002582  3360               	rrcf	??_definirVelocidad& (0+255),f,b
  4040  002584  90D8               	bcf	status,0,c
  4041  002586  3361               	rrcf	(??_definirVelocidad+1)& (0+255),f,b
  4042  002588  3360               	rrcf	??_definirVelocidad& (0+255),f,b
  4043  00258A  5160               	movf	??_definirVelocidad& (0+255),w,b
  4044  00258C  010F               	movlb	15	; () banked
  4045  00258E  6F0A               	movwf	10,b	;volatile
  4046                           
  4047                           ; BSR set to: 15
  4048  002590  0012               	return		;funcret
  4049  002592                     __end_of_definirVelocidad:
  4050                           	opt callstack 0
  4051                           
  4052 ;; *************** function _adelante *****************
  4053 ;; Defined at:
  4054 ;;		line 328 in file "auto.c"
  4055 ;; Parameters:    Size  Location     Type
  4056 ;;		None
  4057 ;; Auto vars:     Size  Location     Type
  4058 ;;		None
  4059 ;; Return value:  Size  Location     Type
  4060 ;;                  1    wreg      void 
  4061 ;; Registers used:
  4062 ;;		wreg, status,2
  4063 ;; Tracked objects:
  4064 ;;		On entry : 0/0
  4065 ;;		On exit  : 0/0
  4066 ;;		Unchanged: 0/0
  4067 ;; Data sizes:     COMRAM   BANK0   BANK1   BANK2   BANK3   BANK4   BANK5   BANK6   BANK7   BANK8   BANK9  BANK10  BANK1
      +1  BANK12  BANK13  BANK14
  4068 ;;      Params:         0       0       0       0       0       0       0       0       0       0       0       0       
      +0       0       0       0
  4069 ;;      Locals:         0       0       0       0       0       0       0       0       0       0       0       0       
      +0       0       0       0
  4070 ;;      Temps:          0       0       0       0       0       0       0       0       0       0       0       0       
      +0       0       0       0
  4071 ;;      Totals:         0       0       0       0       0       0       0       0       0       0       0       0       
      +0       0       0       0
  4072 ;;Total ram usage:        0 bytes
  4073 ;; Hardware stack levels used:    1
  4074 ;; Hardware stack levels required when called:    2
  4075 ;; This function calls:
  4076 ;;		Nothing
  4077 ;; This function is called by:
  4078 ;;		_terminal
  4079 ;;		_rutinaEscape
  4080 ;; This function uses a non-reentrant model
  4081 ;;
  4082                           
  4083                           	psect	text16
  4084  0026BC                     __ptext16:
  4085                           	opt callstack 0
  4086  0026BC                     _adelante:
  4087                           	opt callstack 27
  4088                           
  4089                           ;auto.c: 329:     estado = 'w';
  4090                           
  4091                           ; BSR set to: 15
  4092                           ;incstack = 0
  4093  0026BC  0E77               	movlw	119
  4094  0026BE  6E3C               	movwf	_estado,c
  4095                           
  4096                           ;auto.c: 330:     PORTAbits.RA0 = 0;
  4097  0026C0  9080               	bcf	3968,0,c	;volatile
  4098                           
  4099                           ;auto.c: 331:     PORTAbits.RA1 = 0;
  4100  0026C2  9280               	bcf	3968,1,c	;volatile
  4101                           
  4102                           ;auto.c: 332:     PORTAbits.RA0 = 1;
  4103  0026C4  8080               	bsf	3968,0,c	;volatile
  4104                           
  4105                           ;auto.c: 333:     PORTAbits.RA1 = 0;
  4106  0026C6  9280               	bcf	3968,1,c	;volatile
  4107  0026C8  0012               	return		;funcret
  4108  0026CA                     __end_of_adelante:
  4109                           	opt callstack 0
  4110                           
  4111 ;; *************** function _configuracionInicial *****************
  4112 ;; Defined at:
  4113 ;;		line 176 in file "auto.c"
  4114 ;; Parameters:    Size  Location     Type
  4115 ;;		None
  4116 ;; Auto vars:     Size  Location     Type
  4117 ;;		None
  4118 ;; Return value:  Size  Location     Type
  4119 ;;                  1    wreg      void 
  4120 ;; Registers used:
  4121 ;;		wreg, status,2, cstack
  4122 ;; Tracked objects:
  4123 ;;		On entry : 0/0
  4124 ;;		On exit  : 0/0
  4125 ;;		Unchanged: 0/0
  4126 ;; Data sizes:     COMRAM   BANK0   BANK1   BANK2   BANK3   BANK4   BANK5   BANK6   BANK7   BANK8   BANK9  BANK10  BANK1
      +1  BANK12  BANK13  BANK14
  4127 ;;      Params:         0       0       0       0       0       0       0       0       0       0       0       0       
      +0       0       0       0
  4128 ;;      Locals:         0       0       0       0       0       0       0       0       0       0       0       0       
      +0       0       0       0
  4129 ;;      Temps:          0       0       0       0       0       0       0       0       0       0       0       0       
      +0       0       0       0
  4130 ;;      Totals:         0       0       0       0       0       0       0       0       0       0       0       0       
      +0       0       0       0
  4131 ;;Total ram usage:        0 bytes
  4132 ;; Hardware stack levels used:    1
  4133 ;; Hardware stack levels required when called:    3
  4134 ;; This function calls:
  4135 ;;		_configurarInterrupciones
  4136 ;;		_configurarPWM7
  4137 ;;		_configurarPuertos
  4138 ;;		_configurarRS232
  4139 ;;		_configurarRS232US100
  4140 ;;		_configurarTMR4
  4141 ;;		_configurarTMR5
  4142 ;;		_configurarTMR8
  4143 ;; This function is called by:
  4144 ;;		_main
  4145 ;; This function uses a non-reentrant model
  4146 ;;
  4147                           
  4148                           	psect	text17
  4149  0025BE                     __ptext17:
  4150                           	opt callstack 0
  4151  0025BE                     _configuracionInicial:
  4152                           	opt callstack 27
  4153                           
  4154                           ;auto.c: 177:     configurarPuertos();
  4155                           
  4156                           ;incstack = 0
  4157  0025BE  EC40  F013         	call	_configurarPuertos	;wreg free
  4158                           
  4159                           ;auto.c: 178:     configurarPWM7();
  4160  0025C2  EC01  F013         	call	_configurarPWM7	;wreg free
  4161                           
  4162                           ;auto.c: 179:     configurarInterrupciones();
  4163  0025C6  EC11  F013         	call	_configurarInterrupciones	;wreg free
  4164                           
  4165                           ;auto.c: 180:     configurarRS232();
  4166  0025CA  EC21  F013         	call	_configurarRS232	;wreg free
  4167                           
  4168                           ;auto.c: 181:     configurarTMR4();
  4169  0025CE  EC65  F013         	call	_configurarTMR4	;wreg free
  4170                           
  4171                           ;auto.c: 182:     configurarTMR5();
  4172  0025D2  EC2D  F013         	call	_configurarTMR5	;wreg free
  4173                           
  4174                           ;auto.c: 183:     configurarTMR8();
  4175  0025D6  EC38  F013         	call	_configurarTMR8	;wreg free
  4176                           
  4177                           ;auto.c: 184:     configurarRS232US100();
  4178  0025DA  ECF0  F012         	call	_configurarRS232US100	;wreg free
  4179  0025DE  0012               	return		;funcret
  4180  0025E0                     __end_of_configuracionInicial:
  4181                           	opt callstack 0
  4182                           
  4183 ;; *************** function _configurarTMR8 *****************
  4184 ;; Defined at:
  4185 ;;		line 65 in file "./../LIBRERIAS/configuracion_auto.h"
  4186 ;; Parameters:    Size  Location     Type
  4187 ;;		None
  4188 ;; Auto vars:     Size  Location     Type
  4189 ;;		None
  4190 ;; Return value:  Size  Location     Type
  4191 ;;                  1    wreg      void 
  4192 ;; Registers used:
  4193 ;;		wreg, status,2
  4194 ;; Tracked objects:
  4195 ;;		On entry : 0/0
  4196 ;;		On exit  : 0/0
  4197 ;;		Unchanged: 0/0
  4198 ;; Data sizes:     COMRAM   BANK0   BANK1   BANK2   BANK3   BANK4   BANK5   BANK6   BANK7   BANK8   BANK9  BANK10  BANK1
      +1  BANK12  BANK13  BANK14
  4199 ;;      Params:         0       0       0       0       0       0       0       0       0       0       0       0       
      +0       0       0       0
  4200 ;;      Locals:         0       0       0       0       0       0       0       0       0       0       0       0       
      +0       0       0       0
  4201 ;;      Temps:          0       0       0       0       0       0       0       0       0       0       0       0       
      +0       0       0       0
  4202 ;;      Totals:         0       0       0       0       0       0       0       0       0       0       0       0       
      +0       0       0       0
  4203 ;;Total ram usage:        0 bytes
  4204 ;; Hardware stack levels used:    1
  4205 ;; Hardware stack levels required when called:    2
  4206 ;; This function calls:
  4207 ;;		Nothing
  4208 ;; This function is called by:
  4209 ;;		_configuracionInicial
  4210 ;; This function uses a non-reentrant model
  4211 ;;
  4212                           
  4213                           	psect	text18
  4214  002670                     __ptext18:
  4215                           	opt callstack 0
  4216  002670                     _configurarTMR8:
  4217                           	opt callstack 27
  4218                           
  4219                           ;./../LIBRERIAS/configuracion_auto.h: 66:     T8CONbits.T8CKPS = 0b11 ;
  4220                           
  4221                           ;incstack = 0
  4222  002670  0E03               	movlw	3
  4223  002672  010F               	movlb	15	; () banked
  4224  002674  131B               	iorwf	27,f,b	;volatile
  4225                           
  4226                           ;./../LIBRERIAS/configuracion_auto.h: 67:     TMR8 = 31;
  4227  002676  0E1F               	movlw	31
  4228  002678  6F1D               	movwf	29,b	;volatile
  4229                           
  4230                           ; BSR set to: 15
  4231                           ;./../LIBRERIAS/configuracion_auto.h: 68:     PIR5bits.TMR8IF = 0;
  4232  00267A  9898               	bcf	3992,4,c	;volatile
  4233                           
  4234                           ; BSR set to: 15
  4235                           ;./../LIBRERIAS/configuracion_auto.h: 69:     PIE5bits.TMR8IE = 1;
  4236  00267C  8891               	bsf	3985,4,c	;volatile
  4237                           
  4238                           ; BSR set to: 15
  4239  00267E  0012               	return		;funcret
  4240  002680                     __end_of_configurarTMR8:
  4241                           	opt callstack 0
  4242                           
  4243 ;; *************** function _configurarTMR5 *****************
  4244 ;; Defined at:
  4245 ;;		line 48 in file "./../LIBRERIAS/configuracion_auto.h"
  4246 ;; Parameters:    Size  Location     Type
  4247 ;;		None
  4248 ;; Auto vars:     Size  Location     Type
  4249 ;;		None
  4250 ;; Return value:  Size  Location     Type
  4251 ;;                  1    wreg      void 
  4252 ;; Registers used:
  4253 ;;		wreg, status,2
  4254 ;; Tracked objects:
  4255 ;;		On entry : 0/0
  4256 ;;		On exit  : 0/0
  4257 ;;		Unchanged: 0/0
  4258 ;; Data sizes:     COMRAM   BANK0   BANK1   BANK2   BANK3   BANK4   BANK5   BANK6   BANK7   BANK8   BANK9  BANK10  BANK1
      +1  BANK12  BANK13  BANK14
  4259 ;;      Params:         0       0       0       0       0       0       0       0       0       0       0       0       
      +0       0       0       0
  4260 ;;      Locals:         0       0       0       0       0       0       0       0       0       0       0       0       
      +0       0       0       0
  4261 ;;      Temps:          0       0       0       0       0       0       0       0       0       0       0       0       
      +0       0       0       0
  4262 ;;      Totals:         0       0       0       0       0       0       0       0       0       0       0       0       
      +0       0       0       0
  4263 ;;Total ram usage:        0 bytes
  4264 ;; Hardware stack levels used:    1
  4265 ;; Hardware stack levels required when called:    2
  4266 ;; This function calls:
  4267 ;;		Nothing
  4268 ;; This function is called by:
  4269 ;;		_configuracionInicial
  4270 ;; This function uses a non-reentrant model
  4271 ;;
  4272                           
  4273                           	psect	text19
  4274  00265A                     __ptext19:
  4275                           	opt callstack 0
  4276  00265A                     _configurarTMR5:
  4277                           	opt callstack 27
  4278                           
  4279                           ;./../LIBRERIAS/configuracion_auto.h: 49:     TRISDbits.TRISD4 = 0;
  4280                           
  4281                           ; BSR set to: 15
  4282                           ;incstack = 0
  4283  00265A  9895               	bcf	3989,4,c	;volatile
  4284                           
  4285                           ;./../LIBRERIAS/configuracion_auto.h: 50:     PORTDbits.RD4 = 0;
  4286  00265C  9883               	bcf	3971,4,c	;volatile
  4287                           
  4288                           ;./../LIBRERIAS/configuracion_auto.h: 51:     T5CON = 0x32;
  4289  00265E  0E32               	movlw	50
  4290  002660  010F               	movlb	15	; () banked
  4291  002662  6F22               	movwf	34,b	;volatile
  4292                           
  4293                           ; BSR set to: 15
  4294                           ;./../LIBRERIAS/configuracion_auto.h: 52:     TMR5H = 0xFF;
  4295  002664  6924               	setf	36,b	;volatile
  4296                           
  4297                           ;./../LIBRERIAS/configuracion_auto.h: 53:     TMR5L = 0xE2;
  4298  002666  0EE2               	movlw	226
  4299  002668  6F23               	movwf	35,b	;volatile
  4300                           
  4301                           ; BSR set to: 15
  4302                           ;./../LIBRERIAS/configuracion_auto.h: 54:     PIE5bits.TMR5IE = 1;
  4303  00266A  8491               	bsf	3985,2,c	;volatile
  4304                           
  4305                           ; BSR set to: 15
  4306                           ;./../LIBRERIAS/configuracion_auto.h: 55:     PIR5bits.TMR5IF = 0;
  4307  00266C  9498               	bcf	3992,2,c	;volatile
  4308                           
  4309                           ; BSR set to: 15
  4310  00266E  0012               	return		;funcret
  4311  002670                     __end_of_configurarTMR5:
  4312                           	opt callstack 0
  4313                           
  4314 ;; *************** function _configurarTMR4 *****************
  4315 ;; Defined at:
  4316 ;;		line 58 in file "./../LIBRERIAS/configuracion_auto.h"
  4317 ;; Parameters:    Size  Location     Type
  4318 ;;		None
  4319 ;; Auto vars:     Size  Location     Type
  4320 ;;		None
  4321 ;; Return value:  Size  Location     Type
  4322 ;;                  1    wreg      void 
  4323 ;; Registers used:
  4324 ;;		wreg, status,2
  4325 ;; Tracked objects:
  4326 ;;		On entry : 0/0
  4327 ;;		On exit  : 0/0
  4328 ;;		Unchanged: 0/0
  4329 ;; Data sizes:     COMRAM   BANK0   BANK1   BANK2   BANK3   BANK4   BANK5   BANK6   BANK7   BANK8   BANK9  BANK10  BANK1
      +1  BANK12  BANK13  BANK14
  4330 ;;      Params:         0       0       0       0       0       0       0       0       0       0       0       0       
      +0       0       0       0
  4331 ;;      Locals:         0       0       0       0       0       0       0       0       0       0       0       0       
      +0       0       0       0
  4332 ;;      Temps:          0       0       0       0       0       0       0       0       0       0       0       0       
      +0       0       0       0
  4333 ;;      Totals:         0       0       0       0       0       0       0       0       0       0       0       0       
      +0       0       0       0
  4334 ;;Total ram usage:        0 bytes
  4335 ;; Hardware stack levels used:    1
  4336 ;; Hardware stack levels required when called:    2
  4337 ;; This function calls:
  4338 ;;		Nothing
  4339 ;; This function is called by:
  4340 ;;		_configuracionInicial
  4341 ;; This function uses a non-reentrant model
  4342 ;;
  4343                           
  4344                           	psect	text20
  4345  0026CA                     __ptext20:
  4346                           	opt callstack 0
  4347  0026CA                     _configurarTMR4:
  4348                           	opt callstack 27
  4349                           
  4350                           ;./../LIBRERIAS/configuracion_auto.h: 59:     T4CONbits.T4CKPS = 0b11;
  4351                           
  4352                           ; BSR set to: 15
  4353                           ;incstack = 0
  4354  0026CA  0E03               	movlw	3
  4355  0026CC  1276               	iorwf	3958,f,c	;volatile
  4356                           
  4357                           ;./../LIBRERIAS/configuracion_auto.h: 60:     TMR4 = 181;
  4358  0026CE  0EB5               	movlw	181
  4359  0026D0  6E78               	movwf	3960,c	;volatile
  4360                           
  4361                           ;./../LIBRERIAS/configuracion_auto.h: 61:     PIR3bits.TMR4IF = 0;
  4362  0026D2  96A4               	bcf	4004,3,c	;volatile
  4363                           
  4364                           ;./../LIBRERIAS/configuracion_auto.h: 62:     PIE3bits.TMR4IE= 1;
  4365  0026D4  86A3               	bsf	4003,3,c	;volatile
  4366  0026D6  0012               	return		;funcret
  4367  0026D8                     __end_of_configurarTMR4:
  4368                           	opt callstack 0
  4369                           
  4370 ;; *************** function _configurarRS232US100 *****************
  4371 ;; Defined at:
  4372 ;;		line 72 in file "./../LIBRERIAS/configuracion_auto.h"
  4373 ;; Parameters:    Size  Location     Type
  4374 ;;		None
  4375 ;; Auto vars:     Size  Location     Type
  4376 ;;		None
  4377 ;; Return value:  Size  Location     Type
  4378 ;;                  1    wreg      void 
  4379 ;; Registers used:
  4380 ;;		wreg, status,2
  4381 ;; Tracked objects:
  4382 ;;		On entry : 0/0
  4383 ;;		On exit  : 0/0
  4384 ;;		Unchanged: 0/0
  4385 ;; Data sizes:     COMRAM   BANK0   BANK1   BANK2   BANK3   BANK4   BANK5   BANK6   BANK7   BANK8   BANK9  BANK10  BANK1
      +1  BANK12  BANK13  BANK14
  4386 ;;      Params:         0       0       0       0       0       0       0       0       0       0       0       0       
      +0       0       0       0
  4387 ;;      Locals:         0       0       0       0       0       0       0       0       0       0       0       0       
      +0       0       0       0
  4388 ;;      Temps:          0       0       0       0       0       0       0       0       0       0       0       0       
      +0       0       0       0
  4389 ;;      Totals:         0       0       0       0       0       0       0       0       0       0       0       0       
      +0       0       0       0
  4390 ;;Total ram usage:        0 bytes
  4391 ;; Hardware stack levels used:    1
  4392 ;; Hardware stack levels required when called:    2
  4393 ;; This function calls:
  4394 ;;		Nothing
  4395 ;; This function is called by:
  4396 ;;		_configuracionInicial
  4397 ;; This function uses a non-reentrant model
  4398 ;;
  4399                           
  4400                           	psect	text21
  4401  0025E0                     __ptext21:
  4402                           	opt callstack 0
  4403  0025E0                     _configurarRS232US100:
  4404                           	opt callstack 27
  4405                           
  4406                           ;./../LIBRERIAS/configuracion_auto.h: 73:     TRISDbits.TRISD6 = 0;
  4407                           
  4408                           ;incstack = 0
  4409  0025E0  9C95               	bcf	3989,6,c	;volatile
  4410                           
  4411                           ;./../LIBRERIAS/configuracion_auto.h: 74:     TRISDbits.TRISD7 = 1;
  4412  0025E2  8E95               	bsf	3989,7,c	;volatile
  4413                           
  4414                           ;./../LIBRERIAS/configuracion_auto.h: 75:     RPOR23 = 6;
  4415  0025E4  0E06               	movlw	6
  4416  0025E6  010E               	movlb	14	; () banked
  4417  0025E8  6FD7               	movwf	215,b	;volatile
  4418                           
  4419                           ;./../LIBRERIAS/configuracion_auto.h: 76:     RPINR16 = 24;
  4420  0025EA  0E18               	movlw	24
  4421  0025EC  6FF7               	movwf	247,b	;volatile
  4422                           
  4423                           ;./../LIBRERIAS/configuracion_auto.h: 77:     TXSTA2 = 0x22;
  4424  0025EE  0E22               	movlw	34
  4425  0025F0  6EA8               	movwf	4008,c	;volatile
  4426                           
  4427                           ;./../LIBRERIAS/configuracion_auto.h: 78:     RCSTA2 = 0x90;
  4428  0025F2  0E90               	movlw	144
  4429  0025F4  6E9C               	movwf	3996,c	;volatile
  4430                           
  4431                           ; BSR set to: 14
  4432                           ;./../LIBRERIAS/configuracion_auto.h: 79:     BAUDCON2bits.BRG16 = 0;
  4433  0025F6  967C               	bcf	3964,3,c	;volatile
  4434                           
  4435                           ;./../LIBRERIAS/configuracion_auto.h: 80:     SPBRG2 = 77;
  4436  0025F8  0E4D               	movlw	77
  4437  0025FA  6EAB               	movwf	4011,c	;volatile
  4438                           
  4439                           ; BSR set to: 14
  4440                           ;./../LIBRERIAS/configuracion_auto.h: 81:     PIR3bits.RC2IF = 0;
  4441  0025FC  9AA4               	bcf	4004,5,c	;volatile
  4442                           
  4443                           ; BSR set to: 14
  4444                           ;./../LIBRERIAS/configuracion_auto.h: 82:     PIE3bits.RC2IE = 1;
  4445  0025FE  8AA3               	bsf	4003,5,c	;volatile
  4446                           
  4447                           ; BSR set to: 14
  4448  002600  0012               	return		;funcret
  4449  002602                     __end_of_configurarRS232US100:
  4450                           	opt callstack 0
  4451                           
  4452 ;; *************** function _configurarRS232 *****************
  4453 ;; Defined at:
  4454 ;;		line 37 in file "./../LIBRERIAS/configuracion_auto.h"
  4455 ;; Parameters:    Size  Location     Type
  4456 ;;		None
  4457 ;; Auto vars:     Size  Location     Type
  4458 ;;		None
  4459 ;; Return value:  Size  Location     Type
  4460 ;;                  1    wreg      void 
  4461 ;; Registers used:
  4462 ;;		wreg, status,2
  4463 ;; Tracked objects:
  4464 ;;		On entry : 0/0
  4465 ;;		On exit  : 0/0
  4466 ;;		Unchanged: 0/0
  4467 ;; Data sizes:     COMRAM   BANK0   BANK1   BANK2   BANK3   BANK4   BANK5   BANK6   BANK7   BANK8   BANK9  BANK10  BANK1
      +1  BANK12  BANK13  BANK14
  4468 ;;      Params:         0       0       0       0       0       0       0       0       0       0       0       0       
      +0       0       0       0
  4469 ;;      Locals:         0       0       0       0       0       0       0       0       0       0       0       0       
      +0       0       0       0
  4470 ;;      Temps:          0       0       0       0       0       0       0       0       0       0       0       0       
      +0       0       0       0
  4471 ;;      Totals:         0       0       0       0       0       0       0       0       0       0       0       0       
      +0       0       0       0
  4472 ;;Total ram usage:        0 bytes
  4473 ;; Hardware stack levels used:    1
  4474 ;; Hardware stack levels required when called:    2
  4475 ;; This function calls:
  4476 ;;		Nothing
  4477 ;; This function is called by:
  4478 ;;		_configuracionInicial
  4479 ;; This function uses a non-reentrant model
  4480 ;;
  4481                           
  4482                           	psect	text22
  4483  002642                     __ptext22:
  4484                           	opt callstack 0
  4485  002642                     _configurarRS232:
  4486                           	opt callstack 27
  4487                           
  4488                           ;./../LIBRERIAS/configuracion_auto.h: 38:     TRISCbits.TRISC7 = 1;
  4489                           
  4490                           ; BSR set to: 14
  4491                           ;incstack = 0
  4492  002642  8E94               	bsf	3988,7,c	;volatile
  4493                           
  4494                           ;./../LIBRERIAS/configuracion_auto.h: 39:     TRISCbits.TRISC6 = 0;
  4495  002644  9C94               	bcf	3988,6,c	;volatile
  4496                           
  4497                           ;./../LIBRERIAS/configuracion_auto.h: 40:     TXSTA1 = 0x22;
  4498  002646  0E22               	movlw	34
  4499  002648  6EAD               	movwf	4013,c	;volatile
  4500                           
  4501                           ;./../LIBRERIAS/configuracion_auto.h: 41:     RCSTA1 = 0x90;
  4502  00264A  0E90               	movlw	144
  4503  00264C  6EAC               	movwf	4012,c	;volatile
  4504                           
  4505                           ;./../LIBRERIAS/configuracion_auto.h: 42:     BAUDCON1bits.BRG16 = 0;
  4506  00264E  967E               	bcf	3966,3,c	;volatile
  4507                           
  4508                           ;./../LIBRERIAS/configuracion_auto.h: 43:     SPBRG1 = 77;
  4509  002650  0E4D               	movlw	77
  4510  002652  6EB0               	movwf	4016,c	;volatile
  4511                           
  4512                           ;./../LIBRERIAS/configuracion_auto.h: 44:     PIR1bits.RC1IF = 0;
  4513  002654  9A9E               	bcf	3998,5,c	;volatile
  4514                           
  4515                           ;./../LIBRERIAS/configuracion_auto.h: 45:     PIE1bits.RC1IE = 1;
  4516  002656  8A9D               	bsf	3997,5,c	;volatile
  4517  002658  0012               	return		;funcret
  4518  00265A                     __end_of_configurarRS232:
  4519                           	opt callstack 0
  4520                           
  4521 ;; *************** function _configurarPuertos *****************
  4522 ;; Defined at:
  4523 ;;		line 3 in file "./../LIBRERIAS/configuracion_auto.h"
  4524 ;; Parameters:    Size  Location     Type
  4525 ;;		None
  4526 ;; Auto vars:     Size  Location     Type
  4527 ;;		None
  4528 ;; Return value:  Size  Location     Type
  4529 ;;                  1    wreg      void 
  4530 ;; Registers used:
  4531 ;;		wreg, status,2
  4532 ;; Tracked objects:
  4533 ;;		On entry : 0/0
  4534 ;;		On exit  : 0/0
  4535 ;;		Unchanged: 0/0
  4536 ;; Data sizes:     COMRAM   BANK0   BANK1   BANK2   BANK3   BANK4   BANK5   BANK6   BANK7   BANK8   BANK9  BANK10  BANK1
      +1  BANK12  BANK13  BANK14
  4537 ;;      Params:         0       0       0       0       0       0       0       0       0       0       0       0       
      +0       0       0       0
  4538 ;;      Locals:         0       0       0       0       0       0       0       0       0       0       0       0       
      +0       0       0       0
  4539 ;;      Temps:          0       0       0       0       0       0       0       0       0       0       0       0       
      +0       0       0       0
  4540 ;;      Totals:         0       0       0       0       0       0       0       0       0       0       0       0       
      +0       0       0       0
  4541 ;;Total ram usage:        0 bytes
  4542 ;; Hardware stack levels used:    1
  4543 ;; Hardware stack levels required when called:    2
  4544 ;; This function calls:
  4545 ;;		Nothing
  4546 ;; This function is called by:
  4547 ;;		_configuracionInicial
  4548 ;; This function uses a non-reentrant model
  4549 ;;
  4550                           
  4551                           	psect	text23
  4552  002680                     __ptext23:
  4553                           	opt callstack 0
  4554  002680                     _configurarPuertos:
  4555                           	opt callstack 27
  4556                           
  4557                           ;./../LIBRERIAS/configuracion_auto.h: 4:     ANCON0 = 0x7F;
  4558                           
  4559                           ;incstack = 0
  4560  002680  0E7F               	movlw	127
  4561  002682  010F               	movlb	15	; () banked
  4562  002684  6F48               	movwf	72,b	;volatile
  4563                           
  4564                           ;./../LIBRERIAS/configuracion_auto.h: 5:     ANCON1 = 0x1F;
  4565  002686  0E1F               	movlw	31
  4566  002688  6F49               	movwf	73,b	;volatile
  4567                           
  4568                           ; BSR set to: 15
  4569                           ;./../LIBRERIAS/configuracion_auto.h: 6:     TRISAbits.TRISA0 = 0;
  4570  00268A  9092               	bcf	3986,0,c	;volatile
  4571                           
  4572                           ; BSR set to: 15
  4573                           ;./../LIBRERIAS/configuracion_auto.h: 7:     TRISAbits.TRISA1 = 0;
  4574  00268C  9292               	bcf	3986,1,c	;volatile
  4575                           
  4576                           ; BSR set to: 15
  4577  00268E  0012               	return		;funcret
  4578  002690                     __end_of_configurarPuertos:
  4579                           	opt callstack 0
  4580                           
  4581 ;; *************** function _configurarPWM7 *****************
  4582 ;; Defined at:
  4583 ;;		line 25 in file "./../LIBRERIAS/configuracion_auto.h"
  4584 ;; Parameters:    Size  Location     Type
  4585 ;;		None
  4586 ;; Auto vars:     Size  Location     Type
  4587 ;;		None
  4588 ;; Return value:  Size  Location     Type
  4589 ;;                  1    wreg      void 
  4590 ;; Registers used:
  4591 ;;		wreg, status,2
  4592 ;; Tracked objects:
  4593 ;;		On entry : 0/0
  4594 ;;		On exit  : 0/0
  4595 ;;		Unchanged: 0/0
  4596 ;; Data sizes:     COMRAM   BANK0   BANK1   BANK2   BANK3   BANK4   BANK5   BANK6   BANK7   BANK8   BANK9  BANK10  BANK1
      +1  BANK12  BANK13  BANK14
  4597 ;;      Params:         0       0       0       0       0       0       0       0       0       0       0       0       
      +0       0       0       0
  4598 ;;      Locals:         0       0       0       0       0       0       0       0       0       0       0       0       
      +0       0       0       0
  4599 ;;      Temps:          0       0       0       0       0       0       0       0       0       0       0       0       
      +0       0       0       0
  4600 ;;      Totals:         0       0       0       0       0       0       0       0       0       0       0       0       
      +0       0       0       0
  4601 ;;Total ram usage:        0 bytes
  4602 ;; Hardware stack levels used:    1
  4603 ;; Hardware stack levels required when called:    2
  4604 ;; This function calls:
  4605 ;;		Nothing
  4606 ;; This function is called by:
  4607 ;;		_configuracionInicial
  4608 ;; This function uses a non-reentrant model
  4609 ;;
  4610                           
  4611                           	psect	text24
  4612  002602                     __ptext24:
  4613                           	opt callstack 0
  4614  002602                     _configurarPWM7:
  4615                           	opt callstack 27
  4616                           
  4617                           ;./../LIBRERIAS/configuracion_auto.h: 26:     TRISBbits.TRISB4 = 0;
  4618                           
  4619                           ; BSR set to: 15
  4620                           ;incstack = 0
  4621  002602  9893               	bcf	3987,4,c	;volatile
  4622                           
  4623                           ;./../LIBRERIAS/configuracion_auto.h: 27:     TRISBbits.TRISB7 = 0;
  4624  002604  9E93               	bcf	3987,7,c	;volatile
  4625                           
  4626                           ;./../LIBRERIAS/configuracion_auto.h: 28:     CCP7CONbits.CCP7M = 0xC;
  4627  002606  010F               	movlb	15	; () banked
  4628  002608  5109               	movf	9,w,b	;volatile
  4629  00260A  0BF0               	andlw	-16
  4630  00260C  090C               	iorlw	12
  4631  00260E  6F09               	movwf	9,b	;volatile
  4632                           
  4633                           ;./../LIBRERIAS/configuracion_auto.h: 29:     CCPTMRS1bits.C7TSEL = 0b00;
  4634  002610  0E3F               	movlw	-193
  4635  002612  1751               	andwf	81,f,b	;volatile
  4636                           
  4637                           ;./../LIBRERIAS/configuracion_auto.h: 31:     T2CON = 0x02;
  4638  002614  0E02               	movlw	2
  4639  002616  6ECA               	movwf	4042,c	;volatile
  4640                           
  4641                           ;./../LIBRERIAS/configuracion_auto.h: 32:     PR2 = 124;
  4642  002618  0E7C               	movlw	124
  4643  00261A  6ECB               	movwf	4043,c	;volatile
  4644                           
  4645                           ;./../LIBRERIAS/configuracion_auto.h: 34:     TMR2 = 0x00;
  4646  00261C  0E00               	movlw	0
  4647  00261E  6ECC               	movwf	4044,c	;volatile
  4648                           
  4649                           ; BSR set to: 15
  4650  002620  0012               	return		;funcret
  4651  002622                     __end_of_configurarPWM7:
  4652                           	opt callstack 0
  4653                           
  4654 ;; *************** function _configurarInterrupciones *****************
  4655 ;; Defined at:
  4656 ;;		line 10 in file "./../LIBRERIAS/configuracion_auto.h"
  4657 ;; Parameters:    Size  Location     Type
  4658 ;;		None
  4659 ;; Auto vars:     Size  Location     Type
  4660 ;;		None
  4661 ;; Return value:  Size  Location     Type
  4662 ;;                  1    wreg      void 
  4663 ;; Registers used:
  4664 ;;		wreg, status,2
  4665 ;; Tracked objects:
  4666 ;;		On entry : 0/0
  4667 ;;		On exit  : 0/0
  4668 ;;		Unchanged: 0/0
  4669 ;; Data sizes:     COMRAM   BANK0   BANK1   BANK2   BANK3   BANK4   BANK5   BANK6   BANK7   BANK8   BANK9  BANK10  BANK1
      +1  BANK12  BANK13  BANK14
  4670 ;;      Params:         0       0       0       0       0       0       0       0       0       0       0       0       
      +0       0       0       0
  4671 ;;      Locals:         0       0       0       0       0       0       0       0       0       0       0       0       
      +0       0       0       0
  4672 ;;      Temps:          0       0       0       0       0       0       0       0       0       0       0       0       
      +0       0       0       0
  4673 ;;      Totals:         0       0       0       0       0       0       0       0       0       0       0       0       
      +0       0       0       0
  4674 ;;Total ram usage:        0 bytes
  4675 ;; Hardware stack levels used:    1
  4676 ;; Hardware stack levels required when called:    2
  4677 ;; This function calls:
  4678 ;;		Nothing
  4679 ;; This function is called by:
  4680 ;;		_configuracionInicial
  4681 ;; This function uses a non-reentrant model
  4682 ;;
  4683                           
  4684                           	psect	text25
  4685  002622                     __ptext25:
  4686                           	opt callstack 0
  4687  002622                     _configurarInterrupciones:
  4688                           	opt callstack 27
  4689                           
  4690                           ;./../LIBRERIAS/configuracion_auto.h: 11:     PPSCON = 0;
  4691                           
  4692                           ; BSR set to: 15
  4693                           ;incstack = 0
  4694  002622  0E00               	movlw	0
  4695  002624  010E               	movlb	14	; () banked
  4696  002626  6FBF               	movwf	191,b	;volatile
  4697                           
  4698                           ;./../LIBRERIAS/configuracion_auto.h: 12:     RPINR1 = 4;
  4699  002628  0E04               	movlw	4
  4700  00262A  6FE1               	movwf	225,b	;volatile
  4701                           
  4702                           ; BSR set to: 14
  4703                           ;./../LIBRERIAS/configuracion_auto.h: 13:     TRISBbits.TRISB1 = 1;
  4704  00262C  8293               	bsf	3987,1,c	;volatile
  4705                           
  4706                           ; BSR set to: 14
  4707                           ;./../LIBRERIAS/configuracion_auto.h: 14:     TRISBbits.TRISB0 = 1;
  4708  00262E  8093               	bsf	3987,0,c	;volatile
  4709                           
  4710                           ; BSR set to: 14
  4711                           ;./../LIBRERIAS/configuracion_auto.h: 15:     INTCONbits.GIE = 1;
  4712  002630  8EF2               	bsf	4082,7,c	;volatile
  4713                           
  4714                           ; BSR set to: 14
  4715                           ;./../LIBRERIAS/configuracion_auto.h: 16:     INTCONbits.PEIE = 1;
  4716  002632  8CF2               	bsf	4082,6,c	;volatile
  4717                           
  4718                           ; BSR set to: 14
  4719                           ;./../LIBRERIAS/configuracion_auto.h: 17:     INTCON2bits.INTEDG0=0;
  4720  002634  9CF1               	bcf	4081,6,c	;volatile
  4721                           
  4722                           ; BSR set to: 14
  4723                           ;./../LIBRERIAS/configuracion_auto.h: 18:     INTCON2bits.INTEDG1 = 0;
  4724  002636  9AF1               	bcf	4081,5,c	;volatile
  4725                           
  4726                           ; BSR set to: 14
  4727                           ;./../LIBRERIAS/configuracion_auto.h: 19:     INTCONbits.INT0F = 0;
  4728  002638  92F2               	bcf	4082,1,c	;volatile
  4729                           
  4730                           ; BSR set to: 14
  4731                           ;./../LIBRERIAS/configuracion_auto.h: 20:     INTCONbits.INT0E = 1;
  4732  00263A  88F2               	bsf	4082,4,c	;volatile
  4733                           
  4734                           ; BSR set to: 14
  4735                           ;./../LIBRERIAS/configuracion_auto.h: 21:     INTCON3bits.INT1E = 1;
  4736  00263C  86F0               	bsf	4080,3,c	;volatile
  4737                           
  4738                           ; BSR set to: 14
  4739                           ;./../LIBRERIAS/configuracion_auto.h: 22:     INTCON3bits.INT1F = 0;
  4740  00263E  90F0               	bcf	4080,0,c	;volatile
  4741                           
  4742                           ; BSR set to: 14
  4743  002640  0012               	return		;funcret
  4744  002642                     __end_of_configurarInterrupciones:
  4745                           	opt callstack 0
  4746                           
  4747 ;; *************** function _cambiarEstadoFuego *****************
  4748 ;; Defined at:
  4749 ;;		line 364 in file "auto.c"
  4750 ;; Parameters:    Size  Location     Type
  4751 ;;		None
  4752 ;; Auto vars:     Size  Location     Type
  4753 ;;  angulo          2    9[BANK0 ] unsigned int 
  4754 ;; Return value:  Size  Location     Type
  4755 ;;                  1    wreg      void 
  4756 ;; Registers used:
  4757 ;;		wreg, status,2, status,0, cstack
  4758 ;; Tracked objects:
  4759 ;;		On entry : 0/0
  4760 ;;		On exit  : 0/0
  4761 ;;		Unchanged: 0/0
  4762 ;; Data sizes:     COMRAM   BANK0   BANK1   BANK2   BANK3   BANK4   BANK5   BANK6   BANK7   BANK8   BANK9  BANK10  BANK1
      +1  BANK12  BANK13  BANK14
  4763 ;;      Params:         0       0       0       0       0       0       0       0       0       0       0       0       
      +0       0       0       0
  4764 ;;      Locals:         0       2       0       0       0       0       0       0       0       0       0       0       
      +0       0       0       0
  4765 ;;      Temps:          0       2       0       0       0       0       0       0       0       0       0       0       
      +0       0       0       0
  4766 ;;      Totals:         0       4       0       0       0       0       0       0       0       0       0       0       
      +0       0       0       0
  4767 ;;Total ram usage:        4 bytes
  4768 ;; Hardware stack levels used:    1
  4769 ;; Hardware stack levels required when called:    3
  4770 ;; This function calls:
  4771 ;;		_dirreccion
  4772 ;;		_estadoDirreccion
  4773 ;;		_frenarMotor
  4774 ;; This function is called by:
  4775 ;;		_main
  4776 ;; This function uses a non-reentrant model
  4777 ;;
  4778                           
  4779                           	psect	text26
  4780  00233C                     __ptext26:
  4781                           	opt callstack 0
  4782  00233C                     _cambiarEstadoFuego:
  4783                           	opt callstack 27
  4784                           
  4785                           ;auto.c: 366:     bandera_fuego = 0;
  4786                           
  4787                           ; BSR set to: 14
  4788                           ;incstack = 0
  4789  00233C  0E00               	movlw	0
  4790  00233E  0100               	movlb	0	; () banked
  4791  002340  6FDA               	movwf	_bandera_fuego& (0+255),b
  4792                           
  4793                           ;auto.c: 367:     switch(estadoFuego){
  4794  002342  D020               	goto	l4147
  4795  002344                     l4131:
  4796                           
  4797                           ; BSR set to: 0
  4798                           ;auto.c: 369:             TIME_FUEGO = 10000;
  4799  002344  0E10               	movlw	16
  4800  002346  6E2A               	movwf	_TIME_FUEGO,c
  4801  002348  0E27               	movlw	39
  4802  00234A  6E2B               	movwf	_TIME_FUEGO+1,c
  4803  00234C  0E00               	movlw	0
  4804  00234E  6E2C               	movwf	_TIME_FUEGO+2,c
  4805  002350  0E00               	movlw	0
  4806  002352  6E2D               	movwf	_TIME_FUEGO+3,c
  4807                           
  4808                           ; BSR set to: 0
  4809                           ;auto.c: 370:             angulo = estadoDirreccion(1);
  4810  002354  0E01               	movlw	1
  4811  002356  EC22  F011         	call	_estadoDirreccion
  4812  00235A  C060  F069         	movff	?_estadoDirreccion,cambiarEstadoFuego@angulo
  4813  00235E  C061  F06A         	movff	?_estadoDirreccion+1,cambiarEstadoFuego@angulo+1
  4814                           
  4815                           ;auto.c: 371:             dirreccion(angulo);
  4816  002362  C069  F060         	movff	cambiarEstadoFuego@angulo,dirreccion@degree
  4817  002366  C06A  F061         	movff	cambiarEstadoFuego@angulo+1,dirreccion@degree+1
  4818  00236A  EC99  F010         	call	_dirreccion	;wreg free
  4819                           
  4820                           ;auto.c: 372:             estadoFuego = 'w';
  4821  00236E  0E77               	movlw	119
  4822  002370  6E3D               	movwf	_estadoFuego,c
  4823                           
  4824                           ;auto.c: 373:             T8CONbits.TMR8ON = 1;
  4825  002372  010F               	movlb	15	; () banked
  4826  002374  851B               	bsf	27,2,b	;volatile
  4827                           
  4828                           ;auto.c: 374:             break;
  4829  002376  0012               	return	
  4830  002378                     l4139:
  4831                           
  4832                           ; BSR set to: 0
  4833                           ;auto.c: 376:             estado = 'c';
  4834  002378  0E63               	movlw	99
  4835  00237A  6E3C               	movwf	_estado,c
  4836                           
  4837                           ; BSR set to: 0
  4838                           ;auto.c: 377:             frenarMotor();
  4839  00237C  EC48  F013         	call	_frenarMotor	;wreg free
  4840                           
  4841                           ;auto.c: 378:             INTCON3bits.INT1E = 1;
  4842  002380  86F0               	bsf	4080,3,c	;volatile
  4843                           
  4844                           ;auto.c: 379:             break;
  4845  002382  0012               	return	
  4846  002384                     l4147:
  4847                           
  4848                           ; BSR set to: 0
  4849  002384  503D               	movf	_estadoFuego,w,c
  4850  002386  6F67               	movwf	??_cambiarEstadoFuego& (0+255),b
  4851  002388  6B68               	clrf	(??_cambiarEstadoFuego+1)& (0+255),b
  4852                           
  4853                           ; Switch on 2 bytes has been partitioned into a top level switch of size 1, and 1 sub-sw
      +                          itches
  4854                           ; Switch size 1, requested type "simple"
  4855                           ; Number of cases is 1, Range of values is 0 to 0
  4856                           ; switch strategies available:
  4857                           ; Name         Instructions Cycles
  4858                           ; simple_byte            4     3 (average)
  4859                           ;	Chosen strategy is simple_byte
  4860  00238A  5168               	movf	(??_cambiarEstadoFuego+1)& (0+255),w,b
  4861  00238C  0A00               	xorlw	0	; case 0
  4862  00238E  A4D8               	btfss	status,2,c
  4863  002390  0012               	return	
  4864                           
  4865                           ; BSR set to: 0
  4866                           ; Switch size 1, requested type "simple"
  4867                           ; Number of cases is 2, Range of values is 0 to 119
  4868                           ; switch strategies available:
  4869                           ; Name         Instructions Cycles
  4870                           ; simple_byte            7     4 (average)
  4871                           ;	Chosen strategy is simple_byte
  4872  002392  5167               	movf	??_cambiarEstadoFuego& (0+255),w,b
  4873  002394  0A00               	xorlw	0	; case 0
  4874  002396  B4D8               	btfsc	status,2,c
  4875  002398  D7D5               	goto	l4131
  4876  00239A  0A77               	xorlw	119	; case 119
  4877  00239C  A4D8               	btfss	status,2,c
  4878  00239E  0012               	return	
  4879  0023A0  D7EB               	goto	l4139
  4880  0023A2                     __end_of_cambiarEstadoFuego:
  4881                           	opt callstack 0
  4882                           
  4883 ;; *************** function _frenarMotor *****************
  4884 ;; Defined at:
  4885 ;;		line 59 in file "./../LIBRERIAS/funciones_auto.h"
  4886 ;; Parameters:    Size  Location     Type
  4887 ;;		None
  4888 ;; Auto vars:     Size  Location     Type
  4889 ;;		None
  4890 ;; Return value:  Size  Location     Type
  4891 ;;                  1    wreg      void 
  4892 ;; Registers used:
  4893 ;;		wreg, status,2
  4894 ;; Tracked objects:
  4895 ;;		On entry : 0/0
  4896 ;;		On exit  : 0/0
  4897 ;;		Unchanged: 0/0
  4898 ;; Data sizes:     COMRAM   BANK0   BANK1   BANK2   BANK3   BANK4   BANK5   BANK6   BANK7   BANK8   BANK9  BANK10  BANK1
      +1  BANK12  BANK13  BANK14
  4899 ;;      Params:         0       0       0       0       0       0       0       0       0       0       0       0       
      +0       0       0       0
  4900 ;;      Locals:         0       0       0       0       0       0       0       0       0       0       0       0       
      +0       0       0       0
  4901 ;;      Temps:          0       0       0       0       0       0       0       0       0       0       0       0       
      +0       0       0       0
  4902 ;;      Totals:         0       0       0       0       0       0       0       0       0       0       0       0       
      +0       0       0       0
  4903 ;;Total ram usage:        0 bytes
  4904 ;; Hardware stack levels used:    1
  4905 ;; Hardware stack levels required when called:    2
  4906 ;; This function calls:
  4907 ;;		Nothing
  4908 ;; This function is called by:
  4909 ;;		_main
  4910 ;;		_terminal
  4911 ;;		_rutinaEscape
  4912 ;;		_cambiarEstadoFuego
  4913 ;; This function uses a non-reentrant model
  4914 ;;
  4915                           
  4916                           	psect	text27
  4917  002690                     __ptext27:
  4918                           	opt callstack 0
  4919  002690                     _frenarMotor:
  4920                           	opt callstack 27
  4921                           
  4922                           ;./../LIBRERIAS/funciones_auto.h: 60:     CCP7CONbits.DC7B = 0b00;
  4923                           
  4924                           ;incstack = 0
  4925  002690  0ECF               	movlw	-49
  4926  002692  010F               	movlb	15	; () banked
  4927  002694  1709               	andwf	9,f,b	;volatile
  4928                           
  4929                           ;./../LIBRERIAS/funciones_auto.h: 61:     CCPR7L = 0x00;
  4930  002696  0E00               	movlw	0
  4931  002698  6F0A               	movwf	10,b	;volatile
  4932                           
  4933                           ;./../LIBRERIAS/funciones_auto.h: 62:     motor = 0;
  4934  00269A  0E00               	movlw	0
  4935  00269C  6E41               	movwf	_motor,c
  4936                           
  4937                           ; BSR set to: 15
  4938  00269E  0012               	return		;funcret
  4939  0026A0                     __end_of_frenarMotor:
  4940                           	opt callstack 0
  4941                           
  4942 ;; *************** function _estadoDirreccion *****************
  4943 ;; Defined at:
  4944 ;;		line 239 in file "auto.c"
  4945 ;; Parameters:    Size  Location     Type
  4946 ;;  valor           1    wreg     unsigned char 
  4947 ;; Auto vars:     Size  Location     Type
  4948 ;;  valor           1    6[BANK0 ] unsigned char 
  4949 ;;  angulo          2    4[BANK0 ] unsigned int 
  4950 ;; Return value:  Size  Location     Type
  4951 ;;                  2    0[BANK0 ] unsigned int 
  4952 ;; Registers used:
  4953 ;;		wreg, status,2, status,0
  4954 ;; Tracked objects:
  4955 ;;		On entry : 0/0
  4956 ;;		On exit  : 0/0
  4957 ;;		Unchanged: 0/0
  4958 ;; Data sizes:     COMRAM   BANK0   BANK1   BANK2   BANK3   BANK4   BANK5   BANK6   BANK7   BANK8   BANK9  BANK10  BANK1
      +1  BANK12  BANK13  BANK14
  4959 ;;      Params:         0       2       0       0       0       0       0       0       0       0       0       0       
      +0       0       0       0
  4960 ;;      Locals:         0       3       0       0       0       0       0       0       0       0       0       0       
      +0       0       0       0
  4961 ;;      Temps:          0       2       0       0       0       0       0       0       0       0       0       0       
      +0       0       0       0
  4962 ;;      Totals:         0       7       0       0       0       0       0       0       0       0       0       0       
      +0       0       0       0
  4963 ;;Total ram usage:        7 bytes
  4964 ;; Hardware stack levels used:    1
  4965 ;; Hardware stack levels required when called:    2
  4966 ;; This function calls:
  4967 ;;		Nothing
  4968 ;; This function is called by:
  4969 ;;		_terminal
  4970 ;;		_cambiarEstadoFuego
  4971 ;; This function uses a non-reentrant model
  4972 ;;
  4973                           
  4974                           	psect	text28
  4975  002244                     __ptext28:
  4976                           	opt callstack 0
  4977  002244                     _estadoDirreccion:
  4978                           	opt callstack 27
  4979                           
  4980                           ; BSR set to: 15
  4981                           ;incstack = 0
  4982                           ;estadoDirreccion@valor stored from wreg
  4983  002244  0100               	movlb	0	; () banked
  4984  002246  6F66               	movwf	estadoDirreccion@valor& (0+255),b
  4985                           
  4986                           ;auto.c: 240:     unsigned int angulo = 90;
  4987  002248  0E00               	movlw	0
  4988  00224A  0100               	movlb	0	; () banked
  4989  00224C  6F65               	movwf	(estadoDirreccion@angulo+1)& (0+255),b
  4990  00224E  0E5A               	movlw	90
  4991  002250  6F64               	movwf	estadoDirreccion@angulo& (0+255),b
  4992                           
  4993                           ;auto.c: 241:     switch(servo_dirreccion){
  4994  002252  D023               	goto	l4057
  4995  002254                     l4037:
  4996                           
  4997                           ; BSR set to: 0
  4998                           ;auto.c: 243:             if(valor == 1){
  4999  002254  0566               	decf	estadoDirreccion@valor& (0+255),w,b
  5000  002256  A4D8               	btfss	status,2,c
  5001  002258  D006               	goto	l4041
  5002                           
  5003                           ; BSR set to: 0
  5004                           ;auto.c: 244:                 servo_dirreccion = 1;
  5005  00225A  0E01               	movlw	1
  5006  00225C  6E3F               	movwf	_servo_dirreccion,c
  5007  00225E                     
  5008                           ;auto.c: 245:                 angulo = 0;
  5009  00225E  0E00               	movlw	0
  5010  002260  6F65               	movwf	(estadoDirreccion@angulo+1)& (0+255),b
  5011  002262  0E00               	movlw	0
  5012  002264  D018               	goto	L9
  5013  002266                     l4041:
  5014                           
  5015                           ; BSR set to: 0
  5016                           ;auto.c: 248:                 servo_dirreccion = 2;
  5017  002266  0E02               	movlw	2
  5018  002268  6E3F               	movwf	_servo_dirreccion,c
  5019  00226A  D012               	goto	l4053
  5020  00226C                     l4043:
  5021                           
  5022                           ; BSR set to: 0
  5023                           ;auto.c: 253:             if(valor != 1){
  5024  00226C  0566               	decf	estadoDirreccion@valor& (0+255),w,b
  5025  00226E  B4D8               	btfsc	status,2,c
  5026  002270  D7F6               	goto	L10
  5027                           
  5028                           ; BSR set to: 0
  5029                           ;auto.c: 254:                 servo_dirreccion = 0;
  5030  002272  0E00               	movlw	0
  5031  002274  6E3F               	movwf	_servo_dirreccion,c
  5032                           
  5033                           ;auto.c: 255:                 angulo = 90;
  5034  002276  0E00               	movlw	0
  5035  002278  6F65               	movwf	(estadoDirreccion@angulo+1)& (0+255),b
  5036  00227A  0E5A               	movlw	90
  5037  00227C  D00C               	goto	L9
  5038  00227E                     l4049:
  5039                           
  5040                           ; BSR set to: 0
  5041                           ;auto.c: 262:             if(valor == 1){
  5042  00227E  0566               	decf	estadoDirreccion@valor& (0+255),w,b
  5043  002280  A4D8               	btfss	status,2,c
  5044  002282  D006               	goto	l4053
  5045                           
  5046                           ; BSR set to: 0
  5047                           ;auto.c: 263:                 servo_dirreccion = 0;
  5048  002284  0E00               	movlw	0
  5049  002286  6E3F               	movwf	_servo_dirreccion,c
  5050                           
  5051                           ;auto.c: 264:                 angulo = 85;
  5052  002288  0E00               	movlw	0
  5053  00228A  6F65               	movwf	(estadoDirreccion@angulo+1)& (0+255),b
  5054  00228C  0E55               	movlw	85
  5055  00228E  D003               	goto	L9
  5056  002290                     l4053:
  5057                           
  5058                           ; BSR set to: 0
  5059                           ;auto.c: 267:                 angulo = 180;
  5060  002290  0E00               	movlw	0
  5061  002292  6F65               	movwf	(estadoDirreccion@angulo+1)& (0+255),b
  5062  002294  0EB4               	movlw	180
  5063  002296                     L9:
  5064  002296  6F64               	movwf	estadoDirreccion@angulo& (0+255),b
  5065  002298  D011               	goto	l303
  5066  00229A                     l4057:
  5067                           
  5068                           ; BSR set to: 0
  5069  00229A  503F               	movf	_servo_dirreccion,w,c
  5070  00229C  6F62               	movwf	??_estadoDirreccion& (0+255),b
  5071  00229E  6B63               	clrf	(??_estadoDirreccion+1)& (0+255),b
  5072                           
  5073                           ; Switch on 2 bytes has been partitioned into a top level switch of size 1, and 1 sub-sw
      +                          itches
  5074                           ; Switch size 1, requested type "simple"
  5075                           ; Number of cases is 1, Range of values is 0 to 0
  5076                           ; switch strategies available:
  5077                           ; Name         Instructions Cycles
  5078                           ; simple_byte            4     3 (average)
  5079                           ;	Chosen strategy is simple_byte
  5080  0022A0  5163               	movf	(??_estadoDirreccion+1)& (0+255),w,b
  5081  0022A2  0A00               	xorlw	0	; case 0
  5082  0022A4  A4D8               	btfss	status,2,c
  5083  0022A6  D00A               	goto	l303
  5084                           
  5085                           ; BSR set to: 0
  5086                           ; Switch size 1, requested type "simple"
  5087                           ; Number of cases is 3, Range of values is 0 to 2
  5088                           ; switch strategies available:
  5089                           ; Name         Instructions Cycles
  5090                           ; simple_byte           10     6 (average)
  5091                           ;	Chosen strategy is simple_byte
  5092  0022A8  5162               	movf	??_estadoDirreccion& (0+255),w,b
  5093  0022AA  0A00               	xorlw	0	; case 0
  5094  0022AC  B4D8               	btfsc	status,2,c
  5095  0022AE  D7D2               	goto	l4037
  5096  0022B0  0A01               	xorlw	1	; case 1
  5097  0022B2  B4D8               	btfsc	status,2,c
  5098  0022B4  D7DB               	goto	l4043
  5099  0022B6  0A03               	xorlw	3	; case 2
  5100  0022B8  B4D8               	btfsc	status,2,c
  5101  0022BA  D7E1               	goto	l4049
  5102  0022BC                     l303:
  5103                           
  5104                           ; BSR set to: 0
  5105                           ;auto.c: 271:     return angulo;
  5106  0022BC  C064  F060         	movff	estadoDirreccion@angulo,?_estadoDirreccion
  5107  0022C0  C065  F061         	movff	estadoDirreccion@angulo+1,?_estadoDirreccion+1
  5108                           
  5109                           ; BSR set to: 0
  5110  0022C4  0012               	return		;funcret
  5111  0022C6                     __end_of_estadoDirreccion:
  5112                           	opt callstack 0
  5113                           
  5114 ;; *************** function _dirreccion *****************
  5115 ;; Defined at:
  5116 ;;		line 274 in file "auto.c"
  5117 ;; Parameters:    Size  Location     Type
  5118 ;;  degree          2    0[BANK0 ] unsigned int 
  5119 ;; Auto vars:     Size  Location     Type
  5120 ;;  tiempo_1        1    4[BANK0 ] unsigned char 
  5121 ;; Return value:  Size  Location     Type
  5122 ;;                  1    wreg      void 
  5123 ;; Registers used:
  5124 ;;		wreg, status,2, status,0
  5125 ;; Tracked objects:
  5126 ;;		On entry : 0/0
  5127 ;;		On exit  : 0/0
  5128 ;;		Unchanged: 0/0
  5129 ;; Data sizes:     COMRAM   BANK0   BANK1   BANK2   BANK3   BANK4   BANK5   BANK6   BANK7   BANK8   BANK9  BANK10  BANK1
      +1  BANK12  BANK13  BANK14
  5130 ;;      Params:         0       2       0       0       0       0       0       0       0       0       0       0       
      +0       0       0       0
  5131 ;;      Locals:         0       1       0       0       0       0       0       0       0       0       0       0       
      +0       0       0       0
  5132 ;;      Temps:          0       2       0       0       0       0       0       0       0       0       0       0       
      +0       0       0       0
  5133 ;;      Totals:         0       5       0       0       0       0       0       0       0       0       0       0       
      +0       0       0       0
  5134 ;;Total ram usage:        5 bytes
  5135 ;; Hardware stack levels used:    1
  5136 ;; Hardware stack levels required when called:    2
  5137 ;; This function calls:
  5138 ;;		Nothing
  5139 ;; This function is called by:
  5140 ;;		_terminal
  5141 ;;		_rutinaEscape
  5142 ;;		_cambiarEstadoFuego
  5143 ;; This function uses a non-reentrant model
  5144 ;;
  5145                           
  5146                           	psect	text29
  5147  002132                     __ptext29:
  5148                           	opt callstack 0
  5149  002132                     _dirreccion:
  5150                           	opt callstack 27
  5151                           
  5152                           ;auto.c: 275:     unsigned char tiempo_1 = 61;
  5153                           
  5154                           ; BSR set to: 0
  5155                           ;incstack = 0
  5156  002132  0E3D               	movlw	61
  5157  002134  0100               	movlb	0	; () banked
  5158  002136  6F64               	movwf	dirreccion@tiempo_1& (0+255),b
  5159                           
  5160                           ;auto.c: 276:     contador_timer_5 = 0;
  5161  002138  0E00               	movlw	0
  5162  00213A  6E39               	movwf	_contador_timer_5+1,c
  5163  00213C  0E00               	movlw	0
  5164  00213E  6E38               	movwf	_contador_timer_5,c
  5165                           
  5166                           ;auto.c: 277:     parar = 0;
  5167  002140  0E00               	movlw	0
  5168  002142  6E3B               	movwf	_parar+1,c
  5169  002144  0E00               	movlw	0
  5170  002146  6E3A               	movwf	_parar,c
  5171                           
  5172                           ;auto.c: 278:     switch(degree){
  5173  002148  D00D               	goto	l4075
  5174  00214A                     l4065:
  5175                           
  5176                           ; BSR set to: 0
  5177                           ;auto.c: 280:             tiempo_1 = 57;
  5178  00214A  0E39               	movlw	57
  5179  00214C  6F64               	movwf	dirreccion@tiempo_1& (0+255),b
  5180                           
  5181                           ;auto.c: 281:             servo_dirreccion = 0;
  5182  00214E  0E00               	movlw	0
  5183  002150  D007               	goto	L12
  5184  002152                     l4069:
  5185                           
  5186                           ; BSR set to: 0
  5187                           ;auto.c: 288:             tiempo_1 = 65;
  5188  002152  0E41               	movlw	65
  5189  002154  6F64               	movwf	dirreccion@tiempo_1& (0+255),b
  5190                           
  5191                           ;auto.c: 289:             servo_dirreccion = 1;
  5192  002156  0E01               	movlw	1
  5193  002158  D003               	goto	L12
  5194  00215A                     l4071:
  5195                           
  5196                           ; BSR set to: 0
  5197                           ;auto.c: 292:             tiempo_1 = 50;
  5198  00215A  0E32               	movlw	50
  5199  00215C  6F64               	movwf	dirreccion@tiempo_1& (0+255),b
  5200                           
  5201                           ;auto.c: 293:             servo_dirreccion = 2;
  5202  00215E  0E02               	movlw	2
  5203  002160                     L12:
  5204  002160  6E3F               	movwf	_servo_dirreccion,c
  5205                           
  5206                           ;auto.c: 294:             break;
  5207  002162  D015               	goto	l315
  5208  002164                     l4075:
  5209                           
  5210                           ; BSR set to: 0
  5211  002164  C060  F062         	movff	dirreccion@degree,??_dirreccion
  5212  002168  C061  F063         	movff	dirreccion@degree+1,??_dirreccion+1
  5213                           
  5214                           ; Switch on 2 bytes has been partitioned into a top level switch of size 1, and 1 sub-sw
      +                          itches
  5215                           ; Switch size 1, requested type "simple"
  5216                           ; Number of cases is 1, Range of values is 0 to 0
  5217                           ; switch strategies available:
  5218                           ; Name         Instructions Cycles
  5219                           ; simple_byte            4     3 (average)
  5220                           ;	Chosen strategy is simple_byte
  5221  00216C  5163               	movf	(??_dirreccion+1)& (0+255),w,b
  5222  00216E  0A00               	xorlw	0	; case 0
  5223  002170  A4D8               	btfss	status,2,c
  5224  002172  D00D               	goto	l315
  5225                           
  5226                           ; BSR set to: 0
  5227                           ; Switch size 1, requested type "simple"
  5228                           ; Number of cases is 4, Range of values is 0 to 180
  5229                           ; switch strategies available:
  5230                           ; Name         Instructions Cycles
  5231                           ; simple_byte           13     7 (average)
  5232                           ;	Chosen strategy is simple_byte
  5233  002174  5162               	movf	??_dirreccion& (0+255),w,b
  5234  002176  0A00               	xorlw	0	; case 0
  5235  002178  B4D8               	btfsc	status,2,c
  5236  00217A  D7EB               	goto	l4069
  5237  00217C  0A55               	xorlw	85	; case 85
  5238  00217E  B4D8               	btfsc	status,2,c
  5239  002180  D7E4               	goto	l4065
  5240  002182  0A0F               	xorlw	15	; case 90
  5241  002184  B4D8               	btfsc	status,2,c
  5242  002186  D7E1               	goto	l4065
  5243  002188  0AEE               	xorlw	238	; case 180
  5244  00218A  B4D8               	btfsc	status,2,c
  5245  00218C  D7E6               	goto	l4071
  5246  00218E                     l315:
  5247                           
  5248                           ; BSR set to: 0
  5249                           ;auto.c: 296:     if(PORTDbits.RD4 != 1){
  5250  00218E  B883               	btfsc	3971,4,c	;volatile
  5251  002190  D005               	goto	l4079
  5252                           
  5253                           ; BSR set to: 0
  5254                           ;auto.c: 297:         TIME_MAX = tiempo_1;
  5255  002192  C064  F04E         	movff	dirreccion@tiempo_1,_TIME_MAX
  5256  002196  6A4F               	clrf	_TIME_MAX+1,c
  5257                           
  5258                           ;auto.c: 298:         PORTDbits.RD4 = 1;
  5259  002198  8883               	bsf	3971,4,c	;volatile
  5260                           
  5261                           ;auto.c: 299:     }
  5262  00219A  D009               	goto	l4083
  5263  00219C                     l4079:
  5264                           
  5265                           ; BSR set to: 0
  5266                           ;auto.c: 301:         TIME_MAX = 1000 - tiempo_1;
  5267  00219C  5164               	movf	dirreccion@tiempo_1& (0+255),w,b
  5268  00219E  08E8               	sublw	232
  5269  0021A0  6E4E               	movwf	_TIME_MAX,c
  5270  0021A2  0E00               	movlw	0
  5271  0021A4  A0D8               	btfss	status,0,c
  5272  0021A6  2AE8               	incf	wreg,f,c
  5273  0021A8  0803               	sublw	3
  5274  0021AA  6E4F               	movwf	_TIME_MAX+1,c
  5275                           
  5276                           ; BSR set to: 0
  5277                           ;auto.c: 302:         PORTDbits.RD4 = 0;
  5278  0021AC  9883               	bcf	3971,4,c	;volatile
  5279  0021AE                     l4083:
  5280                           
  5281                           ; BSR set to: 0
  5282                           ;auto.c: 304:     contador_timer_5 = 0;
  5283  0021AE  0E00               	movlw	0
  5284  0021B0  6E39               	movwf	_contador_timer_5+1,c
  5285  0021B2  0E00               	movlw	0
  5286  0021B4  6E38               	movwf	_contador_timer_5,c
  5287                           
  5288                           ; BSR set to: 0
  5289                           ;auto.c: 305:     bandera_servo = 0;
  5290  0021B6  0E00               	movlw	0
  5291  0021B8  6FD8               	movwf	_bandera_servo& (0+255),b
  5292                           
  5293                           ; BSR set to: 0
  5294                           ;auto.c: 306:     T5CONbits.TMR5ON = 1;
  5295  0021BA  010F               	movlb	15	; () banked
  5296  0021BC  8122               	bsf	34,0,b	;volatile
  5297                           
  5298                           ; BSR set to: 15
  5299  0021BE  0012               	return		;funcret
  5300  0021C0                     __end_of_dirreccion:
  5301                           	opt callstack 0
  5302                           
  5303 ;; *************** function ___flge *****************
  5304 ;; Defined at:
  5305 ;;		line 4 in file "C:\Program Files (x86)\Microchip\xc8\v2.05\pic\sources\c99\common\flge.c"
  5306 ;; Parameters:    Size  Location     Type
  5307 ;;  ff1             4    0[BANK0 ] void 
  5308 ;;  ff2             4    4[BANK0 ] void 
  5309 ;; Auto vars:     Size  Location     Type
  5310 ;;		None
  5311 ;; Return value:  Size  Location     Type
  5312 ;;		None               void
  5313 ;; Registers used:
  5314 ;;		wreg, status,2, status,0
  5315 ;; Tracked objects:
  5316 ;;		On entry : 0/0
  5317 ;;		On exit  : 0/0
  5318 ;;		Unchanged: 0/0
  5319 ;; Data sizes:     COMRAM   BANK0   BANK1   BANK2   BANK3   BANK4   BANK5   BANK6   BANK7   BANK8   BANK9  BANK10  BANK1
      +1  BANK12  BANK13  BANK14
  5320 ;;      Params:         0       8       0       0       0       0       0       0       0       0       0       0       
      +0       0       0       0
  5321 ;;      Locals:         0       0       0       0       0       0       0       0       0       0       0       0       
      +0       0       0       0
  5322 ;;      Temps:          0       4       0       0       0       0       0       0       0       0       0       0       
      +0       0       0       0
  5323 ;;      Totals:         0      12       0       0       0       0       0       0       0       0       0       0       
      +0       0       0       0
  5324 ;;Total ram usage:       12 bytes
  5325 ;; Hardware stack levels used:    1
  5326 ;; Hardware stack levels required when called:    2
  5327 ;; This function calls:
  5328 ;;		Nothing
  5329 ;; This function is called by:
  5330 ;;		_main
  5331 ;; This function uses a non-reentrant model
  5332 ;;
  5333                           
  5334                           	psect	text30
  5335  001FA4                     __ptext30:
  5336                           	opt callstack 0
  5337  001FA4                     ___flge:
  5338                           	opt callstack 28
  5339                           
  5340                           ; BSR set to: 15
  5341                           ;incstack = 0
  5342  001FA4  0E00               	movlw	0
  5343  001FA6  0100               	movlb	0	; () banked
  5344  001FA8  1560               	andwf	___flge@ff1& (0+255),w,b
  5345  001FAA  6F68               	movwf	??___flge& (0+255),b
  5346  001FAC  0E00               	movlw	0
  5347  001FAE  1561               	andwf	(___flge@ff1+1)& (0+255),w,b
  5348  001FB0  6F69               	movwf	(??___flge+1)& (0+255),b
  5349  001FB2  0E80               	movlw	128
  5350  001FB4  1562               	andwf	(___flge@ff1+2)& (0+255),w,b
  5351  001FB6  6F6A               	movwf	(??___flge+2)& (0+255),b
  5352  001FB8  0E7F               	movlw	127
  5353  001FBA  1563               	andwf	(___flge@ff1+3)& (0+255),w,b
  5354  001FBC  6F6B               	movwf	(??___flge+3)& (0+255),b
  5355  001FBE  5168               	movf	??___flge& (0+255),w,b
  5356  001FC0  1169               	iorwf	(??___flge+1)& (0+255),w,b
  5357  001FC2  116A               	iorwf	(??___flge+2)& (0+255),w,b
  5358  001FC4  116B               	iorwf	(??___flge+3)& (0+255),w,b
  5359  001FC6  A4D8               	btfss	status,2,c
  5360  001FC8  D008               	goto	l4229
  5361                           
  5362                           ; BSR set to: 0
  5363  001FCA  0E00               	movlw	0
  5364  001FCC  6F60               	movwf	___flge@ff1& (0+255),b
  5365  001FCE  0E00               	movlw	0
  5366  001FD0  6F61               	movwf	(___flge@ff1+1)& (0+255),b
  5367  001FD2  0E00               	movlw	0
  5368  001FD4  6F62               	movwf	(___flge@ff1+2)& (0+255),b
  5369  001FD6  0E00               	movlw	0
  5370  001FD8  6F63               	movwf	(___flge@ff1+3)& (0+255),b
  5371  001FDA                     l4229:
  5372                           
  5373                           ; BSR set to: 0
  5374  001FDA  0E00               	movlw	0
  5375  001FDC  1564               	andwf	___flge@ff2& (0+255),w,b
  5376  001FDE  6F68               	movwf	??___flge& (0+255),b
  5377  001FE0  0E00               	movlw	0
  5378  001FE2  1565               	andwf	(___flge@ff2+1)& (0+255),w,b
  5379  001FE4  6F69               	movwf	(??___flge+1)& (0+255),b
  5380  001FE6  0E80               	movlw	128
  5381  001FE8  1566               	andwf	(___flge@ff2+2)& (0+255),w,b
  5382  001FEA  6F6A               	movwf	(??___flge+2)& (0+255),b
  5383  001FEC  0E7F               	movlw	127
  5384  001FEE  1567               	andwf	(___flge@ff2+3)& (0+255),w,b
  5385  001FF0  6F6B               	movwf	(??___flge+3)& (0+255),b
  5386  001FF2  5168               	movf	??___flge& (0+255),w,b
  5387  001FF4  1169               	iorwf	(??___flge+1)& (0+255),w,b
  5388  001FF6  116A               	iorwf	(??___flge+2)& (0+255),w,b
  5389  001FF8  116B               	iorwf	(??___flge+3)& (0+255),w,b
  5390  001FFA  A4D8               	btfss	status,2,c
  5391  001FFC  D008               	goto	l4233
  5392                           
  5393                           ; BSR set to: 0
  5394  001FFE  0E00               	movlw	0
  5395  002000  6F64               	movwf	___flge@ff2& (0+255),b
  5396  002002  0E00               	movlw	0
  5397  002004  6F65               	movwf	(___flge@ff2+1)& (0+255),b
  5398  002006  0E00               	movlw	0
  5399  002008  6F66               	movwf	(___flge@ff2+2)& (0+255),b
  5400  00200A  0E00               	movlw	0
  5401  00200C  6F67               	movwf	(___flge@ff2+3)& (0+255),b
  5402  00200E                     l4233:
  5403                           
  5404                           ; BSR set to: 0
  5405  00200E  AF63               	btfss	(___flge@ff1+3)& (0+255),7,b
  5406  002010  D009               	goto	l4237
  5407                           
  5408                           ; BSR set to: 0
  5409  002012  6D60               	negf	___flge@ff1& (0+255),b
  5410  002014  1F61               	comf	(___flge@ff1+1)& (0+255),f,b
  5411  002016  B0D8               	btfsc	status,0,c
  5412  002018  2B61               	incf	(___flge@ff1+1)& (0+255),f,b
  5413  00201A  1F62               	comf	(___flge@ff1+2)& (0+255),f,b
  5414  00201C  B0D8               	btfsc	status,0,c
  5415  00201E  2B62               	incf	(___flge@ff1+2)& (0+255),f,b
  5416  002020  0E80               	movlw	128
  5417  002022  5763               	subfwb	(___flge@ff1+3)& (0+255),f,b
  5418  002024                     l4237:
  5419                           
  5420                           ; BSR set to: 0
  5421  002024  AF67               	btfss	(___flge@ff2+3)& (0+255),7,b
  5422  002026  D009               	goto	l615
  5423                           
  5424                           ; BSR set to: 0
  5425  002028  6D64               	negf	___flge@ff2& (0+255),b
  5426  00202A  1F65               	comf	(___flge@ff2+1)& (0+255),f,b
  5427  00202C  B0D8               	btfsc	status,0,c
  5428  00202E  2B65               	incf	(___flge@ff2+1)& (0+255),f,b
  5429  002030  1F66               	comf	(___flge@ff2+2)& (0+255),f,b
  5430  002032  B0D8               	btfsc	status,0,c
  5431  002034  2B66               	incf	(___flge@ff2+2)& (0+255),f,b
  5432  002036  0E80               	movlw	128
  5433  002038  5767               	subfwb	(___flge@ff2+3)& (0+255),f,b
  5434  00203A                     l615:
  5435                           
  5436                           ; BSR set to: 0
  5437  00203A  0E00               	movlw	0
  5438  00203C  1B60               	xorwf	___flge@ff1& (0+255),f,b
  5439  00203E  0E00               	movlw	0
  5440  002040  1B61               	xorwf	(___flge@ff1+1)& (0+255),f,b
  5441  002042  0E00               	movlw	0
  5442  002044  1B62               	xorwf	(___flge@ff1+2)& (0+255),f,b
  5443  002046  0E80               	movlw	128
  5444  002048  1B63               	xorwf	(___flge@ff1+3)& (0+255),f,b
  5445  00204A  0E00               	movlw	0
  5446  00204C  1B64               	xorwf	___flge@ff2& (0+255),f,b
  5447  00204E  0E00               	movlw	0
  5448  002050  1B65               	xorwf	(___flge@ff2+1)& (0+255),f,b
  5449  002052  0E00               	movlw	0
  5450  002054  1B66               	xorwf	(___flge@ff2+2)& (0+255),f,b
  5451  002056  0E80               	movlw	128
  5452  002058  1B67               	xorwf	(___flge@ff2+3)& (0+255),f,b
  5453  00205A  5164               	movf	___flge@ff2& (0+255),w,b
  5454  00205C  5D60               	subwf	___flge@ff1& (0+255),w,b
  5455  00205E  5165               	movf	(___flge@ff2+1)& (0+255),w,b
  5456  002060  5961               	subwfb	(___flge@ff1+1)& (0+255),w,b
  5457  002062  5166               	movf	(___flge@ff2+2)& (0+255),w,b
  5458  002064  5962               	subwfb	(___flge@ff1+2)& (0+255),w,b
  5459  002066  5167               	movf	(___flge@ff2+3)& (0+255),w,b
  5460  002068  5963               	subwfb	(___flge@ff1+3)& (0+255),w,b
  5461  00206A  B0D8               	btfsc	status,0,c
  5462  00206C  D002               	goto	l4243
  5463                           
  5464                           ; BSR set to: 0
  5465  00206E  90D8               	bcf	status,0,c
  5466  002070  0012               	return	
  5467  002072                     l4243:
  5468                           
  5469                           ; BSR set to: 0
  5470  002072  80D8               	bsf	status,0,c
  5471                           
  5472                           ; BSR set to: 0
  5473  002074  0012               	return		;funcret
  5474  002076                     __end_of___flge:
  5475                           	opt callstack 0
  5476                           
  5477 ;; *************** function _PWMServo *****************
  5478 ;; Defined at:
  5479 ;;		line 309 in file "auto.c"
  5480 ;; Parameters:    Size  Location     Type
  5481 ;;		None
  5482 ;; Auto vars:     Size  Location     Type
  5483 ;;		None
  5484 ;; Return value:  Size  Location     Type
  5485 ;;                  1    wreg      void 
  5486 ;; Registers used:
  5487 ;;		wreg, status,2, status,0
  5488 ;; Tracked objects:
  5489 ;;		On entry : 0/0
  5490 ;;		On exit  : 0/0
  5491 ;;		Unchanged: 0/0
  5492 ;; Data sizes:     COMRAM   BANK0   BANK1   BANK2   BANK3   BANK4   BANK5   BANK6   BANK7   BANK8   BANK9  BANK10  BANK1
      +1  BANK12  BANK13  BANK14
  5493 ;;      Params:         0       0       0       0       0       0       0       0       0       0       0       0       
      +0       0       0       0
  5494 ;;      Locals:         0       0       0       0       0       0       0       0       0       0       0       0       
      +0       0       0       0
  5495 ;;      Temps:          0       0       0       0       0       0       0       0       0       0       0       0       
      +0       0       0       0
  5496 ;;      Totals:         0       0       0       0       0       0       0       0       0       0       0       0       
      +0       0       0       0
  5497 ;;Total ram usage:        0 bytes
  5498 ;; Hardware stack levels used:    1
  5499 ;; Hardware stack levels required when called:    2
  5500 ;; This function calls:
  5501 ;;		Nothing
  5502 ;; This function is called by:
  5503 ;;		_main
  5504 ;; This function uses a non-reentrant model
  5505 ;;
  5506                           
  5507                           	psect	text31
  5508  0024BE                     __ptext31:
  5509                           	opt callstack 0
  5510  0024BE                     _PWMServo:
  5511                           	opt callstack 28
  5512                           
  5513                           ;auto.c: 310:     contador_timer_5 = 0;
  5514                           
  5515                           ; BSR set to: 0
  5516                           ;incstack = 0
  5517  0024BE  0E00               	movlw	0
  5518  0024C0  6E39               	movwf	_contador_timer_5+1,c
  5519  0024C2  0E00               	movlw	0
  5520  0024C4  6E38               	movwf	_contador_timer_5,c
  5521                           
  5522                           ;auto.c: 311:     if(PORTDbits.RD4 == 1){
  5523  0024C6  A883               	btfss	3971,4,c	;volatile
  5524  0024C8  D010               	goto	l324
  5525                           
  5526                           ;auto.c: 312:         parar++;
  5527  0024CA  4A3A               	infsnz	_parar,f,c
  5528  0024CC  2A3B               	incf	_parar+1,f,c
  5529                           
  5530                           ;auto.c: 313:         PORTDbits.RD4 = 0;
  5531  0024CE  9883               	bcf	3971,4,c	;volatile
  5532                           
  5533                           ;auto.c: 314:         tiempo_anterior_1 = TIME_MAX;
  5534  0024D0  C04E  F04C         	movff	_TIME_MAX,_tiempo_anterior_1
  5535  0024D4  C04F  F04D         	movff	_TIME_MAX+1,_tiempo_anterior_1+1
  5536                           
  5537                           ;auto.c: 315:         TIME_MAX = 1000 - tiempo_anterior_1;
  5538  0024D8  504C               	movf	_tiempo_anterior_1,w,c
  5539  0024DA  08E8               	sublw	232
  5540  0024DC  6E4E               	movwf	_TIME_MAX,c
  5541  0024DE  504D               	movf	_tiempo_anterior_1+1,w,c
  5542  0024E0  A0D8               	btfss	status,0,c
  5543  0024E2  2AE8               	incf	wreg,f,c
  5544  0024E4  0803               	sublw	3
  5545  0024E6  6E4F               	movwf	_TIME_MAX+1,c
  5546                           
  5547                           ;auto.c: 316:     }
  5548  0024E8  D005               	goto	l4219
  5549  0024EA                     l324:
  5550                           
  5551                           ;auto.c: 318:         PORTDbits.RD4 = 1;
  5552  0024EA  8883               	bsf	3971,4,c	;volatile
  5553                           
  5554                           ;auto.c: 319:         TIME_MAX = tiempo_anterior_1;
  5555  0024EC  C04C  F04E         	movff	_tiempo_anterior_1,_TIME_MAX
  5556  0024F0  C04D  F04F         	movff	_tiempo_anterior_1+1,_TIME_MAX+1
  5557  0024F4                     l4219:
  5558                           
  5559                           ;auto.c: 321:     if(parar == 30){
  5560  0024F4  0E1E               	movlw	30
  5561  0024F6  183A               	xorwf	_parar,w,c
  5562  0024F8  103B               	iorwf	_parar+1,w,c
  5563  0024FA  A4D8               	btfss	status,2,c
  5564  0024FC  0012               	return	
  5565                           
  5566                           ;auto.c: 322:         T5CONbits.TMR5ON = 0;
  5567  0024FE  010F               	movlb	15	; () banked
  5568  002500  9122               	bcf	34,0,b	;volatile
  5569                           
  5570                           ;auto.c: 323:         PORTDbits.RD4 = 0;
  5571  002502  9883               	bcf	3971,4,c	;volatile
  5572                           
  5573                           ; BSR set to: 15
  5574                           ;auto.c: 324:         parar = 0;
  5575  002504  0E00               	movlw	0
  5576  002506  6E3B               	movwf	_parar+1,c
  5577  002508  0E00               	movlw	0
  5578  00250A  6E3A               	movwf	_parar,c
  5579  00250C  0012               	return		;funcret
  5580  00250E                     __end_of_PWMServo:
  5581                           	opt callstack 0
  5582                           
  5583 ;; *************** function _rutina *****************
  5584 ;; Defined at:
  5585 ;;		line 61 in file "auto.c"
  5586 ;; Parameters:    Size  Location     Type
  5587 ;;		None
  5588 ;; Auto vars:     Size  Location     Type
  5589 ;;  dato            1   40[COMRAM] unsigned char 
  5590 ;; Return value:  Size  Location     Type
  5591 ;;                  1    wreg      void 
  5592 ;; Registers used:
  5593 ;;		wreg, fsr2l, fsr2h, status,2, status,0, cstack
  5594 ;; Tracked objects:
  5595 ;;		On entry : 0/0
  5596 ;;		On exit  : 0/0
  5597 ;;		Unchanged: 0/0
  5598 ;; Data sizes:     COMRAM   BANK0   BANK1   BANK2   BANK3   BANK4   BANK5   BANK6   BANK7   BANK8   BANK9  BANK10  BANK1
      +1  BANK12  BANK13  BANK14
  5599 ;;      Params:         0       0       0       0       0       0       0       0       0       0       0       0       
      +0       0       0       0
  5600 ;;      Locals:         1       0       0       0       0       0       0       0       0       0       0       0       
      +0       0       0       0
  5601 ;;      Temps:          2       0       0       0       0       0       0       0       0       0       0       0       
      +0       0       0       0
  5602 ;;      Totals:         3       0       0       0       0       0       0       0       0       0       0       0       
      +0       0       0       0
  5603 ;;Total ram usage:        3 bytes
  5604 ;; Hardware stack levels used:    1
  5605 ;; Hardware stack levels required when called:    1
  5606 ;; This function calls:
  5607 ;;		___awdiv
  5608 ;;		i2___fladd
  5609 ;;		i2___xxtofl
  5610 ;; This function is called by:
  5611 ;;		Interrupt level 2
  5612 ;; This function uses a non-reentrant model
  5613 ;;
  5614                           
  5615                           	psect	intcode
  5616  000008                     __pintcode:
  5617                           	opt callstack 0
  5618  000008                     _rutina:
  5619                           	opt callstack 26
  5620                           
  5621                           ;incstack = 0
  5622  000008  8252               	bsf	btemp,1,c	;set compiler interrupt flag (level 2)
  5623  00000A  CFD9 F027          	movff	fsr2l,??_rutina
  5624  00000E  CFDA F028          	movff	fsr2h,??_rutina+1
  5625                           
  5626                           ;auto.c: 62:     if(PIR1bits.RC1IF == 1){
  5627  000012  AA9E               	btfss	3998,5,c	;volatile
  5628  000014  D016               	goto	i2l233
  5629                           
  5630                           ;auto.c: 63:         unsigned char dato = RCREG1;
  5631  000016  CFAF F029          	movff	4015,rutina@dato	;volatile
  5632                           
  5633                           ;auto.c: 64:         if(dato == 'P'){
  5634  00001A  0E50               	movlw	80
  5635  00001C  1829               	xorwf	rutina@dato,w,c
  5636  00001E  A4D8               	btfss	status,2,c
  5637  000020  D006               	goto	i2l3439
  5638                           
  5639                           ;auto.c: 65:             bandera = 1;
  5640  000022  0E01               	movlw	1
  5641  000024  0100               	movlb	0	; () banked
  5642  000026  6FD9               	movwf	_bandera& (0+255),b
  5643                           
  5644                           ;auto.c: 66:             indicador = 0;
  5645  000028  0E00               	movlw	0
  5646  00002A  6E40               	movwf	_indicador,c
  5647                           
  5648                           ;auto.c: 67:         }
  5649  00002C  D0C8               	goto	i2l254
  5650  00002E                     i2l3439:
  5651                           
  5652                           ;auto.c: 69:             datos[indicador] = dato;
  5653  00002E  0E42               	movlw	low _datos
  5654  000030  2440               	addwf	_indicador,w,c
  5655  000032  6ED9               	movwf	fsr2l,c
  5656  000034  6ADA               	clrf	fsr2h,c
  5657  000036  0E00               	movlw	high _datos
  5658  000038  22DA               	addwfc	fsr2h,f,c
  5659  00003A  C029  FFDF         	movff	rutina@dato,indf2
  5660                           
  5661                           ;auto.c: 70:             indicador++;
  5662  00003E  2A40               	incf	_indicador,f,c
  5663  000040  D0BE               	goto	i2l254
  5664  000042                     i2l233:
  5665  000042  A498               	btfss	3992,2,c	;volatile
  5666  000044  D016               	goto	i2l237
  5667                           
  5668                           ;auto.c: 74:         PIR5bits.TMR5IF = 0;
  5669  000046  9498               	bcf	3992,2,c	;volatile
  5670                           
  5671                           ;auto.c: 75:         contador_timer_5++;
  5672  000048  4A38               	infsnz	_contador_timer_5,f,c
  5673  00004A  2A39               	incf	_contador_timer_5+1,f,c
  5674                           
  5675                           ;auto.c: 76:         TMR5H = 0xFF;
  5676  00004C  010F               	movlb	15	; () banked
  5677  00004E  6924               	setf	36,b	;volatile
  5678                           
  5679                           ; BSR set to: 15
  5680                           ;auto.c: 77:         TMR5L = 0xE2;
  5681  000050  0EE2               	movlw	226
  5682  000052  6F23               	movwf	35,b	;volatile
  5683                           
  5684                           ; BSR set to: 15
  5685                           ;auto.c: 78:         if(contador_timer_5 == TIME_MAX){
  5686  000054  504E               	movf	_TIME_MAX,w,c
  5687  000056  1838               	xorwf	_contador_timer_5,w,c
  5688  000058  E103               	bnz	i2u317_41
  5689  00005A  504F               	movf	_TIME_MAX+1,w,c
  5690  00005C  1839               	xorwf	_contador_timer_5+1,w,c
  5691  00005E  A4D8               	btfss	status,2,c
  5692  000060                     i2u317_41:
  5693  000060  D0AE               	goto	i2l254
  5694                           
  5695                           ; BSR set to: 15
  5696                           ;auto.c: 79:             contador_timer_5 = 0;
  5697  000062  0E00               	movlw	0
  5698  000064  6E39               	movwf	_contador_timer_5+1,c
  5699  000066  0E00               	movlw	0
  5700  000068  6E38               	movwf	_contador_timer_5,c
  5701                           
  5702                           ;auto.c: 80:             bandera_servo = 1;
  5703  00006A  0E01               	movlw	1
  5704  00006C  0100               	movlb	0	; () banked
  5705  00006E  6FD8               	movwf	_bandera_servo& (0+255),b
  5706  000070  D0A6               	goto	i2l254
  5707  000072                     i2l237:
  5708  000072  A6A4               	btfss	4004,3,c	;volatile
  5709  000074  D013               	goto	i2l240
  5710                           
  5711                           ;auto.c: 84:         PIR3bits.TMR4IF = 0;
  5712  000076  96A4               	bcf	4004,3,c	;volatile
  5713                           
  5714                           ;auto.c: 85:         contador_distancia++;
  5715  000078  4A36               	infsnz	_contador_distancia,f,c
  5716  00007A  2A37               	incf	_contador_distancia+1,f,c
  5717                           
  5718                           ;auto.c: 86:         TMR4 = 181;
  5719  00007C  0EB5               	movlw	181
  5720  00007E  6E78               	movwf	3960,c	;volatile
  5721                           
  5722                           ;auto.c: 87:         if(contador_distancia == 1000){
  5723  000080  0EE8               	movlw	232
  5724  000082  1836               	xorwf	_contador_distancia,w,c
  5725  000084  E103               	bnz	i2u319_41
  5726  000086  0E03               	movlw	3
  5727  000088  1837               	xorwf	_contador_distancia+1,w,c
  5728  00008A  A4D8               	btfss	status,2,c
  5729  00008C                     i2u319_41:
  5730  00008C  D098               	goto	i2l254
  5731                           
  5732                           ;auto.c: 88:             contador_distancia = 0;
  5733  00008E  0E00               	movlw	0
  5734  000090  6E37               	movwf	_contador_distancia+1,c
  5735  000092  0E00               	movlw	0
  5736  000094  6E36               	movwf	_contador_distancia,c
  5737                           
  5738                           ;auto.c: 89:             TXREG2 = 0x55;
  5739  000096  0E55               	movlw	85
  5740  000098  6EA9               	movwf	4009,c	;volatile
  5741  00009A  D091               	goto	i2l254
  5742  00009C                     i2l240:
  5743  00009C  A898               	btfss	3992,4,c	;volatile
  5744  00009E  D023               	goto	i2l243
  5745                           
  5746                           ;auto.c: 93:         TMR8 = 31;
  5747  0000A0  0E1F               	movlw	31
  5748  0000A2  010F               	movlb	15	; () banked
  5749  0000A4  6F1D               	movwf	29,b	;volatile
  5750                           
  5751                           ; BSR set to: 15
  5752                           ;auto.c: 94:         PIR5bits.TMR8IF = 0;
  5753  0000A6  9898               	bcf	3992,4,c	;volatile
  5754                           
  5755                           ; BSR set to: 15
  5756                           ;auto.c: 95:         fuego_interrupcion++;
  5757  0000A8  0E01               	movlw	1
  5758  0000AA  262E               	addwf	_fuego_interrupcion,f,c
  5759  0000AC  0E00               	movlw	0
  5760  0000AE  222F               	addwfc	_fuego_interrupcion+1,f,c
  5761  0000B0  2230               	addwfc	_fuego_interrupcion+2,f,c
  5762  0000B2  2231               	addwfc	_fuego_interrupcion+3,f,c
  5763                           
  5764                           ; BSR set to: 15
  5765                           ;auto.c: 96:         if(fuego_interrupcion == TIME_FUEGO ){
  5766  0000B4  502A               	movf	_TIME_FUEGO,w,c
  5767  0000B6  182E               	xorwf	_fuego_interrupcion,w,c
  5768  0000B8  E109               	bnz	i2u321_41
  5769  0000BA  502B               	movf	_TIME_FUEGO+1,w,c
  5770  0000BC  182F               	xorwf	_fuego_interrupcion+1,w,c
  5771  0000BE  E17F               	bnz	i2l254
  5772  0000C0  502C               	movf	_TIME_FUEGO+2,w,c
  5773  0000C2  1830               	xorwf	_fuego_interrupcion+2,w,c
  5774  0000C4  E17C               	bnz	i2l254
  5775  0000C6  502D               	movf	_TIME_FUEGO+3,w,c
  5776  0000C8  1831               	xorwf	_fuego_interrupcion+3,w,c
  5777  0000CA  A4D8               	btfss	status,2,c
  5778  0000CC                     i2u321_41:
  5779  0000CC  D078               	goto	i2l254
  5780                           
  5781                           ; BSR set to: 15
  5782                           ;auto.c: 97:             fuego_interrupcion = 0;
  5783  0000CE  0E00               	movlw	0
  5784  0000D0  6E2E               	movwf	_fuego_interrupcion,c
  5785  0000D2  0E00               	movlw	0
  5786  0000D4  6E2F               	movwf	_fuego_interrupcion+1,c
  5787  0000D6  0E00               	movlw	0
  5788  0000D8  6E30               	movwf	_fuego_interrupcion+2,c
  5789  0000DA  0E00               	movlw	0
  5790  0000DC  6E31               	movwf	_fuego_interrupcion+3,c
  5791                           
  5792                           ;auto.c: 98:             cambiar_estado_fuego = 1;
  5793  0000DE  0E01               	movlw	1
  5794  0000E0  0100               	movlb	0	; () banked
  5795  0000E2  6FD5               	movwf	_cambiar_estado_fuego& (0+255),b
  5796                           
  5797                           ;auto.c: 100:     }
  5798                           
  5799                           ;auto.c: 99:         }
  5800  0000E4  D06C               	goto	i2l254
  5801  0000E6                     i2l243:
  5802  0000E6  A2F2               	btfss	4082,1,c	;volatile
  5803  0000E8  D005               	goto	i2l246
  5804                           
  5805                           ;auto.c: 102:         INTCONbits.INT0F = 0;
  5806  0000EA  92F2               	bcf	4082,1,c	;volatile
  5807                           
  5808                           ;auto.c: 103:         obstaculo = 1;
  5809  0000EC  0E01               	movlw	1
  5810  0000EE  0100               	movlb	0	; () banked
  5811  0000F0  6FD7               	movwf	_obstaculo& (0+255),b
  5812                           
  5813                           ;auto.c: 104:     }
  5814  0000F2  D065               	goto	i2l254
  5815  0000F4                     i2l246:
  5816  0000F4  AAA4               	btfss	4004,5,c	;volatile
  5817  0000F6  D057               	goto	i2l248
  5818                           
  5819                           ;auto.c: 106:         if(contador_datos == 1){
  5820  0000F8  043E               	decf	_contador_datos,w,c
  5821  0000FA  A4D8               	btfss	status,2,c
  5822  0000FC  D035               	goto	i2l3487
  5823                           
  5824                           ;auto.c: 107:             bandera_distancia = 1;
  5825  0000FE  0E01               	movlw	1
  5826  000100  0100               	movlb	0	; () banked
  5827  000102  6FD6               	movwf	_bandera_distancia& (0+255),b
  5828                           
  5829                           ; BSR set to: 0
  5830                           ;auto.c: 108:             distancia += (RCREG2)/10;
  5831  000104  C032  F017         	movff	_distancia,i2___fladd@b
  5832  000108  C033  F018         	movff	_distancia+1,i2___fladd@b+1
  5833  00010C  C034  F019         	movff	_distancia+2,i2___fladd@b+2
  5834  000110  C035  F01A         	movff	_distancia+3,i2___fladd@b+3
  5835  000114  0E00               	movlw	0
  5836  000116  6E04               	movwf	___awdiv@divisor+1,c
  5837  000118  0E0A               	movlw	10
  5838  00011A  6E03               	movwf	___awdiv@divisor,c
  5839  00011C  CFAA F001          	movff	4010,___awdiv@dividend	;volatile
  5840  000120  6A02               	clrf	___awdiv@dividend+1,c
  5841  000122  ECE0  F010         	call	___awdiv	;wreg free
  5842  000126  C001  F009         	movff	?___awdiv,i2___xxtofl@val
  5843  00012A  C002  F00A         	movff	?___awdiv+1,i2___xxtofl@val+1
  5844  00012E  0E00               	movlw	0
  5845  000130  BE0A               	btfsc	i2___xxtofl@val+1,7,c
  5846  000132  0EFF               	movlw	-1
  5847  000134  6E0B               	movwf	i2___xxtofl@val+2,c
  5848  000136  6E0C               	movwf	i2___xxtofl@val+3,c
  5849  000138  0E01               	movlw	1
  5850  00013A  ECBD  F00E         	call	i2___xxtofl
  5851  00013E  C009  F01B         	movff	?i2___xxtofl,i2___fladd@a
  5852  000142  C00A  F01C         	movff	?i2___xxtofl+1,i2___fladd@a+1
  5853  000146  C00B  F01D         	movff	?i2___xxtofl+2,i2___fladd@a+2
  5854  00014A  C00C  F01E         	movff	?i2___xxtofl+3,i2___fladd@a+3
  5855  00014E  EC20  F00B         	call	i2___fladd	;wreg free
  5856  000152  C017  F032         	movff	?i2___fladd,_distancia
  5857  000156  C018  F033         	movff	?i2___fladd+1,_distancia+1
  5858  00015A  C019  F034         	movff	?i2___fladd+2,_distancia+2
  5859  00015E  C01A  F035         	movff	?i2___fladd+3,_distancia+3
  5860                           
  5861                           ;auto.c: 109:             contador_datos = 0;
  5862  000162  0E00               	movlw	0
  5863  000164  6E3E               	movwf	_contador_datos,c
  5864                           
  5865                           ;auto.c: 110:         }
  5866  000166  D02B               	goto	i2l254
  5867  000168                     i2l3487:
  5868                           
  5869                           ;auto.c: 112:             distancia = 256*(RCREG2)/10;
  5870  000168  0E00               	movlw	0
  5871  00016A  6E04               	movwf	___awdiv@divisor+1,c
  5872  00016C  0E0A               	movlw	10
  5873  00016E  6E03               	movwf	___awdiv@divisor,c
  5874  000170  50AA               	movf	4010,w,c	;volatile
  5875  000172  6E02               	movwf	___awdiv@dividend+1,c
  5876  000174  6A01               	clrf	___awdiv@dividend,c
  5877  000176  ECE0  F010         	call	___awdiv	;wreg free
  5878  00017A  C001  F009         	movff	?___awdiv,i2___xxtofl@val
  5879  00017E  C002  F00A         	movff	?___awdiv+1,i2___xxtofl@val+1
  5880  000182  0E00               	movlw	0
  5881  000184  BE0A               	btfsc	i2___xxtofl@val+1,7,c
  5882  000186  0EFF               	movlw	-1
  5883  000188  6E0B               	movwf	i2___xxtofl@val+2,c
  5884  00018A  6E0C               	movwf	i2___xxtofl@val+3,c
  5885  00018C  0E01               	movlw	1
  5886  00018E  ECBD  F00E         	call	i2___xxtofl
  5887  000192  C009  F032         	movff	?i2___xxtofl,_distancia
  5888  000196  C00A  F033         	movff	?i2___xxtofl+1,_distancia+1
  5889  00019A  C00B  F034         	movff	?i2___xxtofl+2,_distancia+2
  5890  00019E  C00C  F035         	movff	?i2___xxtofl+3,_distancia+3
  5891                           
  5892                           ;auto.c: 113:             contador_datos ++;
  5893  0001A2  2A3E               	incf	_contador_datos,f,c
  5894  0001A4  D00C               	goto	i2l254
  5895  0001A6                     i2l248:
  5896  0001A6  B0F0               	btfsc	4080,0,c	;volatile
  5897  0001A8  A6F0               	btfss	4080,3,c	;volatile
  5898  0001AA  D009               	goto	i2l254
  5899                           
  5900                           ;auto.c: 117:         INTCON3bits.INT1F = 0;
  5901  0001AC  90F0               	bcf	4080,0,c	;volatile
  5902                           
  5903                           ;auto.c: 118:         if (estado == 'w'){
  5904  0001AE  0E77               	movlw	119
  5905  0001B0  183C               	xorwf	_estado,w,c
  5906  0001B2  A4D8               	btfss	status,2,c
  5907  0001B4  D004               	goto	i2l254
  5908                           
  5909                           ;auto.c: 119:             INTCON3bits.INT1E = 0;
  5910  0001B6  96F0               	bcf	4080,3,c	;volatile
  5911                           
  5912                           ;auto.c: 120:             bandera_fuego = 1;
  5913  0001B8  0E01               	movlw	1
  5914  0001BA  0100               	movlb	0	; () banked
  5915  0001BC  6FDA               	movwf	_bandera_fuego& (0+255),b
  5916  0001BE                     i2l254:
  5917  0001BE  C028  FFDA         	movff	??_rutina+1,fsr2h
  5918  0001C2  C027  FFD9         	movff	??_rutina,fsr2l
  5919  0001C6  9252               	bcf	btemp,1,c	;clear compiler interrupt flag (level 2)
  5920  0001C8  0011               	retfie		f
  5921  0001CA                     __end_of_rutina:
  5922                           	opt callstack 0
  5923                           
  5924 ;; *************** function i2___xxtofl *****************
  5925 ;; Defined at:
  5926 ;;		line 10 in file "C:\Program Files (x86)\Microchip\xc8\v2.05\pic\sources\c99\common\xxtofl.c"
  5927 ;; Parameters:    Size  Location     Type
  5928 ;;  sign            1    wreg     unsigned char 
  5929 ;;  val             4    8[COMRAM] long 
  5930 ;; Auto vars:     Size  Location     Type
  5931 ;;  sign            1   16[COMRAM] unsigned char 
  5932 ;;  __xxtofl        4   18[COMRAM] unsigned long 
  5933 ;;  __xxtofl        1   17[COMRAM] unsigned char 
  5934 ;; Return value:  Size  Location     Type
  5935 ;;                  4    8[COMRAM] unsigned char 
  5936 ;; Registers used:
  5937 ;;		wreg, status,2, status,0
  5938 ;; Tracked objects:
  5939 ;;		On entry : 0/0
  5940 ;;		On exit  : 0/0
  5941 ;;		Unchanged: 0/0
  5942 ;; Data sizes:     COMRAM   BANK0   BANK1   BANK2   BANK3   BANK4   BANK5   BANK6   BANK7   BANK8   BANK9  BANK10  BANK1
      +1  BANK12  BANK13  BANK14
  5943 ;;      Params:         4       0       0       0       0       0       0       0       0       0       0       0       
      +0       0       0       0
  5944 ;;      Locals:         6       0       0       0       0       0       0       0       0       0       0       0       
      +0       0       0       0
  5945 ;;      Temps:          4       0       0       0       0       0       0       0       0       0       0       0       
      +0       0       0       0
  5946 ;;      Totals:        14       0       0       0       0       0       0       0       0       0       0       0       
      +0       0       0       0
  5947 ;;Total ram usage:       14 bytes
  5948 ;; Hardware stack levels used:    1
  5949 ;; This function calls:
  5950 ;;		Nothing
  5951 ;; This function is called by:
  5952 ;;		_rutina
  5953 ;; This function uses a non-reentrant model
  5954 ;;
  5955                           
  5956                           	psect	text33
  5957  001D7A                     __ptext33:
  5958                           	opt callstack 0
  5959  001D7A                     i2___xxtofl:
  5960                           	opt callstack 26
  5961                           
  5962                           ;incstack = 0
  5963                           ;i2___xxtofl@sign stored from wreg
  5964  001D7A  6E11               	movwf	i2___xxtofl@sign,c
  5965  001D7C  5011               	movf	i2___xxtofl@sign,w,c
  5966  001D7E  A4D8               	btfss	status,2,c
  5967  001D80  AE0C               	btfss	i2___xxtofl@val+3,7,c
  5968  001D82  D01A               	goto	i2l1005
  5969  001D84  C009  F00D         	movff	i2___xxtofl@val,??i2___xxtofl
  5970  001D88  C00A  F00E         	movff	i2___xxtofl@val+1,??i2___xxtofl+1
  5971  001D8C  C00B  F00F         	movff	i2___xxtofl@val+2,??i2___xxtofl+2
  5972  001D90  C00C  F010         	movff	i2___xxtofl@val+3,??i2___xxtofl+3
  5973  001D94  1E0D               	comf	??i2___xxtofl,f,c
  5974  001D96  1E0E               	comf	??i2___xxtofl+1,f,c
  5975  001D98  1E0F               	comf	??i2___xxtofl+2,f,c
  5976  001D9A  1E10               	comf	??i2___xxtofl+3,f,c
  5977  001D9C  2A0D               	incf	??i2___xxtofl,f,c
  5978  001D9E  0E00               	movlw	0
  5979  001DA0  220E               	addwfc	??i2___xxtofl+1,f,c
  5980  001DA2  220F               	addwfc	??i2___xxtofl+2,f,c
  5981  001DA4  2210               	addwfc	??i2___xxtofl+3,f,c
  5982  001DA6  C00D  F013         	movff	??i2___xxtofl,i2___xxtofl@arg
  5983  001DAA  C00E  F014         	movff	??i2___xxtofl+1,i2___xxtofl@arg+1
  5984  001DAE  C00F  F015         	movff	??i2___xxtofl+2,i2___xxtofl@arg+2
  5985  001DB2  C010  F016         	movff	??i2___xxtofl+3,i2___xxtofl@arg+3
  5986  001DB6  D008               	goto	i2l3391
  5987  001DB8                     i2l1005:
  5988  001DB8  C009  F013         	movff	i2___xxtofl@val,i2___xxtofl@arg
  5989  001DBC  C00A  F014         	movff	i2___xxtofl@val+1,i2___xxtofl@arg+1
  5990  001DC0  C00B  F015         	movff	i2___xxtofl@val+2,i2___xxtofl@arg+2
  5991  001DC4  C00C  F016         	movff	i2___xxtofl@val+3,i2___xxtofl@arg+3
  5992  001DC8                     i2l3391:
  5993  001DC8  5009               	movf	i2___xxtofl@val,w,c
  5994  001DCA  100A               	iorwf	i2___xxtofl@val+1,w,c
  5995  001DCC  100B               	iorwf	i2___xxtofl@val+2,w,c
  5996  001DCE  100C               	iorwf	i2___xxtofl@val+3,w,c
  5997  001DD0  A4D8               	btfss	status,2,c
  5998  001DD2  D009               	goto	i2l3397
  5999  001DD4  0E00               	movlw	0
  6000  001DD6  6E09               	movwf	?i2___xxtofl,c
  6001  001DD8  0E00               	movlw	0
  6002  001DDA  6E0A               	movwf	?i2___xxtofl+1,c
  6003  001DDC  0E00               	movlw	0
  6004  001DDE  6E0B               	movwf	?i2___xxtofl+2,c
  6005  001DE0  0E00               	movlw	0
  6006  001DE2  6E0C               	movwf	?i2___xxtofl+3,c
  6007  001DE4  0012               	return	
  6008  001DE6                     i2l3397:
  6009  001DE6  0E96               	movlw	150
  6010  001DE8  6E12               	movwf	i2___xxtofl@exp,c
  6011  001DEA  D006               	goto	i2l3401
  6012  001DEC                     i2l3399:
  6013  001DEC  2A12               	incf	i2___xxtofl@exp,f,c
  6014  001DEE  90D8               	bcf	status,0,c
  6015  001DF0  3216               	rrcf	i2___xxtofl@arg+3,f,c
  6016  001DF2  3215               	rrcf	i2___xxtofl@arg+2,f,c
  6017  001DF4  3214               	rrcf	i2___xxtofl@arg+1,f,c
  6018  001DF6  3213               	rrcf	i2___xxtofl@arg,f,c
  6019  001DF8                     i2l3401:
  6020  001DF8  0E00               	movlw	0
  6021  001DFA  1413               	andwf	i2___xxtofl@arg,w,c
  6022  001DFC  6E0D               	movwf	??i2___xxtofl& (0+255),c
  6023  001DFE  0E00               	movlw	0
  6024  001E00  1414               	andwf	i2___xxtofl@arg+1,w,c
  6025  001E02  6E0E               	movwf	(??i2___xxtofl+1)& (0+255),c
  6026  001E04  0E00               	movlw	0
  6027  001E06  1415               	andwf	i2___xxtofl@arg+2,w,c
  6028  001E08  6E0F               	movwf	(??i2___xxtofl+2)& (0+255),c
  6029  001E0A  0EFE               	movlw	254
  6030  001E0C  1416               	andwf	i2___xxtofl@arg+3,w,c
  6031  001E0E  6E10               	movwf	(??i2___xxtofl+3)& (0+255),c
  6032  001E10  500D               	movf	??i2___xxtofl,w,c
  6033  001E12  100E               	iorwf	??i2___xxtofl+1,w,c
  6034  001E14  100F               	iorwf	??i2___xxtofl+2,w,c
  6035  001E16  1010               	iorwf	??i2___xxtofl+3,w,c
  6036  001E18  B4D8               	btfsc	status,2,c
  6037  001E1A  D00D               	goto	i2l1012
  6038  001E1C  D7E7               	goto	i2l3399
  6039  001E1E                     i2l3403:
  6040  001E1E  2A12               	incf	i2___xxtofl@exp,f,c
  6041  001E20  0E01               	movlw	1
  6042  001E22  2613               	addwf	i2___xxtofl@arg,f,c
  6043  001E24  0E00               	movlw	0
  6044  001E26  2214               	addwfc	i2___xxtofl@arg+1,f,c
  6045  001E28  2215               	addwfc	i2___xxtofl@arg+2,f,c
  6046  001E2A  2216               	addwfc	i2___xxtofl@arg+3,f,c
  6047  001E2C  90D8               	bcf	status,0,c
  6048  001E2E  3216               	rrcf	i2___xxtofl@arg+3,f,c
  6049  001E30  3215               	rrcf	i2___xxtofl@arg+2,f,c
  6050  001E32  3214               	rrcf	i2___xxtofl@arg+1,f,c
  6051  001E34  3213               	rrcf	i2___xxtofl@arg,f,c
  6052  001E36                     i2l1012:
  6053  001E36  0E00               	movlw	0
  6054  001E38  1413               	andwf	i2___xxtofl@arg,w,c
  6055  001E3A  6E0D               	movwf	??i2___xxtofl& (0+255),c
  6056  001E3C  0E00               	movlw	0
  6057  001E3E  1414               	andwf	i2___xxtofl@arg+1,w,c
  6058  001E40  6E0E               	movwf	(??i2___xxtofl+1)& (0+255),c
  6059  001E42  0E00               	movlw	0
  6060  001E44  1415               	andwf	i2___xxtofl@arg+2,w,c
  6061  001E46  6E0F               	movwf	(??i2___xxtofl+2)& (0+255),c
  6062  001E48  0EFF               	movlw	255
  6063  001E4A  1416               	andwf	i2___xxtofl@arg+3,w,c
  6064  001E4C  6E10               	movwf	(??i2___xxtofl+3)& (0+255),c
  6065  001E4E  500D               	movf	??i2___xxtofl,w,c
  6066  001E50  100E               	iorwf	??i2___xxtofl+1,w,c
  6067  001E52  100F               	iorwf	??i2___xxtofl+2,w,c
  6068  001E54  1010               	iorwf	??i2___xxtofl+3,w,c
  6069  001E56  B4D8               	btfsc	status,2,c
  6070  001E58  D007               	goto	i2l3411
  6071  001E5A  D7E1               	goto	i2l3403
  6072  001E5C                     i2l3409:
  6073  001E5C  0612               	decf	i2___xxtofl@exp,f,c
  6074  001E5E  90D8               	bcf	status,0,c
  6075  001E60  3613               	rlcf	i2___xxtofl@arg,f,c
  6076  001E62  3614               	rlcf	i2___xxtofl@arg+1,f,c
  6077  001E64  3615               	rlcf	i2___xxtofl@arg+2,f,c
  6078  001E66  3616               	rlcf	i2___xxtofl@arg+3,f,c
  6079  001E68                     i2l3411:
  6080  001E68  BE15               	btfsc	i2___xxtofl@arg+2,7,c
  6081  001E6A  D003               	goto	i2u310_40
  6082  001E6C  0E02               	movlw	2
  6083  001E6E  6012               	cpfslt	i2___xxtofl@exp,c
  6084  001E70  D7F5               	goto	i2l3409
  6085  001E72                     i2u310_40:
  6086  001E72  A012               	btfss	i2___xxtofl@exp,0,c
  6087  001E74  9E15               	bcf	i2___xxtofl@arg+2,7,c
  6088  001E76  90D8               	bcf	status,0,c
  6089  001E78  3212               	rrcf	i2___xxtofl@exp,f,c
  6090  001E7A  C012  F00D         	movff	i2___xxtofl@exp,??i2___xxtofl
  6091  001E7E  6A0E               	clrf	(??i2___xxtofl+1)& (0+255),c
  6092  001E80  6A0F               	clrf	(??i2___xxtofl+2)& (0+255),c
  6093  001E82  6A10               	clrf	(??i2___xxtofl+3)& (0+255),c
  6094  001E84  C00D  F010         	movff	??i2___xxtofl,??i2___xxtofl+3
  6095  001E88  6A0F               	clrf	??i2___xxtofl+2,c
  6096  001E8A  6A0E               	clrf	??i2___xxtofl+1,c
  6097  001E8C  6A0D               	clrf	??i2___xxtofl,c
  6098  001E8E  500D               	movf	??i2___xxtofl,w,c
  6099  001E90  1213               	iorwf	i2___xxtofl@arg,f,c
  6100  001E92  500E               	movf	??i2___xxtofl+1,w,c
  6101  001E94  1214               	iorwf	i2___xxtofl@arg+1,f,c
  6102  001E96  500F               	movf	??i2___xxtofl+2,w,c
  6103  001E98  1215               	iorwf	i2___xxtofl@arg+2,f,c
  6104  001E9A  5010               	movf	??i2___xxtofl+3,w,c
  6105  001E9C  1216               	iorwf	i2___xxtofl@arg+3,f,c
  6106  001E9E  5011               	movf	i2___xxtofl@sign,w,c
  6107  001EA0  A4D8               	btfss	status,2,c
  6108  001EA2  AE0C               	btfss	i2___xxtofl@val+3,7,c
  6109  001EA4  D001               	goto	i2l3427
  6110  001EA6  8E16               	bsf	i2___xxtofl@arg+3,7,c
  6111  001EA8                     i2l3427:
  6112  001EA8  C013  F009         	movff	i2___xxtofl@arg,?i2___xxtofl
  6113  001EAC  C014  F00A         	movff	i2___xxtofl@arg+1,?i2___xxtofl+1
  6114  001EB0  C015  F00B         	movff	i2___xxtofl@arg+2,?i2___xxtofl+2
  6115  001EB4  C016  F00C         	movff	i2___xxtofl@arg+3,?i2___xxtofl+3
  6116  001EB8  0012               	return		;funcret
  6117  001EBA                     __end_ofi2___xxtofl:
  6118                           	opt callstack 0
  6119                           
  6120 ;; *************** function i2___fladd *****************
  6121 ;; Defined at:
  6122 ;;		line 10 in file "C:\Program Files (x86)\Microchip\xc8\v2.05\pic\sources\c99\common\sprcadd.c"
  6123 ;; Parameters:    Size  Location     Type
  6124 ;;  b               4   22[COMRAM] unsigned char 
  6125 ;;  a               4   26[COMRAM] unsigned char 
  6126 ;; Auto vars:     Size  Location     Type
  6127 ;;  __fladd         1   37[COMRAM] unsigned char 
  6128 ;;  __fladd         1   36[COMRAM] unsigned char 
  6129 ;;  __fladd         1   35[COMRAM] unsigned char 
  6130 ;;  __fladd         1   34[COMRAM] unsigned char 
  6131 ;; Return value:  Size  Location     Type
  6132 ;;                  4   22[COMRAM] unsigned char 
  6133 ;; Registers used:
  6134 ;;		wreg, status,2, status,0
  6135 ;; Tracked objects:
  6136 ;;		On entry : 0/0
  6137 ;;		On exit  : 0/0
  6138 ;;		Unchanged: 0/0
  6139 ;; Data sizes:     COMRAM   BANK0   BANK1   BANK2   BANK3   BANK4   BANK5   BANK6   BANK7   BANK8   BANK9  BANK10  BANK1
      +1  BANK12  BANK13  BANK14
  6140 ;;      Params:         8       0       0       0       0       0       0       0       0       0       0       0       
      +0       0       0       0
  6141 ;;      Locals:         4       0       0       0       0       0       0       0       0       0       0       0       
      +0       0       0       0
  6142 ;;      Temps:          4       0       0       0       0       0       0       0       0       0       0       0       
      +0       0       0       0
  6143 ;;      Totals:        16       0       0       0       0       0       0       0       0       0       0       0       
      +0       0       0       0
  6144 ;;Total ram usage:       16 bytes
  6145 ;; Hardware stack levels used:    1
  6146 ;; This function calls:
  6147 ;;		Nothing
  6148 ;; This function is called by:
  6149 ;;		_rutina
  6150 ;; This function uses a non-reentrant model
  6151 ;;
  6152                           
  6153                           	psect	text34
  6154  001640                     __ptext34:
  6155                           	opt callstack 0
  6156  001640                     i2___fladd:
  6157                           	opt callstack 26
  6158                           
  6159                           ;incstack = 0
  6160  001640  501A               	movf	i2___fladd@b+3,w,c
  6161  001642  0B80               	andlw	128
  6162  001644  6E23               	movwf	i2___fladd@signs,c
  6163  001646  501A               	movf	i2___fladd@b+3,w,c
  6164  001648  241A               	addwf	i2___fladd@b+3,w,c
  6165  00164A  6E25               	movwf	i2___fladd@bexp,c
  6166  00164C  BE19               	btfsc	i2___fladd@b+2,7,c
  6167  00164E  8025               	bsf	i2___fladd@bexp,0,c
  6168  001650  5025               	movf	i2___fladd@bexp,w,c
  6169  001652  B4D8               	btfsc	status,2,c
  6170  001654  D00D               	goto	i2l3199
  6171  001656  2825               	incf	i2___fladd@bexp,w,c
  6172  001658  A4D8               	btfss	status,2,c
  6173  00165A  D008               	goto	i2l3195
  6174  00165C  0E00               	movlw	0
  6175  00165E  6E17               	movwf	i2___fladd@b,c
  6176  001660  0E00               	movlw	0
  6177  001662  6E18               	movwf	i2___fladd@b+1,c
  6178  001664  0E00               	movlw	0
  6179  001666  6E19               	movwf	i2___fladd@b+2,c
  6180  001668  0E00               	movlw	0
  6181  00166A  6E1A               	movwf	i2___fladd@b+3,c
  6182  00166C                     i2l3195:
  6183  00166C  8E19               	bsf	i2___fladd@b+2,7,c
  6184  00166E  D006               	goto	L13
  6185  001670                     i2l3199:
  6186  001670  0E00               	movlw	0
  6187  001672  6E17               	movwf	i2___fladd@b,c
  6188  001674  0E00               	movlw	0
  6189  001676  6E18               	movwf	i2___fladd@b+1,c
  6190  001678  0E00               	movlw	0
  6191  00167A  6E19               	movwf	i2___fladd@b+2,c
  6192  00167C                     L13:
  6193  00167C  0E00               	movlw	0
  6194  00167E  6E1A               	movwf	i2___fladd@b+3,c
  6195  001680  501E               	movf	i2___fladd@a+3,w,c
  6196  001682  0B80               	andlw	128
  6197  001684  6E24               	movwf	i2___fladd@aexp,c
  6198  001686  5023               	movf	i2___fladd@signs,w,c
  6199  001688  1824               	xorwf	i2___fladd@aexp,w,c
  6200  00168A  A4D8               	btfss	status,2,c
  6201  00168C  8C23               	bsf	i2___fladd@signs,6,c
  6202  00168E  501E               	movf	i2___fladd@a+3,w,c
  6203  001690  241E               	addwf	i2___fladd@a+3,w,c
  6204  001692  6E24               	movwf	i2___fladd@aexp,c
  6205  001694  BE1D               	btfsc	i2___fladd@a+2,7,c
  6206  001696  8024               	bsf	i2___fladd@aexp,0,c
  6207  001698  5024               	movf	i2___fladd@aexp,w,c
  6208  00169A  B4D8               	btfsc	status,2,c
  6209  00169C  D00D               	goto	i2l3223
  6210  00169E  2824               	incf	i2___fladd@aexp,w,c
  6211  0016A0  A4D8               	btfss	status,2,c
  6212  0016A2  D008               	goto	i2l3219
  6213  0016A4  0E00               	movlw	0
  6214  0016A6  6E1B               	movwf	i2___fladd@a,c
  6215  0016A8  0E00               	movlw	0
  6216  0016AA  6E1C               	movwf	i2___fladd@a+1,c
  6217  0016AC  0E00               	movlw	0
  6218  0016AE  6E1D               	movwf	i2___fladd@a+2,c
  6219  0016B0  0E00               	movlw	0
  6220  0016B2  6E1E               	movwf	i2___fladd@a+3,c
  6221  0016B4                     i2l3219:
  6222  0016B4  8E1D               	bsf	i2___fladd@a+2,7,c
  6223  0016B6  D006               	goto	L14
  6224  0016B8                     i2l3223:
  6225  0016B8  0E00               	movlw	0
  6226  0016BA  6E1B               	movwf	i2___fladd@a,c
  6227  0016BC  0E00               	movlw	0
  6228  0016BE  6E1C               	movwf	i2___fladd@a+1,c
  6229  0016C0  0E00               	movlw	0
  6230  0016C2  6E1D               	movwf	i2___fladd@a+2,c
  6231  0016C4                     L14:
  6232  0016C4  0E00               	movlw	0
  6233  0016C6  6E1E               	movwf	i2___fladd@a+3,c
  6234  0016C8  5025               	movf	i2___fladd@bexp,w,c
  6235  0016CA  5C24               	subwf	i2___fladd@aexp,w,c
  6236  0016CC  B0D8               	btfsc	status,0,c
  6237  0016CE  D022               	goto	i2l3261
  6238  0016D0  AC23               	btfss	i2___fladd@signs,6,c
  6239  0016D2  D002               	goto	i2l3231
  6240  0016D4  0E80               	movlw	128
  6241  0016D6  1A23               	xorwf	i2___fladd@signs,f,c
  6242  0016D8                     i2l3231:
  6243  0016D8  C025  F026         	movff	i2___fladd@bexp,i2___fladd@grs
  6244  0016DC  C024  F025         	movff	i2___fladd@aexp,i2___fladd@bexp
  6245  0016E0  C026  F024         	movff	i2___fladd@grs,i2___fladd@aexp
  6246  0016E4  C017  F026         	movff	i2___fladd@b,i2___fladd@grs
  6247  0016E8  C01B  F017         	movff	i2___fladd@a,i2___fladd@b
  6248  0016EC  C026  F01B         	movff	i2___fladd@grs,i2___fladd@a
  6249  0016F0  C018  F026         	movff	i2___fladd@b+1,i2___fladd@grs
  6250  0016F4  C01C  F018         	movff	i2___fladd@a+1,i2___fladd@b+1
  6251  0016F8  C026  F01C         	movff	i2___fladd@grs,i2___fladd@a+1
  6252  0016FC  C019  F026         	movff	i2___fladd@b+2,i2___fladd@grs
  6253  001700  C01D  F019         	movff	i2___fladd@a+2,i2___fladd@b+2
  6254  001704  C026  F01D         	movff	i2___fladd@grs,i2___fladd@a+2
  6255  001708  C01A  F026         	movff	i2___fladd@b+3,i2___fladd@grs
  6256  00170C  C01E  F01A         	movff	i2___fladd@a+3,i2___fladd@b+3
  6257  001710  C026  F01E         	movff	i2___fladd@grs,i2___fladd@a+3
  6258  001714                     i2l3261:
  6259  001714  0E00               	movlw	0
  6260  001716  6E26               	movwf	i2___fladd@grs,c
  6261  001718  5025               	movf	i2___fladd@bexp,w,c
  6262  00171A  C024  F01F         	movff	i2___fladd@aexp,??i2___fladd
  6263  00171E  6A20               	clrf	(??i2___fladd+1)& (0+255),c
  6264  001720  5E1F               	subwf	??i2___fladd,f,c
  6265  001722  0E00               	movlw	0
  6266  001724  5A20               	subwfb	??i2___fladd+1,f,c
  6267  001726  BE20               	btfsc	??i2___fladd+1,7,c
  6268  001728  D02C               	goto	i2l879
  6269  00172A  5020               	movf	??i2___fladd+1,w,c
  6270  00172C  E104               	bnz	i2u274_40
  6271  00172E  0E1A               	movlw	26
  6272  001730  5C1F               	subwf	??i2___fladd,w,c
  6273  001732  A0D8               	btfss	status,0,c
  6274  001734  D026               	goto	i2l879
  6275  001736                     i2u274_40:
  6276  001736  5017               	movf	i2___fladd@b,w,c
  6277  001738  1018               	iorwf	i2___fladd@b+1,w,c
  6278  00173A  1019               	iorwf	i2___fladd@b+2,w,c
  6279  00173C  101A               	iorwf	i2___fladd@b+3,w,c
  6280  00173E  B4D8               	btfsc	status,2,c
  6281  001740  D002               	goto	i2u275_40
  6282  001742  0E01               	movlw	1
  6283  001744  D001               	goto	i2u276_40
  6284  001746                     i2u275_40:
  6285  001746  0E00               	movlw	0
  6286  001748                     i2u276_40:
  6287  001748  6E26               	movwf	i2___fladd@grs,c
  6288  00174A  0E00               	movlw	0
  6289  00174C  6E17               	movwf	i2___fladd@b,c
  6290  00174E  0E00               	movlw	0
  6291  001750  6E18               	movwf	i2___fladd@b+1,c
  6292  001752  0E00               	movlw	0
  6293  001754  6E19               	movwf	i2___fladd@b+2,c
  6294  001756  0E00               	movlw	0
  6295  001758  6E1A               	movwf	i2___fladd@b+3,c
  6296  00175A  C024  F025         	movff	i2___fladd@aexp,i2___fladd@bexp
  6297  00175E  D015               	goto	i2u279_40
  6298  001760                     i2l880:
  6299  001760  A026               	btfss	i2___fladd@grs,0,c
  6300  001762  D005               	goto	i2l3273
  6301  001764  90D8               	bcf	status,0,c
  6302  001766  3026               	rrcf	i2___fladd@grs,w,c
  6303  001768  0901               	iorlw	1
  6304  00176A  6E26               	movwf	i2___fladd@grs,c
  6305  00176C  D002               	goto	i2l3275
  6306  00176E                     i2l3273:
  6307  00176E  90D8               	bcf	status,0,c
  6308  001770  3226               	rrcf	i2___fladd@grs,f,c
  6309  001772                     i2l3275:
  6310  001772  B017               	btfsc	i2___fladd@b,0,c
  6311  001774  8E26               	bsf	i2___fladd@grs,7,c
  6312  001776  341A               	rlcf	i2___fladd@b+3,w,c
  6313  001778  321A               	rrcf	i2___fladd@b+3,f,c
  6314  00177A  3219               	rrcf	i2___fladd@b+2,f,c
  6315  00177C  3218               	rrcf	i2___fladd@b+1,f,c
  6316  00177E  3217               	rrcf	i2___fladd@b,f,c
  6317  001780  2A25               	incf	i2___fladd@bexp,f,c
  6318  001782                     i2l879:
  6319  001782  5024               	movf	i2___fladd@aexp,w,c
  6320  001784  5C25               	subwf	i2___fladd@bexp,w,c
  6321  001786  A0D8               	btfss	status,0,c
  6322  001788  D7EB               	goto	i2l880
  6323  00178A                     i2u279_40:
  6324  00178A  BC23               	btfsc	i2___fladd@signs,6,c
  6325  00178C  D028               	goto	i2l3307
  6326  00178E  5025               	movf	i2___fladd@bexp,w,c
  6327  001790  A4D8               	btfss	status,2,c
  6328  001792  D009               	goto	i2l3289
  6329  001794  0E00               	movlw	0
  6330  001796  6E17               	movwf	?i2___fladd,c
  6331  001798  0E00               	movlw	0
  6332  00179A  6E18               	movwf	?i2___fladd+1,c
  6333  00179C  0E00               	movlw	0
  6334  00179E  6E19               	movwf	?i2___fladd+2,c
  6335  0017A0  0E00               	movlw	0
  6336  0017A2  6E1A               	movwf	?i2___fladd+3,c
  6337  0017A4  0012               	return	
  6338  0017A6                     i2l3289:
  6339  0017A6  501B               	movf	i2___fladd@a,w,c
  6340  0017A8  2617               	addwf	i2___fladd@b,f,c
  6341  0017AA  501C               	movf	i2___fladd@a+1,w,c
  6342  0017AC  2218               	addwfc	i2___fladd@b+1,f,c
  6343  0017AE  501D               	movf	i2___fladd@a+2,w,c
  6344  0017B0  2219               	addwfc	i2___fladd@b+2,f,c
  6345  0017B2  501E               	movf	i2___fladd@a+3,w,c
  6346  0017B4  221A               	addwfc	i2___fladd@b+3,f,c
  6347  0017B6  A01A               	btfss	i2___fladd@b+3,0,c
  6348  0017B8  D071               	goto	i2u292_40
  6349  0017BA  A026               	btfss	i2___fladd@grs,0,c
  6350  0017BC  D005               	goto	i2l3297
  6351  0017BE  90D8               	bcf	status,0,c
  6352  0017C0  3026               	rrcf	i2___fladd@grs,w,c
  6353  0017C2  0901               	iorlw	1
  6354  0017C4  6E26               	movwf	i2___fladd@grs,c
  6355  0017C6  D002               	goto	i2l3299
  6356  0017C8                     i2l3297:
  6357  0017C8  90D8               	bcf	status,0,c
  6358  0017CA  3226               	rrcf	i2___fladd@grs,f,c
  6359  0017CC                     i2l3299:
  6360  0017CC  B017               	btfsc	i2___fladd@b,0,c
  6361  0017CE  8E26               	bsf	i2___fladd@grs,7,c
  6362  0017D0  341A               	rlcf	i2___fladd@b+3,w,c
  6363  0017D2  321A               	rrcf	i2___fladd@b+3,f,c
  6364  0017D4  3219               	rrcf	i2___fladd@b+2,f,c
  6365  0017D6  3218               	rrcf	i2___fladd@b+1,f,c
  6366  0017D8  3217               	rrcf	i2___fladd@b,f,c
  6367  0017DA  2A25               	incf	i2___fladd@bexp,f,c
  6368  0017DC  D05F               	goto	i2u292_40
  6369  0017DE                     i2l3307:
  6370  0017DE  501B               	movf	i2___fladd@a,w,c
  6371  0017E0  5C17               	subwf	i2___fladd@b,w,c
  6372  0017E2  501C               	movf	i2___fladd@a+1,w,c
  6373  0017E4  5818               	subwfb	i2___fladd@b+1,w,c
  6374  0017E6  501D               	movf	i2___fladd@a+2,w,c
  6375  0017E8  5819               	subwfb	i2___fladd@b+2,w,c
  6376  0017EA  501A               	movf	i2___fladd@b+3,w,c
  6377  0017EC  0A80               	xorlw	128
  6378  0017EE  6E1F               	movwf	??i2___fladd& (0+255),c
  6379  0017F0  501E               	movf	i2___fladd@a+3,w,c
  6380  0017F2  0A80               	xorlw	128
  6381  0017F4  581F               	subwfb	??i2___fladd& (0+255),w,c
  6382  0017F6  B0D8               	btfsc	status,0,c
  6383  0017F8  D025               	goto	i2l3317
  6384  0017FA  5017               	movf	i2___fladd@b,w,c
  6385  0017FC  5C1B               	subwf	i2___fladd@a,w,c
  6386  0017FE  6E1F               	movwf	??i2___fladd& (0+255),c
  6387  001800  5018               	movf	i2___fladd@b+1,w,c
  6388  001802  581C               	subwfb	i2___fladd@a+1,w,c
  6389  001804  6E20               	movwf	(??i2___fladd+1)& (0+255),c
  6390  001806  5019               	movf	i2___fladd@b+2,w,c
  6391  001808  581D               	subwfb	i2___fladd@a+2,w,c
  6392  00180A  6E21               	movwf	(??i2___fladd+2)& (0+255),c
  6393  00180C  501A               	movf	i2___fladd@b+3,w,c
  6394  00180E  581E               	subwfb	i2___fladd@a+3,w,c
  6395  001810  6E22               	movwf	(??i2___fladd+3)& (0+255),c
  6396  001812  0EFF               	movlw	255
  6397  001814  241F               	addwf	??i2___fladd,w,c
  6398  001816  6E17               	movwf	i2___fladd@b,c
  6399  001818  0EFF               	movlw	255
  6400  00181A  2020               	addwfc	??i2___fladd+1,w,c
  6401  00181C  6E18               	movwf	i2___fladd@b+1,c
  6402  00181E  0EFF               	movlw	255
  6403  001820  2021               	addwfc	??i2___fladd+2,w,c
  6404  001822  6E19               	movwf	i2___fladd@b+2,c
  6405  001824  0EFF               	movlw	255
  6406  001826  2022               	addwfc	??i2___fladd+3,w,c
  6407  001828  6E1A               	movwf	i2___fladd@b+3,c
  6408  00182A  0E80               	movlw	128
  6409  00182C  1A23               	xorwf	i2___fladd@signs,f,c
  6410  00182E  6C26               	negf	i2___fladd@grs,c
  6411  001830  5026               	movf	i2___fladd@grs,w,c
  6412  001832  A4D8               	btfss	status,2,c
  6413  001834  D00F               	goto	i2l895
  6414  001836  0E01               	movlw	1
  6415  001838  2617               	addwf	i2___fladd@b,f,c
  6416  00183A  0E00               	movlw	0
  6417  00183C  2218               	addwfc	i2___fladd@b+1,f,c
  6418  00183E  2219               	addwfc	i2___fladd@b+2,f,c
  6419  001840  221A               	addwfc	i2___fladd@b+3,f,c
  6420  001842  D008               	goto	i2l895
  6421  001844                     i2l3317:
  6422  001844  501B               	movf	i2___fladd@a,w,c
  6423  001846  5E17               	subwf	i2___fladd@b,f,c
  6424  001848  501C               	movf	i2___fladd@a+1,w,c
  6425  00184A  5A18               	subwfb	i2___fladd@b+1,f,c
  6426  00184C  501D               	movf	i2___fladd@a+2,w,c
  6427  00184E  5A19               	subwfb	i2___fladd@b+2,f,c
  6428  001850  501E               	movf	i2___fladd@a+3,w,c
  6429  001852  5A1A               	subwfb	i2___fladd@b+3,f,c
  6430  001854                     i2l895:
  6431  001854  5017               	movf	i2___fladd@b,w,c
  6432  001856  1018               	iorwf	i2___fladd@b+1,w,c
  6433  001858  1019               	iorwf	i2___fladd@b+2,w,c
  6434  00185A  101A               	iorwf	i2___fladd@b+3,w,c
  6435  00185C  A4D8               	btfss	status,2,c
  6436  00185E  D01C               	goto	i2l3341
  6437  001860  5026               	movf	i2___fladd@grs,w,c
  6438  001862  A4D8               	btfss	status,2,c
  6439  001864  D019               	goto	i2l3341
  6440  001866  0E00               	movlw	0
  6441  001868  6E17               	movwf	?i2___fladd,c
  6442  00186A  0E00               	movlw	0
  6443  00186C  6E18               	movwf	?i2___fladd+1,c
  6444  00186E  0E00               	movlw	0
  6445  001870  6E19               	movwf	?i2___fladd+2,c
  6446  001872  0E00               	movlw	0
  6447  001874  6E1A               	movwf	?i2___fladd+3,c
  6448  001876  0012               	return	
  6449  001878                     i2l3325:
  6450  001878  90D8               	bcf	status,0,c
  6451  00187A  3617               	rlcf	i2___fladd@b,f,c
  6452  00187C  3618               	rlcf	i2___fladd@b+1,f,c
  6453  00187E  3619               	rlcf	i2___fladd@b+2,f,c
  6454  001880  361A               	rlcf	i2___fladd@b+3,f,c
  6455  001882  BE26               	btfsc	i2___fladd@grs,7,c
  6456  001884  8017               	bsf	i2___fladd@b,0,c
  6457  001886  A026               	btfss	i2___fladd@grs,0,c
  6458  001888  D002               	goto	i2l3335
  6459  00188A  80D8               	bsf	status,0,c
  6460  00188C  D001               	goto	L15
  6461  00188E                     i2l3335:
  6462  00188E  90D8               	bcf	status,0,c
  6463  001890                     L15:
  6464  001890  3626               	rlcf	i2___fladd@grs,f,c
  6465  001892  5025               	movf	i2___fladd@bexp,w,c
  6466  001894  A4D8               	btfss	status,2,c
  6467  001896  0625               	decf	i2___fladd@bexp,f,c
  6468  001898                     i2l3341:
  6469  001898  AE19               	btfss	i2___fladd@b+2,7,c
  6470  00189A  D7EE               	goto	i2l3325
  6471  00189C                     i2u292_40:
  6472  00189C  0E00               	movlw	0
  6473  00189E  6E24               	movwf	i2___fladd@aexp,c
  6474  0018A0  AE26               	btfss	i2___fladd@grs,7,c
  6475  0018A2  D00B               	goto	i2l904
  6476  0018A4  C026  F01F         	movff	i2___fladd@grs,??i2___fladd
  6477  0018A8  0E7F               	movlw	127
  6478  0018AA  161F               	andwf	??i2___fladd,f,c
  6479  0018AC  B4D8               	btfsc	status,2,c
  6480  0018AE  D003               	goto	i2l905
  6481  0018B0                     i2u294_40:
  6482  0018B0  0E01               	movlw	1
  6483  0018B2  6E24               	movwf	i2___fladd@aexp,c
  6484  0018B4  D002               	goto	i2l904
  6485  0018B6                     i2l905:
  6486  0018B6  B017               	btfsc	i2___fladd@b,0,c
  6487  0018B8  D7FB               	goto	i2u294_40
  6488  0018BA                     i2l904:
  6489  0018BA  5024               	movf	i2___fladd@aexp,w,c
  6490  0018BC  B4D8               	btfsc	status,2,c
  6491  0018BE  D020               	goto	i2l3361
  6492  0018C0  0E01               	movlw	1
  6493  0018C2  2617               	addwf	i2___fladd@b,f,c
  6494  0018C4  0E00               	movlw	0
  6495  0018C6  2218               	addwfc	i2___fladd@b+1,f,c
  6496  0018C8  2219               	addwfc	i2___fladd@b+2,f,c
  6497  0018CA  221A               	addwfc	i2___fladd@b+3,f,c
  6498  0018CC  A01A               	btfss	i2___fladd@b+3,0,c
  6499  0018CE  D018               	goto	i2l3361
  6500  0018D0  C017  F01F         	movff	i2___fladd@b,??i2___fladd
  6501  0018D4  C018  F020         	movff	i2___fladd@b+1,??i2___fladd+1
  6502  0018D8  C019  F021         	movff	i2___fladd@b+2,??i2___fladd+2
  6503  0018DC  C01A  F022         	movff	i2___fladd@b+3,??i2___fladd+3
  6504  0018E0  3422               	rlcf	??i2___fladd+3,w,c
  6505  0018E2  3222               	rrcf	??i2___fladd+3,f,c
  6506  0018E4  3221               	rrcf	??i2___fladd+2,f,c
  6507  0018E6  3220               	rrcf	??i2___fladd+1,f,c
  6508  0018E8  321F               	rrcf	??i2___fladd,f,c
  6509  0018EA  C01F  F017         	movff	??i2___fladd,i2___fladd@b
  6510  0018EE  C020  F018         	movff	??i2___fladd+1,i2___fladd@b+1
  6511  0018F2  C021  F019         	movff	??i2___fladd+2,i2___fladd@b+2
  6512  0018F6  C022  F01A         	movff	??i2___fladd+3,i2___fladd@b+3
  6513  0018FA  2825               	incf	i2___fladd@bexp,w,c
  6514  0018FC  A4D8               	btfss	status,2,c
  6515  0018FE  2A25               	incf	i2___fladd@bexp,f,c
  6516  001900                     i2l3361:
  6517  001900  2825               	incf	i2___fladd@bexp,w,c
  6518  001902  B4D8               	btfsc	status,2,c
  6519  001904  D003               	goto	i2u300_40
  6520  001906  5025               	movf	i2___fladd@bexp,w,c
  6521  001908  A4D8               	btfss	status,2,c
  6522  00190A  D00D               	goto	i2l3369
  6523  00190C                     i2u300_40:
  6524  00190C  0E00               	movlw	0
  6525  00190E  6E17               	movwf	i2___fladd@b,c
  6526  001910  0E00               	movlw	0
  6527  001912  6E18               	movwf	i2___fladd@b+1,c
  6528  001914  0E00               	movlw	0
  6529  001916  6E19               	movwf	i2___fladd@b+2,c
  6530  001918  0E00               	movlw	0
  6531  00191A  6E1A               	movwf	i2___fladd@b+3,c
  6532  00191C  5025               	movf	i2___fladd@bexp,w,c
  6533  00191E  A4D8               	btfss	status,2,c
  6534  001920  D002               	goto	i2l3369
  6535  001922  0E00               	movlw	0
  6536  001924  6E23               	movwf	i2___fladd@signs,c
  6537  001926                     i2l3369:
  6538  001926  A025               	btfss	i2___fladd@bexp,0,c
  6539  001928  D002               	goto	i2l3373
  6540  00192A  8E19               	bsf	i2___fladd@b+2,7,c
  6541  00192C  D001               	goto	i2l3375
  6542  00192E                     i2l3373:
  6543  00192E  9E19               	bcf	i2___fladd@b+2,7,c
  6544  001930                     i2l3375:
  6545  001930  90D8               	bcf	status,0,c
  6546  001932  3025               	rrcf	i2___fladd@bexp,w,c
  6547  001934  6E1A               	movwf	i2___fladd@b+3,c
  6548  001936  BE23               	btfsc	i2___fladd@signs,7,c
  6549  001938  8E1A               	bsf	i2___fladd@b+3,7,c
  6550  00193A  C017  F017         	movff	i2___fladd@b,?i2___fladd
  6551  00193E  C018  F018         	movff	i2___fladd@b+1,?i2___fladd+1
  6552  001942  C019  F019         	movff	i2___fladd@b+2,?i2___fladd+2
  6553  001946  C01A  F01A         	movff	i2___fladd@b+3,?i2___fladd+3
  6554  00194A  0012               	return		;funcret
  6555  00194C                     __end_ofi2___fladd:
  6556                           	opt callstack 0
  6557                           
  6558 ;; *************** function ___awdiv *****************
  6559 ;; Defined at:
  6560 ;;		line 7 in file "C:\Program Files (x86)\Microchip\xc8\v2.05\pic\sources\c99\common\awdiv.c"
  6561 ;; Parameters:    Size  Location     Type
  6562 ;;  dividend        2    0[COMRAM] int 
  6563 ;;  divisor         2    2[COMRAM] int 
  6564 ;; Auto vars:     Size  Location     Type
  6565 ;;  quotient        2    6[COMRAM] int 
  6566 ;;  sign            1    5[COMRAM] unsigned char 
  6567 ;;  counter         1    4[COMRAM] unsigned char 
  6568 ;; Return value:  Size  Location     Type
  6569 ;;                  2    0[COMRAM] int 
  6570 ;; Registers used:
  6571 ;;		wreg, status,2, status,0
  6572 ;; Tracked objects:
  6573 ;;		On entry : 0/0
  6574 ;;		On exit  : 0/0
  6575 ;;		Unchanged: 0/0
  6576 ;; Data sizes:     COMRAM   BANK0   BANK1   BANK2   BANK3   BANK4   BANK5   BANK6   BANK7   BANK8   BANK9  BANK10  BANK1
      +1  BANK12  BANK13  BANK14
  6577 ;;      Params:         4       0       0       0       0       0       0       0       0       0       0       0       
      +0       0       0       0
  6578 ;;      Locals:         4       0       0       0       0       0       0       0       0       0       0       0       
      +0       0       0       0
  6579 ;;      Temps:          0       0       0       0       0       0       0       0       0       0       0       0       
      +0       0       0       0
  6580 ;;      Totals:         8       0       0       0       0       0       0       0       0       0       0       0       
      +0       0       0       0
  6581 ;;Total ram usage:        8 bytes
  6582 ;; Hardware stack levels used:    1
  6583 ;; This function calls:
  6584 ;;		Nothing
  6585 ;; This function is called by:
  6586 ;;		_rutina
  6587 ;; This function uses a non-reentrant model
  6588 ;;
  6589                           
  6590                           	psect	text35
  6591  0021C0                     __ptext35:
  6592                           	opt callstack 0
  6593  0021C0                     ___awdiv:
  6594                           	opt callstack 26
  6595                           
  6596                           ;incstack = 0
  6597  0021C0  0E00               	movlw	0
  6598  0021C2  6E06               	movwf	___awdiv@sign,c
  6599  0021C4  AE04               	btfss	___awdiv@divisor+1,7,c
  6600  0021C6  D006               	goto	i2l3125
  6601  0021C8  6C03               	negf	___awdiv@divisor,c
  6602  0021CA  1E04               	comf	___awdiv@divisor+1,f,c
  6603  0021CC  B0D8               	btfsc	status,0,c
  6604  0021CE  2A04               	incf	___awdiv@divisor+1,f,c
  6605  0021D0  0E01               	movlw	1
  6606  0021D2  6E06               	movwf	___awdiv@sign,c
  6607  0021D4                     i2l3125:
  6608  0021D4  AE02               	btfss	___awdiv@dividend+1,7,c
  6609  0021D6  D006               	goto	i2l3131
  6610  0021D8  6C01               	negf	___awdiv@dividend,c
  6611  0021DA  1E02               	comf	___awdiv@dividend+1,f,c
  6612  0021DC  B0D8               	btfsc	status,0,c
  6613  0021DE  2A02               	incf	___awdiv@dividend+1,f,c
  6614  0021E0  0E01               	movlw	1
  6615  0021E2  1A06               	xorwf	___awdiv@sign,f,c
  6616  0021E4                     i2l3131:
  6617  0021E4  0E00               	movlw	0
  6618  0021E6  6E08               	movwf	___awdiv@quotient+1,c
  6619  0021E8  0E00               	movlw	0
  6620  0021EA  6E07               	movwf	___awdiv@quotient,c
  6621  0021EC  5003               	movf	___awdiv@divisor,w,c
  6622  0021EE  1004               	iorwf	___awdiv@divisor+1,w,c
  6623  0021F0  B4D8               	btfsc	status,2,c
  6624  0021F2  D01C               	goto	i2l3153
  6625  0021F4  0E01               	movlw	1
  6626  0021F6  6E05               	movwf	___awdiv@counter,c
  6627  0021F8  D004               	goto	i2l3139
  6628  0021FA                     i2l3137:
  6629  0021FA  90D8               	bcf	status,0,c
  6630  0021FC  3603               	rlcf	___awdiv@divisor,f,c
  6631  0021FE  3604               	rlcf	___awdiv@divisor+1,f,c
  6632  002200  2A05               	incf	___awdiv@counter,f,c
  6633  002202                     i2l3139:
  6634  002202  AE04               	btfss	___awdiv@divisor+1,7,c
  6635  002204  D7FA               	goto	i2l3137
  6636  002206                     i2u257_40:
  6637  002206  90D8               	bcf	status,0,c
  6638  002208  3607               	rlcf	___awdiv@quotient,f,c
  6639  00220A  3608               	rlcf	___awdiv@quotient+1,f,c
  6640  00220C  5003               	movf	___awdiv@divisor,w,c
  6641  00220E  5C01               	subwf	___awdiv@dividend,w,c
  6642  002210  5004               	movf	___awdiv@divisor+1,w,c
  6643  002212  5802               	subwfb	___awdiv@dividend+1,w,c
  6644  002214  A0D8               	btfss	status,0,c
  6645  002216  D005               	goto	i2l3149
  6646  002218  5003               	movf	___awdiv@divisor,w,c
  6647  00221A  5E01               	subwf	___awdiv@dividend,f,c
  6648  00221C  5004               	movf	___awdiv@divisor+1,w,c
  6649  00221E  5A02               	subwfb	___awdiv@dividend+1,f,c
  6650  002220  8007               	bsf	___awdiv@quotient,0,c
  6651  002222                     i2l3149:
  6652  002222  90D8               	bcf	status,0,c
  6653  002224  3204               	rrcf	___awdiv@divisor+1,f,c
  6654  002226  3203               	rrcf	___awdiv@divisor,f,c
  6655  002228  2E05               	decfsz	___awdiv@counter,f,c
  6656  00222A  D7ED               	goto	i2u257_40
  6657  00222C                     i2l3153:
  6658  00222C  5006               	movf	___awdiv@sign,w,c
  6659  00222E  B4D8               	btfsc	status,2,c
  6660  002230  D004               	goto	i2l3157
  6661  002232  6C07               	negf	___awdiv@quotient,c
  6662  002234  1E08               	comf	___awdiv@quotient+1,f,c
  6663  002236  B0D8               	btfsc	status,0,c
  6664  002238  2A08               	incf	___awdiv@quotient+1,f,c
  6665  00223A                     i2l3157:
  6666  00223A  C007  F001         	movff	___awdiv@quotient,?___awdiv
  6667  00223E  C008  F002         	movff	___awdiv@quotient+1,?___awdiv+1
  6668  002242  0012               	return		;funcret
  6669  002244                     __end_of___awdiv:
  6670                           	opt callstack 0
  6671                           
  6672                           	psect	rparam
  6673  0000                     
  6674                           	psect	temp
  6675  000052                     btemp:
  6676                           	opt callstack 0
  6677  000052                     	ds	1
  6678  0000                     int$flags	set	btemp
  6679  0000                     wtemp8	set	btemp+1
  6680  0000                     ttemp5	set	btemp+1
  6681  0000                     ttemp6	set	btemp+4
  6682  0000                     ttemp7	set	btemp+8
  6683                           tosu	equ	0xFFF
  6684                           tosh	equ	0xFFE
  6685                           tosl	equ	0xFFD
  6686                           stkptr	equ	0xFFC
  6687                           pclatu	equ	0xFFB
  6688                           pclath	equ	0xFFA
  6689                           pcl	equ	0xFF9
  6690                           tblptru	equ	0xFF8
  6691                           tblptrh	equ	0xFF7
  6692                           tblptrl	equ	0xFF6
  6693                           tablat	equ	0xFF5
  6694                           prodh	equ	0xFF4
  6695                           prodl	equ	0xFF3
  6696                           indf0	equ	0xFEF
  6697                           postinc0	equ	0xFEE
  6698                           postdec0	equ	0xFED
  6699                           preinc0	equ	0xFEC
  6700                           plusw0	equ	0xFEB
  6701                           fsr0h	equ	0xFEA
  6702                           fsr0l	equ	0xFE9
  6703                           wreg	equ	0xFE8
  6704                           indf1	equ	0xFE7
  6705                           postinc1	equ	0xFE6
  6706                           postdec1	equ	0xFE5
  6707                           preinc1	equ	0xFE4
  6708                           plusw1	equ	0xFE3
  6709                           fsr1h	equ	0xFE2
  6710                           fsr1l	equ	0xFE1
  6711                           bsr	equ	0xFE0
  6712                           indf2	equ	0xFDF
  6713                           postinc2	equ	0xFDE
  6714                           postdec2	equ	0xFDD
  6715                           preinc2	equ	0xFDC
  6716                           plusw2	equ	0xFDB
  6717                           fsr2h	equ	0xFDA
  6718                           fsr2l	equ	0xFD9
  6719                           status	equ	0xFD8


Data Sizes:
    Strings     220
    Constant    0
    Data        12
    BSS         60
    Persistent  0
    Stack       0

Auto Spaces:
    Space          Size  Autos    Used
    COMRAM           94     41      81
    BANK0           160     97     129
    BANK1           256      0       0
    BANK2           256      0       0
    BANK3           256      0       0
    BANK4           256      0       0
    BANK5           256      0       0
    BANK6           256      0       0
    BANK7           256      0       0
    BANK8           256      0       0
    BANK9           256      0       0
    BANK10          256      0       0
    BANK11          256      0       0
    BANK12          256      0       0
    BANK13          256      0       0
    BANK14          176      0       0

Pointer List with Targets:

    terminal@comand	PTR unsigned char  size(2) Largest target is 10
		 -> datos(COMRAM[10]), 

    length@text	PTR unsigned char  size(2) Largest target is 29
		 -> STR_11(CODE[7]), STR_10(CODE[25]), STR_9(CODE[27]), STR_8(CODE[21]), 
		 -> STR_7(CODE[20]), STR_6(CODE[23]), STR_5(CODE[14]), STR_4(CODE[29]), 
		 -> STR_3(CODE[21]), STR_2(CODE[24]), STR_1(CODE[9]), 

    enviarRS232@valores	PTR unsigned char  size(2) Largest target is 29
		 -> STR_11(CODE[7]), STR_10(CODE[25]), STR_9(CODE[27]), STR_8(CODE[21]), 
		 -> STR_7(CODE[20]), STR_6(CODE[23]), STR_5(CODE[14]), STR_4(CODE[29]), 
		 -> STR_3(CODE[21]), STR_2(CODE[24]), STR_1(CODE[9]), 


Critical Paths under _main in COMRAM

    None.

Critical Paths under _rutina in COMRAM

    _rutina->i2___fladd
    i2___xxtofl->___awdiv
    i2___fladd->i2___xxtofl

Critical Paths under _main in BANK0

    _main->_terminal
    _terminal->_fijarVelocidad
    _cambiarPWM->_definirVelocidad
    _rutinaEscape->_fijarVelocidad
    _fijarVelocidad->___fladd
    ___fltol->___flmul
    ___flmul->___xxtofl
    ___fladd->___flmul
    _enviarRS232->_length
    _encenderMotor->_definirVelocidad
    _encenderMotor->_rutinaArranque
    _cambiarEstadoFuego->_estadoDirreccion

Critical Paths under _rutina in BANK0

    None.

Critical Paths under _main in BANK1

    None.

Critical Paths under _rutina in BANK1

    None.

Critical Paths under _main in BANK2

    None.

Critical Paths under _rutina in BANK2

    None.

Critical Paths under _main in BANK3

    None.

Critical Paths under _rutina in BANK3

    None.

Critical Paths under _main in BANK4

    None.

Critical Paths under _rutina in BANK4

    None.

Critical Paths under _main in BANK5

    None.

Critical Paths under _rutina in BANK5

    None.

Critical Paths under _main in BANK6

    None.

Critical Paths under _rutina in BANK6

    None.

Critical Paths under _main in BANK7

    None.

Critical Paths under _rutina in BANK7

    None.

Critical Paths under _main in BANK8

    None.

Critical Paths under _rutina in BANK8

    None.

Critical Paths under _main in BANK9

    None.

Critical Paths under _rutina in BANK9

    None.

Critical Paths under _main in BANK10

    None.

Critical Paths under _rutina in BANK10

    None.

Critical Paths under _main in BANK11

    None.

Critical Paths under _rutina in BANK11

    None.

Critical Paths under _main in BANK12

    None.

Critical Paths under _rutina in BANK12

    None.

Critical Paths under _main in BANK13

    None.

Critical Paths under _rutina in BANK13

    None.

Critical Paths under _main in BANK14

    None.

Critical Paths under _rutina in BANK14

    None.

Call Graph Tables:

 ---------------------------------------------------------------------------------
 (Depth) Function   	        Calls       Base Space   Used Autos Params    Refs
 ---------------------------------------------------------------------------------
 (0) _main                                                 2     2      0   19694
                                             95 BANK0      2     2      0
                           _PWMServo
                             ___flge
                 _cambiarEstadoFuego
               _configuracionInicial
                        _enviarRS232
                        _frenarMotor
                       _rutinaEscape
                           _terminal
 ---------------------------------------------------------------------------------
 (1) _terminal                                            31    29      2    8824
                                             64 BANK0     31    29      2
                           _adelante
                              _atras
                         _cambiarPWM
                         _dirreccion
                      _encenderMotor
                        _enviarRS232
                   _estadoDirreccion
                   _estadosVelocidad
                     _fijarVelocidad
                        _frenarMotor
 ---------------------------------------------------------------------------------
 (2) _estadosVelocidad                                     3     3      0      31
                                              0 BANK0      3     3      0
 ---------------------------------------------------------------------------------
 (2) _cambiarPWM                                           0     0      0       0
                   _definirVelocidad
 ---------------------------------------------------------------------------------
 (2) _atras                                                0     0      0       0
 ---------------------------------------------------------------------------------
 (1) _rutinaEscape                                         3     3      0    8357
                                             64 BANK0      3     3      0
                           _adelante
                         _dirreccion
                      _encenderMotor
                        _enviarRS232
                     _fijarVelocidad
                        _frenarMotor
 ---------------------------------------------------------------------------------
 (2) _fijarVelocidad                                       9     9      0    6441
                                             55 BANK0      9     9      0
                            ___fladd
                            ___flmul
                            ___fltol
                           ___xxtofl
 ---------------------------------------------------------------------------------
 (3) ___xxtofl                                            14    10      4     676
                                              0 BANK0     14    10      4
 ---------------------------------------------------------------------------------
 (3) ___fltol                                             10     6      4     305
                                             39 BANK0     10     6      4
                            ___flmul (ARG)
 ---------------------------------------------------------------------------------
 (3) ___flmul                                             25    17      8    2873
                                             14 BANK0     25    17      8
                           ___xxtofl (ARG)
 ---------------------------------------------------------------------------------
 (3) ___fladd                                             16     8      8    2488
                                             39 BANK0     16     8      8
                            ___flmul (ARG)
                           ___xxtofl (ARG)
 ---------------------------------------------------------------------------------
 (2) _enviarRS232                                          7     5      2    1417
                                              8 BANK0      7     5      2
                             _length
 ---------------------------------------------------------------------------------
 (3) _length                                               8     6      2     263
                                              0 BANK0      8     6      2
 ---------------------------------------------------------------------------------
 (2) _encenderMotor                                        0     0      0       0
                   _definirVelocidad
                     _rutinaArranque
 ---------------------------------------------------------------------------------
 (3) _rutinaArranque                                       2     2      0       0
                                              0 BANK0      2     2      0
 ---------------------------------------------------------------------------------
 (3) _definirVelocidad                                     2     2      0       0
                                              0 BANK0      2     2      0
 ---------------------------------------------------------------------------------
 (2) _adelante                                             0     0      0       0
 ---------------------------------------------------------------------------------
 (1) _configuracionInicial                                 0     0      0       0
           _configurarInterrupciones
                     _configurarPWM7
                  _configurarPuertos
                    _configurarRS232
               _configurarRS232US100
                     _configurarTMR4
                     _configurarTMR5
                     _configurarTMR8
 ---------------------------------------------------------------------------------
 (2) _configurarTMR8                                       0     0      0       0
 ---------------------------------------------------------------------------------
 (2) _configurarTMR5                                       0     0      0       0
 ---------------------------------------------------------------------------------
 (2) _configurarTMR4                                       0     0      0       0
 ---------------------------------------------------------------------------------
 (2) _configurarRS232US100                                 0     0      0       0
 ---------------------------------------------------------------------------------
 (2) _configurarRS232                                      0     0      0       0
 ---------------------------------------------------------------------------------
 (2) _configurarPuertos                                    0     0      0       0
 ---------------------------------------------------------------------------------
 (2) _configurarPWM7                                       0     0      0       0
 ---------------------------------------------------------------------------------
 (2) _configurarInterrupciones                             0     0      0       0
 ---------------------------------------------------------------------------------
 (1) _cambiarEstadoFuego                                   4     4      0     650
                                              7 BANK0      4     4      0
                         _dirreccion
                   _estadoDirreccion
                        _frenarMotor
 ---------------------------------------------------------------------------------
 (2) _frenarMotor                                          0     0      0       0
 ---------------------------------------------------------------------------------
 (2) _estadoDirreccion                                     7     5      2     145
                                              0 BANK0      7     5      2
 ---------------------------------------------------------------------------------
 (2) _dirreccion                                           5     3      2     468
                                              0 BANK0      5     3      2
 ---------------------------------------------------------------------------------
 (1) ___flge                                              12     4      8     446
                                              0 BANK0     12     4      8
 ---------------------------------------------------------------------------------
 (1) _PWMServo                                             0     0      0       0
 ---------------------------------------------------------------------------------
 Estimated maximum stack depth 3
 ---------------------------------------------------------------------------------
 (Depth) Function   	        Calls       Base Space   Used Autos Params    Refs
 ---------------------------------------------------------------------------------
 (4) _rutina                                               3     3      0    3059
                                             38 COMRAM     3     3      0
                            ___awdiv
                          i2___fladd
                         i2___xxtofl
 ---------------------------------------------------------------------------------
 (5) i2___xxtofl                                          14    10      4     374
                                              8 COMRAM    14    10      4
                            ___awdiv (ARG)
 ---------------------------------------------------------------------------------
 (5) i2___fladd                                           16     8      8    2036
                                             22 COMRAM    16     8      8
                            ___awdiv (ARG)
                         i2___xxtofl (ARG)
 ---------------------------------------------------------------------------------
 (5) ___awdiv                                              8     4      4     604
                                              0 COMRAM     8     4      4
 ---------------------------------------------------------------------------------
 Estimated maximum stack depth 5
 ---------------------------------------------------------------------------------

 Call Graph Graphs:

 _main (ROOT)
   _PWMServo
   ___flge
   _cambiarEstadoFuego
     _dirreccion
     _estadoDirreccion
     _frenarMotor
   _configuracionInicial
     _configurarInterrupciones
     _configurarPWM7
     _configurarPuertos
     _configurarRS232
     _configurarRS232US100
     _configurarTMR4
     _configurarTMR5
     _configurarTMR8
   _enviarRS232
     _length
   _frenarMotor
   _rutinaEscape
     _adelante
     _dirreccion
     _encenderMotor
       _definirVelocidad
       _rutinaArranque
     _enviarRS232
       _length
     _fijarVelocidad
       ___fladd
         ___flmul (ARG)
           ___xxtofl (ARG)
         ___xxtofl (ARG)
       ___flmul
         ___xxtofl (ARG)
       ___fltol
         ___flmul (ARG)
           ___xxtofl (ARG)
       ___xxtofl
     _frenarMotor
   _terminal
     _adelante
     _atras
     _cambiarPWM
       _definirVelocidad
     _dirreccion
     _encenderMotor
       _definirVelocidad
       _rutinaArranque
     _enviarRS232
       _length
     _estadoDirreccion
     _estadosVelocidad
     _fijarVelocidad
       ___fladd
         ___flmul (ARG)
           ___xxtofl (ARG)
         ___xxtofl (ARG)
       ___flmul
         ___xxtofl (ARG)
       ___fltol
         ___flmul (ARG)
           ___xxtofl (ARG)
       ___xxtofl
     _frenarMotor

 _rutina (ROOT)
   ___awdiv
   i2___fladd
     ___awdiv (ARG)
     i2___xxtofl (ARG)
       ___awdiv (ARG)
   i2___xxtofl
     ___awdiv (ARG)

 Address spaces:
Name               Size   Autos  Total    Cost      Usage
BIGRAM             EAF      0       0      35        0.0%
BITBANK13          100      0       0      31        0.0%
BANK13             100      0       0      32        0.0%
BITBANK12          100      0       0      29        0.0%
BANK12             100      0       0      30        0.0%
BITBANK11          100      0       0      27        0.0%
BANK11             100      0       0      28        0.0%
BITBANK10          100      0       0      25        0.0%
BANK10             100      0       0      26        0.0%
BITBANK9           100      0       0      23        0.0%
BANK9              100      0       0      24        0.0%
BITBANK8           100      0       0      21        0.0%
BANK8              100      0       0      22        0.0%
BITBANK7           100      0       0      19        0.0%
BANK7              100      0       0      20        0.0%
BITBANK6           100      0       0      17        0.0%
BANK6              100      0       0      18        0.0%
BITBANK5           100      0       0      15        0.0%
BANK5              100      0       0      16        0.0%
BITBANK4           100      0       0      13        0.0%
BANK4              100      0       0      14        0.0%
BITBANK3           100      0       0      11        0.0%
BANK3              100      0       0      12        0.0%
BITBANK2           100      0       0       9        0.0%
BANK2              100      0       0      10        0.0%
BITBANK1           100      0       0       7        0.0%
BANK1              100      0       0       8        0.0%
BITBANK14           B0      0       0      33        0.0%
BANK14              B0      0       0      34        0.0%
BITBANK0            A0      0       0       4        0.0%
BANK0               A0     61      81       5       80.6%
BITCOMRAM           5E      0       0       0        0.0%
COMRAM              5E     29      51       1       86.2%
BITSFR_2             0      0       0     200        0.0%
SFR_2                0      0       0     200        0.0%
BITSFR_1             0      0       0     200        0.0%
SFR_1                0      0       0     200        0.0%
BITSFR               0      0       0     200        0.0%
SFR                  0      0       0     200        0.0%
STACK                0      0       0       2        0.0%
NULL                 0      0       0       0        0.0%
ABS                  0      0      D2       6        0.0%
DATA                 0      0      D2       3        0.0%
CODE                 0      0       0       0        0.0%


Microchip Technology PIC18 Macro Assembler V2.05 build -831301201 
Symbol Table                                                                                   Thu Jul 04 18:10:00 2019

                     ___awdiv@sign 0006                       __CFG_CP0$OFF 000000  
                    terminal@texto 00A7                                l303 22BC  
                              l315 218E                                l324 24EA  
                              l615 203A                                l288 1BEE  
                              l904 15AE                                l905 15AA  
                              l880 1454                                l964 1060  
                              l981 12FE                                l973 1278  
                              l974 1274                                l895 1548  
                              l879 1476                                _PR2 000FCB  
                      i2___fladd@a 001B                        i2___fladd@b 0017  
                  ?_configurarTMR4 0001                    ?_configurarTMR5 0001  
                  ?_configurarPWM7 0001                    ?_configurarTMR8 0001  
                   terminal@degree 00BD                         i2___xxtofl 1D7A  
                   terminal@comand 00A0                   ??_fijarVelocidad 0097  
                              wreg 000FE8                       __CFG_IESO$ON 000000  
                     ___flmul@aexp 007B                       ___flmul@bexp 0080  
                     ___flmul@sign 007A                       ___flmul@temp 0085  
                     ___flmul@prod 0081           __end_of_estadoDirreccion 22C6  
                     ___fltol@exp1 0090                    ??_encenderMotor 0062  
                             l1012 1CF6                               l1005 1C78  
                             l2411 13A8                               l4013 23F2  
                             l4007 23BE                               l2423 13CC  
                             l2415 13AC                               l4103 22D4  
                             l4041 2266                               l4043 226C  
                             l4131 2344                               l4123 231C  
                             l4053 2290                               l4037 2254  
                             l2517 156C                               l2533 158C  
                             l2509 1538                               l2453 1408  
                             l4301 1A98                               l4071 215A  
                             l2527 1582                               l2391 1364  
                             l4119 2316                               l4233 200E  
                             l4065 214A                               l4049 227E  
                             l4057 229A                               l2561 161A  
                             l2553 15F4                               l2481 149A  
                             l2465 1462                               l2713 2096  
                             l4161 1AD4                               l4219 24F4  
                             l4243 2072                               l4083 21AE  
                             l4075 2164                               l4139 2378  
                             l4147 2384                               l2491 14C0  
                             l2467 1466                               l2387 1360  
                             l4307 1AB0                               l4237 2024  
                             l4229 1FDA                               l4069 2152  
                             l2565 1622                               l2741 2104  
                             l2733 20F0                               l4181 1B48  
                 _maximun_constant 00DB                               l4079 219C  
                             l2567 1624                               l4191 1BBA  
                             l3721 248A                               l2489 14BC  
                             l2729 20E0                               l4185 1B52  
                             l4177 1B10                               l4169 1AF2  
                             l4265 19D8                               l2499 14D2  
                             l3811 1220                               l2747 2120  
                             l2739 20F8                               l4179 1B2C  
                             l3741 100C                               l3901 1D68  
                             l4285 1A58                               l4277 1A28  
                             l4293 1A7E                               l3727 24AE  
                             l3743 1010                               l4199 1BF0  
                             l3841 12DA                               l3817 123E  
                             l3761 1050                               l3745 1020  
                             l3853 131C                               l3837 12BC  
                             l3759 104C                               l3871 1CA6  
                             l3769 107E                               l3873 1CAC  
                             l3865 1C88                               l3883 1D1C  
                             l3875 1CB8                               l3885 1D28  
                             l3877 1CDE                               l3983 2514  
               __CFG_WPFP$PAGE_127 000000                               l3985 2526  
                             l3989 2538                               STR_1 0FCD  
                             STR_2 0F52                               STR_3 0F96  
                             STR_4 0F01                               STR_5 0FBF  
                   _contador_datos 003E                               STR_6 0F6A  
                             STR_7 0FAB                               STR_8 0F81  
                             STR_9 0F1E                               u2050 1600  
                             u2330 210A                               u1800 143A  
                             u2280 2084                               u1810 143C  
                             u2290 20B4                               u3500 126E  
                             u2295 20AA                               u1840 147E  
                             u3450 106C                               u3540 12CA  
                             u3460 11E2                               u1790 142A  
                             u3550 12E8                               u3630 1D32  
                             u3465 11D8                               u1970 1590  
                             u3731 1AC8                               u1990 15A4  
                             u3907 196A                               u3917 1992  
                             u3927 19BA                               u3937 1BD2  
                             u3947 23E4                               u3957 25AE  
                     ?_frenarMotor 0001                               _TMR2 000FCC  
                             _TMR4 000F78                               _TMR8 000F1D  
                 ?_configurarRS232 0001                       ?_enviarRS232 0068  
                    __CFG_FCMEN$ON 000000                               _main 194C  
                             fsr2h 000FDA                               indf2 000FDF  
                             fsr1l 000FE1                               fsr2l 000FD9  
                             btemp 0052                               prodh 000FF4  
                             prodl 000FF3                               start 01CA  
                     ___param_bank 000000              __size_of_rutinaEscape 0076  
                    __CFG_PLLDIV$3 000000                       _BAUDCON1bits 000F7E  
                     _BAUDCON2bits 000F7C                      ___fltol@sign1 008F  
                  __end_of___fladd 1640                              ?_main 0001  
                  __end_of___awdiv 2244                              STR_10 0F39  
                            STR_11 0FD6                    __end_of___flmul 1332  
                  __end_of___fltol 2132                    ___awdiv@divisor 0003  
                            _T2CON 000FCA                              _T5CON 000F22  
                            i2l240 009C                              i2l233 0042  
                            i2l243 00E6                              i2l237 0072  
                            i2l246 00F4                              i2l254 01BE  
                            i2l248 01A6                              i2l904 18BA  
                            i2l905 18B6                              i2l880 1760  
                  ___awdiv@counter 0005                              i2l895 1854  
                            i2l879 1782                              _TMR5H 000F24  
                            _TMR5L 000F23                   _estadosVelocidad 250E  
                    i2___fladd@grs 0026                              _datos 0042  
                            _atras 26A0                              _parar 003A  
                   __CFG_CLKOEC$ON 000000                              _motor 0041  
                            tablat 000FF5                   __end_of_PWMServo 250E  
                            ttemp5 0053                              ttemp6 0056  
                            ttemp7 005A                              status 000FD8  
                            wtemp8 0053                   _servo_dirreccion 003F  
                 terminal@medicion 00BB          enviarRS232@longitud_texto 006C  
               __size_ofi2___fladd 030C                       _rutinaEscape 22C6  
          __CFG_DSWDTOSC$INTOSCREF 000000                    __initialization 2406  
                     __end_of_main 1AC2                  ?_definirVelocidad 0001  
               ??_definirVelocidad 0060                     __CFG_OSC$HSPLL 000000  
                           ??_main 00BF                      __activetblptr 000003  
                 dirreccion@degree 0060                        ?i2___xxtofl 0009  
                           ?_atras 0001                             _CCPR7L 000F0A  
                           _ANCON0 000F48                             _ANCON1 000F49  
                 ___awdiv@dividend 0001                             i2l1012 1E36  
                           i2l1005 1DB8                             i2l3131 21E4  
                           i2l3125 21D4                             i2l3231 16D8  
                           i2l3223 16B8                             i2l3137 21FA  
                           i2l3153 222C                             i2l3401 1DF8  
                           i2l3139 2202                             i2l3307 17DE  
                           i2l3219 16B4                             i2l3411 1E68  
                           i2l3403 1E1E                             i2l3157 223A  
                           i2l3149 2222                             i2l3325 1878  
                           i2l3341 1898                             i2l3317 1844  
                           i2l3261 1714                     __CFG_WDTEN$OFF 000000  
                           i2l3335 188E                             i2l3361 1900  
                           i2l3273 176E                             i2l3409 1E5C  
                           i2l3275 1772                             i2l3195 166C  
                           i2l3427 1EA8                             i2l3373 192E  
                           i2l3375 1930                             i2l3199 1670  
                           i2l3391 1DC8                             i2l3439 002E  
                           i2l3369 1926                             i2l3297 17C8  
                           i2l3289 17A6                             i2l3299 17CC  
                           i2l3397 1DE6                             i2l3399 1DEC  
                           i2l3487 0168                             _RCREG1 000FAF  
                           _RCREG2 000FAA                   __end_of_adelante 26CA  
                           _RCSTA1 000FAC                             _RCSTA2 000F9C  
                           _SPBRG1 000FB0                             _SPBRG2 000FAB  
                           _PPSCON 000EBF                             _RPINR1 000EE1  
                           _RPOR23 000ED7                     __CFG_WPCFG$OFF 000000  
                           _TXREG1 000FAE                             _TXREG2 000FA9  
                 __end_of___xxtofl 1D7A                             _TXSTA1 000FAD  
                           _TXSTA2 000FA8                     __CFG_WPDIS$OFF 000000  
                 _contador_timer_5 0038                     i2___fladd@aexp 0024  
                   i2___fladd@bexp 0025                     __CFG_XINST$OFF 000000  
                     _CCPTMRS1bits 000F51                             ___flge 1FA4  
                        ??___fladd 008F                  _tiempo_anterior_1 004C  
                        ??___awdiv 0005                     __CFG_STVREN$ON 000000  
                        ??___flmul 0076                          ??___fltol 008B  
    __size_of_configuracionInicial 0022                             _estado 003C  
                           _length 2468                             clear_0 244C  
                           clear_1 2458                   ___awdiv@quotient 0007  
                           _rutina 0008                  _configurarPuertos 2680  
                     __pdataCOMRAM 004C                  __end_ofi2___fladd 194C  
               ?_configurarPuertos 0001                       __mediumconst 0000  
                 __end_of_terminal 1C36                             tblptrh 000FF7  
                           tblptrl 000FF6                             tblptru 000FF8  
                 rutinaEscape@type 00A2                ??_configurarPuertos 0060  
                       ___flge@ff1 0060                         ___flge@ff2 0064  
             __CFG_LS48MHZ$SYS48X8 000000                       ___xxtofl@arg 006A  
                     ___xxtofl@exp 0069                       ___xxtofl@val 0060  
     __end_of_configurarRS232US100 2602                         __accesstop 0060  
          __end_of__initialization 245E               __size_of_frenarMotor 0010  
         _configurarInterrupciones 2622               __size_of_enviarRS232 0064  
                    ___rparam_used 000001                         ___fltol@f1 0087  
                     enviarRS232@i 006E         __end_of_cambiarEstadoFuego 23A2  
                  __CFG_IOL1WAY$ON 000000               __CFG_WPEND$PAGE_WPFP 000000  
              __size_ofi2___xxtofl 0140                     __pcstackCOMRAM 0001  
                     __pidataBANK0 26EA                      __end_of_atras 26AE  
                 ??_configurarTMR4 0060                   ??_configurarTMR5 0060  
                 ??_configurarPWM7 0060                   ??_configurarTMR8 0060  
        __end_of_configurarPuertos 2690                    __CFG_DSWDTPS$G2 000000  
                        ?_PWMServo 0001                         _cambiarPWM 26D8  
                          ??_atras 0060                  ?_estadoDirreccion 0060  
          __size_of_rutinaArranque 002C                         __pbssBANK0 00C1  
               ??_estadoDirreccion 0062           __end_of_estadosVelocidad 2558  
                          ?___flge 0060                            ?_length 0060  
                       ??_PWMServo 0060                            ?_rutina 0001  
                        ?_adelante 0001                          ?___xxtofl 0060  
                       _dirreccion 2132                            _RPINR16 000EF7  
           estadosVelocidad@estado 0062                      _bandera_fuego 00DA  
                 fijarVelocidad@DC 0097                      _bandera_servo 00D8  
            __end_of_encenderMotor 26BC                   __CFG_CFGPLLEN$ON 000000  
                  i2___fladd@signs 0023                            __Hparam 0000  
                          __Lparam 0000           __size_of_configurarRS232 0018  
                        ?_terminal 00A0                    __size_of___flge 00D2  
                          ___fladd 1332                            ___awdiv 21C0  
                          ___flmul 0FDE                            ___fltol 2076  
                     __psmallconst 0F00                            _bandera 00D9  
       __size_of_configurarPuertos 0010                            __pcinit 2406  
                  __size_of_length 0056                            __ramtop 0F00  
           estadoDirreccion@angulo 0064                            __ptext0 194C  
                          __ptext1 1AC2                            __ptext2 250E  
                          __ptext3 26D8                            __ptext4 26A0  
                          __ptext5 22C6                            __ptext6 1EBA  
                          __ptext7 1C36                            __ptext8 2076  
                          __ptext9 0FDE               _configurarRS232US100 25E0  
                       ??_adelante 0060                    __size_of_rutina 01C2  
                        _T2CONbits 000FCA                       ??i2___xxtofl 000D  
                       ??___xxtofl 0064                          _T4CONbits 000F76  
                      ?_cambiarPWM 0001                          _T5CONbits 000F22  
        __size_of_definirVelocidad 003A                     length@longitud 0064  
                        _T8CONbits 000F1B               end_of_initialization 245E  
                          length@i 0067            __size_of_fijarVelocidad 00EA  
                   i2___xxtofl@arg 0013                     i2___xxtofl@exp 0012  
                   i2___xxtofl@val 0009                 __end_ofi2___xxtofl 1EBA  
                       ??_terminal 00A2                            postdec1 000FE5  
                          postinc0 000FEE                            postinc2 000FDE  
            ?_configurarRS232US100 0001                          _PORTAbits 000F80  
                        _PORTDbits 000F83                   __CFG_DSBOREN$OFF 000000  
                      ___fladd@grs 0096                   __CFG_CPUDIV$OSC1 000000  
                    ___xxtofl@sign 0068                          _TRISAbits 000F92  
                        _TRISBbits 000F93                          _TRISCbits 000F94  
                        _TRISDbits 000F95                        ?_dirreccion 0060  
       ??_configurarInterrupciones 0060       __end_of_configuracionInicial 25E0  
                        i2___fladd 1640                  __CFG_SOSCSEL$HIGH 000000  
                   _rutinaArranque 2592                        ___flmul@grs 007C  
                      _CCP7CONbits 000F09                __CFG_MSSP7B_EN$MSK7 000000  
              __size_of_cambiarPWM 000C                     __end_of___flge 2076  
                    __pidataCOMRAM 26E4                  ??_configurarRS232 0060  
                   __end_of_length 24BE                 _cambiarEstadoFuego 233C  
                 __CFG_DSWDTEN$OFF 000000                     __end_of_rutina 01CA  
              start_initialization 2406                  __size_of_PWMServo 0050  
           __end_of_rutinaArranque 25BE                ?_cambiarEstadoFuego 0001  
                       ?i2___fladd 0017                      ??_frenarMotor 0060  
                    ??_enviarRS232 006A                         length@dato 0066  
                       length@text 0060                  ?_estadosVelocidad 0001  
             ??_cambiarEstadoFuego 0067                           ??___flge 0068  
              __size_of_dirreccion 008E                 ??_estadosVelocidad 0060  
        __size_of_estadoDirreccion 0082                  __CFG_ADCSEL$BIT12 000000  
                      __pdataBANK0 00DB             ??_configurarRS232US100 0060  
                         ??_length 0062                           ??_rutina 0027  
                        ___fladd@a 008B                          ___fladd@b 0087  
                        ___flmul@a 0072                          ___flmul@b 006E  
                      __pbssCOMRAM 002A                  __size_of_adelante 000E  
                    __pcstackBANK0 0060                    ?_rutinaArranque 0001  
                 _definirVelocidad 2558                  __size_of___xxtofl 0144  
             _cambiar_estado_fuego 00D5                     _fijarVelocidad 1EBA  
                    ?_rutinaEscape 0001                __end_of_frenarMotor 26A0  
              __end_of_enviarRS232 2406                 enviarRS232@valores 0068  
                        __pintcode 0008                           ?___fladd 0087  
                         ?___awdiv 0001                           ?___flmul 006E  
                         ?___fltol 0087               _configuracionInicial 25BE  
               dirreccion@tiempo_1 0064                  __size_of_terminal 0174  
                        _distancia 0032                        __smallconst 0F00  
                        _indicador 0040               __CFG_RTCOSC$T1OSCREF 000000  
                     ??_cambiarPWM 0062   __end_of_configurarInterrupciones 2642  
          __size_of_configurarTMR4 000E            __size_of_configurarPWM7 0020  
          __size_of_configurarTMR5 0016            __size_of_configurarTMR8 0010  
                      ??i2___fladd 001F                     __size_of_atras 000E  
           __end_of_fijarVelocidad 1FA4              estadoDirreccion@valor 0066  
                        _obstaculo 00D7                 _contador_distancia 0036  
                   ??_rutinaEscape 00A0                           _PIE1bits 000F9D  
                         _PIE3bits 000FA3                           _PIE5bits 000F91  
                         i2u300_40 190C                           i2u310_40 1E72  
                         i2u321_41 00CC                           i2u317_41 0060  
                         i2u319_41 008C                           i2u257_40 2206  
                         _PIR1bits 000F9E                           i2u274_40 1736  
                         i2u275_40 1746                           i2u292_40 189C  
                         i2u276_40 1748                           _PIR3bits 000FA4  
                         i2u294_40 18B0                           i2u279_40 178A  
                         _PIR5bits 000F98                   __CFG_WDTPS$32768 000000  
            ?_configuracionInicial 0001                           _TIME_MAX 004E  
               __end_of_cambiarPWM 26E4                          _velocidad 00DF  
           __size_of_encenderMotor 000E                           _PWMServo 24BE  
                     ??_dirreccion 0062                        _INTCON2bits 000FF1  
                      _INTCON3bits 000FF0                          copy_data0 241A  
                        copy_data1 243A                    ?_fijarVelocidad 0001  
                      _frenarMotor 2690                        _enviarRS232 23A2  
                  _configurarRS232 2642                           __Hrparam 0000  
                         __Lrparam 0000                   _estadoDirreccion 2244  
                      _estadoFuego 003D                 __end_of_dirreccion 21C0  
                 __size_of___fladd 030E                   __size_of___awdiv 0084  
                 __size_of___flmul 0354                   __size_of___fltol 00BC  
               _fuego_interrupcion 002E                           _adelante 26BC  
              _fijarVelocidad$1921 009B                           _cicle_90 0050  
                         ___xxtofl 1C36                           __ptext10 1332  
                         __ptext11 23A2                           __ptext20 26CA  
                         __ptext12 2468                           __ptext21 25E0  
                         __ptext13 26AE                           __ptext30 1FA4  
                         __ptext22 2642                           __ptext14 2592  
                         __ptext31 24BE                           __ptext23 2680  
                         __ptext15 2558                           __ptext24 2602  
                         __ptext16 26BC                           __ptext33 1D7A  
                         __ptext25 2622                           __ptext17 25BE  
                         __ptext34 1640                           __ptext26 233C  
                         __ptext18 2670                           __ptext35 21C0  
                         __ptext27 2690                           __ptext19 265A  
                         __ptext28 2244                           __ptext29 2132  
                       rutina@dato 0029                      _encenderMotor 26AE  
                    __size_of_main 0176             ??_configuracionInicial 0060  
__size_of_configurarInterrupciones 0020          ?_configurarInterrupciones 0001  
         __end_of_definirVelocidad 2592                           _terminal 1AC2  
                         int$flags 0052                   ??_rutinaArranque 0060  
             __end_of_rutinaEscape 233C                         _INTCONbits 000FF2  
        __size_of_estadosVelocidad 004A                     _configurarTMR4 26CA  
                   _configurarTMR5 265A                     _configurarPWM7 2602  
                   _configurarTMR8 2670            __end_of_configurarRS232 265A  
                         intlevel2 0000                  _bandera_distancia 00D6  
                   ?_encenderMotor 0001                    i2___xxtofl@sign 0011  
         cambiarEstadoFuego@angulo 0069        __size_of_cambiarEstadoFuego 0066  
    __size_of_configurarRS232US100 0022                         _TIME_FUEGO 002A  
           __end_of_configurarTMR4 26D8             __end_of_configurarPWM7 2622  
           __end_of_configurarTMR5 2670             __end_of_configurarTMR8 2680  
                    ___fladd@signs 0093                fijarVelocidad@speed 009F  
                     ___fladd@aexp 0094                       ___fladd@bexp 0095  
                    terminal@F7135 00C1  
