

Microchip MPLAB XC8 Assembler V2.05 build -831301201 
                                                                                               Fri Jul 05 14:31:41 2019

Microchip MPLAB XC8 C Compiler v2.05 (Free license) build 20181220022703 Og1 
     1                           	processor	18F47J53
     2                           	fnconf	rparam,??,?,0
     3                           	opt	pw 120
     4                           	opt	flic
     5                           	psect	idataCOMRAM,global,class=CODE,delta=1,noexec
     6                           	psect	idataBANK0,global,class=CODE,delta=1,noexec
     7                           	psect	smallconst,global,reloc=2,class=SMALLCONST,delta=1,noexec
     8                           	psect	cinit,global,reloc=2,class=CODE,delta=1
     9                           	psect	bssCOMRAM,global,class=COMRAM,space=1,delta=1,noexec
    10                           	psect	dataCOMRAM,global,class=COMRAM,space=1,delta=1,noexec
    11                           	psect	bssBANK0,global,class=BANK0,space=1,delta=1,lowdata,noexec
    12                           	psect	dataBANK0,global,class=BANK0,space=1,delta=1,lowdata,noexec
    13                           	psect	cstackBANK0,global,class=BANK0,space=1,delta=1,noexec
    14                           	psect	cstackCOMRAM,global,class=COMRAM,space=1,delta=1,noexec
    15                           	psect	text0,global,reloc=2,class=CODE,delta=1
    16                           	psect	text1,global,reloc=2,class=CODE,delta=1
    17                           	psect	text2,global,reloc=2,class=CODE,delta=1
    18                           	psect	text3,global,reloc=2,class=CODE,delta=1
    19                           	psect	text4,global,reloc=2,class=CODE,delta=1
    20                           	psect	text5,global,reloc=2,class=CODE,delta=1,group=1
    21                           	psect	text6,global,reloc=2,class=CODE,delta=1,group=1
    22                           	psect	text7,global,reloc=2,class=CODE,delta=1,group=1
    23                           	psect	text8,global,reloc=2,class=CODE,delta=1,group=1
    24                           	psect	text9,global,reloc=2,class=CODE,delta=1
    25                           	psect	text10,global,reloc=2,class=CODE,delta=1
    26                           	psect	text11,global,reloc=2,class=CODE,delta=1
    27                           	psect	text12,global,reloc=2,class=CODE,delta=1
    28                           	psect	text13,global,reloc=2,class=CODE,delta=1
    29                           	psect	text14,global,reloc=2,class=CODE,delta=1
    30                           	psect	text15,global,reloc=2,class=CODE,delta=1
    31                           	psect	text16,global,reloc=2,class=CODE,delta=1
    32                           	psect	text17,global,reloc=2,class=CODE,delta=1
    33                           	psect	text18,global,reloc=2,class=CODE,delta=1
    34                           	psect	text19,global,reloc=2,class=CODE,delta=1
    35                           	psect	text20,global,reloc=2,class=CODE,delta=1
    36                           	psect	text21,global,reloc=2,class=CODE,delta=1
    37                           	psect	text22,global,reloc=2,class=CODE,delta=1
    38                           	psect	text23,global,reloc=2,class=CODE,delta=1
    39                           	psect	text24,global,reloc=2,class=CODE,delta=1
    40                           	psect	text25,global,reloc=2,class=CODE,delta=1
    41                           	psect	text26,global,reloc=2,class=CODE,delta=1
    42                           	psect	text27,global,reloc=2,class=CODE,delta=1
    43                           	psect	text28,global,reloc=2,class=CODE,delta=1
    44                           	psect	text29,global,reloc=2,class=CODE,delta=1,group=1
    45                           	psect	text30,global,reloc=2,class=CODE,delta=1
    46                           	psect	intcode,global,reloc=2,class=CODE,delta=1
    47                           	psect	text32,global,reloc=2,class=CODE,delta=1
    48                           	psect	text33,global,reloc=2,class=CODE,delta=1
    49                           	psect	text34,global,reloc=2,class=CODE,delta=1,group=1
    50                           	psect	intsave_regs,global,class=BIGRAM,space=1,delta=1,noexec
    51                           	psect	rparam,global,class=COMRAM,space=1,delta=1,noexec
    52                           	psect	temp,global,ovrld,common,class=COMRAM,space=1,delta=1
    53  0000                     
    54                           ; Version 2.05
    55                           ; Generated 20/12/2018 GMT
    56                           ; 
    57                           ; Copyright © 2018, Microchip Technology Inc. and its subsidiaries ("Microchip")
    58                           ; All rights reserved.
    59                           ; 
    60                           ; This software is developed by Microchip Technology Inc. and its subsidiaries ("Microch
      +                          ip").
    61                           ; 
    62                           ; Redistribution and use in source and binary forms, with or without modification, are
    63                           ; permitted provided that the following conditions are met:
    64                           ; 
    65                           ;     1. Redistributions of source code must retain the above copyright notice, this lis
      +                          t of
    66                           ;        conditions and the following disclaimer.
    67                           ; 
    68                           ;     2. Redistributions in binary form must reproduce the above copyright notice, this 
      +                          list
    69                           ;        of conditions and the following disclaimer in the documentation and/or other
    70                           ;        materials provided with the distribution.
    71                           ; 
    72                           ;     3. Microchip's name may not be used to endorse or promote products derived from th
      +                          is
    73                           ;        software without specific prior written permission.
    74                           ; 
    75                           ; THIS SOFTWARE IS PROVIDED BY MICROCHIP "AS IS" AND ANY EXPRESS OR IMPLIED WARRANTIES,
    76                           ; INCLUDING, BUT NOT LIMITED TO, THE IMPLIED WARRANTIES OF MERCHANTABILITY AND FITNESS F
      +                          OR
    77                           ; PURPOSE ARE DISCLAIMED.  IN NO EVENT SHALL MICROCHIP BE LIABLE FOR ANY DIRECT, INDIREC
      +                          T,
    78                           ; INCIDENTAL, SPECIAL, EXEMPLARY, OR CONSEQUENTIAL DAMAGES (INCLUDING BUT NOT LIMITED TO
    79                           ; PROCUREMENT OF SUBSTITUTE GOODS OR SERVICES; LOSS OF USE, DATA OR PROFITS; OR BUSINESS
    80                           ; INTERRUPTION) HOWSOEVER CAUSED AND ON ANY THEORY OF LIABILITY, WHETHER IN CONTRACT, ST
      +                          RICT
    81                           ; LIABILITY, OR TORT (INCLUDING NEGLIGENCE OR OTHERWISE) ARISING IN ANY WAY OUT OF THE U
      +                          SE OF
    82                           ; THIS SOFTWARE, EVEN IF ADVISED OF THE POSSIBILITY OF SUCH DAMAGE.
    83                           ; 
    84                           ; 
    85                           ; Code-generator required, PIC18F47J53 Definitions
    86                           ; 
    87                           ; SFR Addresses
    88  0000                     
    89                           	psect	idataCOMRAM
    90  0026EA                     __pidataCOMRAM:
    91                           	opt callstack 0
    92                           
    93                           ;initializer for _tiempo_anterior_1
    94  0026EA  0041               	dw	65
    95                           
    96                           ;initializer for _TIME_MAX
    97  0026EC  03A7               	dw	935
    98                           
    99                           ;initializer for _cicle_90
   100  0026EE  005A               	dw	90
   101                           
   102                           	psect	idataBANK0
   103  0026F0                     __pidataBANK0:
   104                           	opt callstack 0
   105                           
   106                           ;initializer for _maximun_constant
   107  0026F0  74BC               	dw	29884
   108  0026F2  3C13               	dw	15379
   109                           
   110                           ;initializer for _velocidad
   111  0026F4  005A               	dw	90
   112  0000                     _RPINR16	set	3831
   113  0000                     _RPOR23	set	3799
   114  0000                     _RPINR1	set	3809
   115  0000                     _PPSCON	set	3775
   116  0000                     _T5CONbits	set	3874
   117  0000                     _CCPR7L	set	3850
   118  0000                     _TMR8	set	3869
   119  0000                     _T8CONbits	set	3867
   120  0000                     _TMR5L	set	3875
   121  0000                     _TMR5H	set	3876
   122  0000                     _T5CON	set	3874
   123  0000                     _CCPTMRS1bits	set	3921
   124  0000                     _CCP7CONbits	set	3849
   125  0000                     _ANCON1	set	3913
   126  0000                     _ANCON0	set	3912
   127  0000                     _PORTAbits	set	3968
   128  0000                     _TXREG2	set	4009
   129  0000                     _RCREG1	set	4015
   130  0000                     _TXREG1	set	4014
   131  0000                     _T2CONbits	set	4042
   132  0000                     _SPBRG2	set	4011
   133  0000                     _BAUDCON2bits	set	3964
   134  0000                     _RCSTA2	set	3996
   135  0000                     _TXSTA2	set	4008
   136  0000                     _PIE3bits	set	4003
   137  0000                     _PIR3bits	set	4004
   138  0000                     _TMR4	set	3960
   139  0000                     _T4CONbits	set	3958
   140  0000                     _PIR5bits	set	3992
   141  0000                     _PIE5bits	set	3985
   142  0000                     _PORTDbits	set	3971
   143  0000                     _TRISDbits	set	3989
   144  0000                     _PIE1bits	set	3997
   145  0000                     _PIR1bits	set	3998
   146  0000                     _SPBRG1	set	4016
   147  0000                     _BAUDCON1bits	set	3966
   148  0000                     _RCSTA1	set	4012
   149  0000                     _TXSTA1	set	4013
   150  0000                     _TRISCbits	set	3988
   151  0000                     _TMR2	set	4044
   152  0000                     _PR2	set	4043
   153  0000                     _T2CON	set	4042
   154  0000                     _INTCON3bits	set	4080
   155  0000                     _INTCON2bits	set	4081
   156  0000                     _INTCONbits	set	4082
   157  0000                     _TRISBbits	set	3987
   158  0000                     _TRISAbits	set	3986
   159  0000                     _RCREG2	set	4010
   160                           
   161                           	psect	smallconst
   162  000F00                     __psmallconst:
   163                           	opt callstack 0
   164  000F00  00                 	db	0
   165  000F01                     STR_4:
   166  000F01  50                 	db	80	;'P'
   167  000F02  6F                 	db	111	;'o'
   168  000F03  72                 	db	114	;'r'
   169  000F04  20                 	db	32
   170  000F05  46                 	db	70	;'F'
   171  000F06  61                 	db	97	;'a'
   172  000F07  76                 	db	118	;'v'
   173  000F08  6F                 	db	111	;'o'
   174  000F09  72                 	db	114	;'r'
   175  000F0A  2C                 	db	44
   176  000F0B  20                 	db	32
   177  000F0C  63                 	db	99	;'c'
   178  000F0D  61                 	db	97	;'a'
   179  000F0E  6C                 	db	108	;'l'
   180  000F0F  69                 	db	105	;'i'
   181  000F10  62                 	db	98	;'b'
   182  000F11  72                 	db	114	;'r'
   183  000F12  65                 	db	101	;'e'
   184  000F13  20                 	db	32
   185  000F14  65                 	db	101	;'e'
   186  000F15  6C                 	db	108	;'l'
   187  000F16  20                 	db	32
   188  000F17  73                 	db	115	;'s'
   189  000F18  65                 	db	101	;'e'
   190  000F19  6E                 	db	110	;'n'
   191  000F1A  73                 	db	115	;'s'
   192  000F1B  6F                 	db	111	;'o'
   193  000F1C  72                 	db	114	;'r'
   194  000F1D  00                 	db	0
   195  000F1E                     STR_9:
   196  000F1E  4D                 	db	77	;'M'
   197  000F1F  4F                 	db	79	;'O'
   198  000F20  44                 	db	68	;'D'
   199  000F21  4F                 	db	79	;'O'
   200  000F22  20                 	db	32
   201  000F23  50                 	db	80	;'P'
   202  000F24  52                 	db	82	;'R'
   203  000F25  4F                 	db	79	;'O'
   204  000F26  47                 	db	71	;'G'
   205  000F27  52                 	db	82	;'R'
   206  000F28  41                 	db	65	;'A'
   207  000F29  4D                 	db	77	;'M'
   208  000F2A  41                 	db	65	;'A'
   209  000F2B  44                 	db	68	;'D'
   210  000F2C  4F                 	db	79	;'O'
   211  000F2D  52                 	db	82	;'R'
   212  000F2E  20                 	db	32
   213  000F2F  41                 	db	65	;'A'
   214  000F30  43                 	db	67	;'C'
   215  000F31  54                 	db	84	;'T'
   216  000F32  49                 	db	73	;'I'
   217  000F33  56                 	db	86	;'V'
   218  000F34  41                 	db	65	;'A'
   219  000F35  44                 	db	68	;'D'
   220  000F36  4F                 	db	79	;'O'
   221  000F37  21                 	db	33
   222  000F38  00                 	db	0
   223  000F39                     STR_2:
   224  000F39  4D                 	db	77	;'M'
   225  000F3A  69                 	db	105	;'i'
   226  000F3B  20                 	db	32
   227  000F3C  6E                 	db	110	;'n'
   228  000F3D  6F                 	db	111	;'o'
   229  000F3E  6D                 	db	109	;'m'
   230  000F3F  62                 	db	98	;'b'
   231  000F40  72                 	db	114	;'r'
   232  000F41  65                 	db	101	;'e'
   233  000F42  20                 	db	32
   234  000F43  65                 	db	101	;'e'
   235  000F44  73                 	db	115	;'s'
   236  000F45  20                 	db	32
   237  000F46  43                 	db	67	;'C'
   238  000F47  68                 	db	104	;'h'
   239  000F48  61                 	db	97	;'a'
   240  000F49  72                 	db	114	;'r'
   241  000F4A  6D                 	db	109	;'m'
   242  000F4B  61                 	db	97	;'a'
   243  000F4C  6E                 	db	110	;'n'
   244  000F4D  64                 	db	100	;'d'
   245  000F4E  65                 	db	101	;'e'
   246  000F4F  72                 	db	114	;'r'
   247  000F50  00                 	db	0
   248  000F51                     STR_6:
   249  000F51  45                 	db	69	;'E'
   250  000F52  53                 	db	83	;'S'
   251  000F53  43                 	db	67	;'C'
   252  000F54  41                 	db	65	;'A'
   253  000F55  50                 	db	80	;'P'
   254  000F56  41                 	db	65	;'A'
   255  000F57  4E                 	db	78	;'N'
   256  000F58  44                 	db	68	;'D'
   257  000F59  4F                 	db	79	;'O'
   258  000F5A  20                 	db	32
   259  000F5B  44                 	db	68	;'D'
   260  000F5C  45                 	db	69	;'E'
   261  000F5D  4C                 	db	76	;'L'
   262  000F5E  20                 	db	32
   263  000F5F  46                 	db	70	;'F'
   264  000F60  55                 	db	85	;'U'
   265  000F61  45                 	db	69	;'E'
   266  000F62  47                 	db	71	;'G'
   267  000F63  4F                 	db	79	;'O'
   268  000F64  2E                 	db	46
   269  000F65  2E                 	db	46
   270  000F66  2E                 	db	46
   271  000F67  00                 	db	0
   272  000F68                     STR_5:
   273  000F68  55                 	db	85	;'U'
   274  000F69  4C                 	db	76	;'L'
   275  000F6A  54                 	db	84	;'T'
   276  000F6B  52                 	db	82	;'R'
   277  000F6C  41                 	db	65	;'A'
   278  000F6D  53                 	db	83	;'S'
   279  000F6E  4F                 	db	79	;'O'
   280  000F6F  4E                 	db	78	;'N'
   281  000F70  49                 	db	73	;'I'
   282  000F71  44                 	db	68	;'D'
   283  000F72  4F                 	db	79	;'O'
   284  000F73  20                 	db	32
   285  000F74  41                 	db	65	;'A'
   286  000F75  43                 	db	67	;'C'
   287  000F76  54                 	db	84	;'T'
   288  000F77  49                 	db	73	;'I'
   289  000F78  56                 	db	86	;'V'
   290  000F79  41                 	db	65	;'A'
   291  000F7A  44                 	db	68	;'D'
   292  000F7B  4F                 	db	79	;'O'
   293  000F7C  21                 	db	33
   294  000F7D  00                 	db	0
   295  000F7E                     STR_8:
   296  000F7E  56                 	db	86	;'V'
   297  000F7F  65                 	db	101	;'e'
   298  000F80  68                 	db	104	;'h'
   299  000F81  69                 	db	105	;'i'
   300  000F82  63                 	db	99	;'c'
   301  000F83  75                 	db	117	;'u'
   302  000F84  6C                 	db	108	;'l'
   303  000F85  6F                 	db	111	;'o'
   304  000F86  20                 	db	32
   305  000F87  65                 	db	101	;'e'
   306  000F88  6E                 	db	110	;'n'
   307  000F89  20                 	db	32
   308  000F8A  72                 	db	114	;'r'
   309  000F8B  65                 	db	101	;'e'
   310  000F8C  76                 	db	118	;'v'
   311  000F8D  65                 	db	101	;'e'
   312  000F8E  72                 	db	114	;'r'
   313  000F8F  73                 	db	115	;'s'
   314  000F90  61                 	db	97	;'a'
   315  000F91  21                 	db	33
   316  000F92  00                 	db	0
   317  000F93                     STR_3:
   318  000F93  4E                 	db	78	;'N'
   319  000F94  6F                 	db	111	;'o'
   320  000F95  20                 	db	32
   321  000F96  6D                 	db	109	;'m'
   322  000F97  65                 	db	101	;'e'
   323  000F98  20                 	db	32
   324  000F99  64                 	db	100	;'d'
   325  000F9A  65                 	db	101	;'e'
   326  000F9B  73                 	db	115	;'s'
   327  000F9C  74                 	db	116	;'t'
   328  000F9D  72                 	db	114	;'r'
   329  000F9E  75                 	db	117	;'u'
   330  000F9F  79                 	db	121	;'y'
   331  000FA0  61                 	db	97	;'a'
   332  000FA1  73                 	db	115	;'s'
   333  000FA2  21                 	db	33
   334  000FA3  20                 	db	32
   335  000FA4  3A                 	db	58	;':'
   336  000FA5  27                 	db	39
   337  000FA6  28                 	db	40
   338  000FA7  00                 	db	0
   339  000FA8                     STR_7:
   340  000FA8  4D                 	db	77	;'M'
   341  000FA9  6F                 	db	111	;'o'
   342  000FAA  74                 	db	116	;'t'
   343  000FAB  6F                 	db	111	;'o'
   344  000FAC  72                 	db	114	;'r'
   345  000FAD  65                 	db	101	;'e'
   346  000FAE  73                 	db	115	;'s'
   347  000FAF  20                 	db	32
   348  000FB0  65                 	db	101	;'e'
   349  000FB1  6E                 	db	110	;'n'
   350  000FB2  63                 	db	99	;'c'
   351  000FB3  65                 	db	101	;'e'
   352  000FB4  6E                 	db	110	;'n'
   353  000FB5  64                 	db	100	;'d'
   354  000FB6  69                 	db	105	;'i'
   355  000FB7  64                 	db	100	;'d'
   356  000FB8  6F                 	db	111	;'o'
   357  000FB9  73                 	db	115	;'s'
   358  000FBA  21                 	db	33
   359  000FBB  00                 	db	0
   360  000FBC                     STR_1:
   361  000FBC  48                 	db	72	;'H'
   362  000FBD  4F                 	db	79	;'O'
   363  000FBE  4C                 	db	76	;'L'
   364  000FBF  41                 	db	65	;'A'
   365  000FC0  21                 	db	33
   366  000FC1  2E                 	db	46
   367  000FC2  2E                 	db	46
   368  000FC3  2E                 	db	46
   369  000FC4  00                 	db	0
   370  000FC5                     STR_10:
   371  000FC5  46                 	db	70	;'F'
   372  000FC6  55                 	db	85	;'U'
   373  000FC7  45                 	db	69	;'E'
   374  000FC8  47                 	db	71	;'G'
   375  000FC9  4F                 	db	79	;'O'
   376  000FCA  21                 	db	33
   377  000FCB  00                 	db	0
   378                           
   379                           ; #config settings
   380  000FCC  00                 	db	0	; dummy byte at the end
   381  0000                     
   382                           	psect	cinit
   383  002452                     __pcinit:
   384                           	opt callstack 0
   385  002452                     start_initialization:
   386                           	opt callstack 0
   387  002452                     __initialization:
   388                           	opt callstack 0
   389                           
   390                           ; Initialize objects allocated to BANK0 (6 bytes)
   391                           ; load TBLPTR registers with __pidataBANK0
   392  002452  0EF0               	movlw	low __pidataBANK0
   393  002454  6EF6               	movwf	tblptrl,c
   394  002456  0E26               	movlw	high __pidataBANK0
   395  002458  6EF7               	movwf	tblptrh,c
   396  00245A  0E00               	movlw	low (__pidataBANK0 shr (0+16))
   397  00245C  6EF8               	movwf	tblptru,c
   398  00245E  EE00  F0DB         	lfsr	0,__pdataBANK0
   399  002462  EE10 F006          	lfsr	1,6
   400  002466                     copy_data0:
   401  002466  0009               	tblrd		*+
   402  002468  CFF5 FFEE          	movff	tablat,postinc0
   403  00246C  50E5               	movf	postdec1,w,c
   404  00246E  50E1               	movf	fsr1l,w,c
   405  002470  E1FA               	bnz	copy_data0
   406                           
   407                           ; Initialize objects allocated to COMRAM (6 bytes)
   408                           ; load TBLPTR registers with __pidataCOMRAM
   409  002472  0EEA               	movlw	low __pidataCOMRAM
   410  002474  6EF6               	movwf	tblptrl,c
   411  002476  0E26               	movlw	high __pidataCOMRAM
   412  002478  6EF7               	movwf	tblptrh,c
   413  00247A  0E00               	movlw	low (__pidataCOMRAM shr (0+16))
   414  00247C  6EF8               	movwf	tblptru,c
   415  00247E  EE00  F04C         	lfsr	0,__pdataCOMRAM
   416  002482  EE10 F006          	lfsr	1,6
   417  002486                     copy_data1:
   418  002486  0009               	tblrd		*+
   419  002488  CFF5 FFEE          	movff	tablat,postinc0
   420  00248C  50E5               	movf	postdec1,w,c
   421  00248E  50E1               	movf	fsr1l,w,c
   422  002490  E1FA               	bnz	copy_data1
   423                           
   424                           ; Clear objects allocated to BANK0 (26 bytes)
   425  002492  EE00  F0C1         	lfsr	0,__pbssBANK0
   426  002496  0E1A               	movlw	26
   427  002498                     clear_0:
   428  002498  6AEE               	clrf	postinc0,c
   429  00249A  06E8               	decf	wreg,f,c
   430  00249C  E1FD               	bnz	clear_0
   431                           
   432                           ; Clear objects allocated to COMRAM (34 bytes)
   433  00249E  EE00  F02A         	lfsr	0,__pbssCOMRAM
   434  0024A2  0E22               	movlw	34
   435  0024A4                     clear_1:
   436  0024A4  6AEE               	clrf	postinc0,c
   437  0024A6  06E8               	decf	wreg,f,c
   438  0024A8  E1FD               	bnz	clear_1
   439  0024AA                     end_of_initialization:
   440                           	opt callstack 0
   441  0024AA                     __end_of__initialization:
   442                           	opt callstack 0
   443  0024AA  9052               	bcf	int$flags,0,c	;clear compiler interrupt flag (level 1)
   444  0024AC  9252               	bcf	int$flags,1,c	;clear compiler interrupt flag (level 2)
   445  0024AE  0100               	movlb	0
   446  0024B0  EF9E  F00C         	goto	_main	;jump to C main() function
   447                           
   448                           	psect	bssCOMRAM
   449  00002A                     __pbssCOMRAM:
   450                           	opt callstack 0
   451  00002A                     _TIME_FUEGO:
   452                           	opt callstack 0
   453  00002A                     	ds	4
   454  00002E                     _fuego_interrupcion:
   455                           	opt callstack 0
   456  00002E                     	ds	4
   457  000032                     _distancia:
   458                           	opt callstack 0
   459  000032                     	ds	4
   460  000036                     _contador_distancia:
   461                           	opt callstack 0
   462  000036                     	ds	2
   463  000038                     _contador_timer_5:
   464                           	opt callstack 0
   465  000038                     	ds	2
   466  00003A                     _parar:
   467                           	opt callstack 0
   468  00003A                     	ds	2
   469  00003C                     _estado:
   470                           	opt callstack 0
   471  00003C                     	ds	1
   472  00003D                     _estadoFuego:
   473                           	opt callstack 0
   474  00003D                     	ds	1
   475  00003E                     _contador_datos:
   476                           	opt callstack 0
   477  00003E                     	ds	1
   478  00003F                     _servo_dirreccion:
   479                           	opt callstack 0
   480  00003F                     	ds	1
   481  000040                     _indicador:
   482                           	opt callstack 0
   483  000040                     	ds	1
   484  000041                     _motor:
   485                           	opt callstack 0
   486  000041                     	ds	1
   487  000042                     _datos:
   488                           	opt callstack 0
   489  000042                     	ds	10
   490                           
   491                           	psect	dataCOMRAM
   492  00004C                     __pdataCOMRAM:
   493                           	opt callstack 0
   494  00004C                     _tiempo_anterior_1:
   495                           	opt callstack 0
   496  00004C                     	ds	2
   497  00004E                     _TIME_MAX:
   498                           	opt callstack 0
   499  00004E                     	ds	2
   500  000050                     _cicle_90:
   501                           	opt callstack 0
   502  000050                     	ds	2
   503                           
   504                           	psect	bssBANK0
   505  0000C1                     __pbssBANK0:
   506                           	opt callstack 0
   507  0000C1                     	ds	20
   508  0000D5                     _cambiar_estado_rutina_escape:
   509                           	opt callstack 0
   510  0000D5                     	ds	1
   511  0000D6                     _bandera_distancia:
   512                           	opt callstack 0
   513  0000D6                     	ds	1
   514  0000D7                     _obstaculo:
   515                           	opt callstack 0
   516  0000D7                     	ds	1
   517  0000D8                     _bandera_servo:
   518                           	opt callstack 0
   519  0000D8                     	ds	1
   520  0000D9                     _bandera:
   521                           	opt callstack 0
   522  0000D9                     	ds	1
   523  0000DA                     _bandera_fuego:
   524                           	opt callstack 0
   525  0000DA                     	ds	1
   526                           
   527                           	psect	dataBANK0
   528  0000DB                     __pdataBANK0:
   529                           	opt callstack 0
   530  0000DB                     _maximun_constant:
   531                           	opt callstack 0
   532  0000DB                     	ds	4
   533  0000DF                     _velocidad:
   534                           	opt callstack 0
   535  0000DF                     	ds	2
   536                           
   537                           	psect	cstackBANK0
   538  000060                     __pcstackBANK0:
   539                           	opt callstack 0
   540  000060                     ??_definirVelocidad:
   541  000060                     ??_rutinaArranque:
   542  000060                     ?_length:
   543                           	opt callstack 0
   544  000060                     ?_estadoDirreccion:
   545                           	opt callstack 0
   546  000060                     ?___xxtofl:
   547                           	opt callstack 0
   548  000060                     length@text:
   549                           	opt callstack 0
   550  000060                     dirreccion@degree:
   551                           	opt callstack 0
   552  000060                     ___flge@ff1:
   553                           	opt callstack 0
   554  000060                     ___xxtofl@val:
   555                           	opt callstack 0
   556                           
   557                           ; 4 bytes @ 0x0
   558  000060                     	ds	2
   559  000062                     ??_length:
   560  000062                     ??_estadoDirreccion:
   561  000062                     ??_dirreccion:
   562  000062                     
   563                           ; 1 bytes @ 0x2
   564  000062                     	ds	2
   565  000064                     ??___xxtofl:
   566  000064                     dirreccion@tiempo_1:
   567                           	opt callstack 0
   568  000064                     length@longitud:
   569                           	opt callstack 0
   570  000064                     estadoDirreccion@angulo:
   571                           	opt callstack 0
   572  000064                     ___flge@ff2:
   573                           	opt callstack 0
   574                           
   575                           ; 4 bytes @ 0x4
   576  000064                     	ds	2
   577  000066                     length@dato:
   578                           	opt callstack 0
   579  000066                     estadoDirreccion@valor:
   580                           	opt callstack 0
   581                           
   582                           ; 1 bytes @ 0x6
   583  000066                     	ds	1
   584  000067                     ??_cambiarEstadoFuego:
   585  000067                     length@i:
   586                           	opt callstack 0
   587                           
   588                           ; 1 bytes @ 0x7
   589  000067                     	ds	1
   590  000068                     ??___flge:
   591  000068                     ___xxtofl@sign:
   592                           	opt callstack 0
   593  000068                     enviarRS232@valores:
   594                           	opt callstack 0
   595                           
   596                           ; 2 bytes @ 0x8
   597  000068                     	ds	1
   598  000069                     ___xxtofl@exp:
   599                           	opt callstack 0
   600  000069                     cambiarEstadoFuego@angulo:
   601                           	opt callstack 0
   602                           
   603                           ; 2 bytes @ 0x9
   604  000069                     	ds	1
   605  00006A                     ??_enviarRS232:
   606  00006A                     ___xxtofl@arg:
   607                           	opt callstack 0
   608                           
   609                           ; 4 bytes @ 0xA
   610  00006A                     	ds	2
   611  00006C                     enviarRS232@longitud_texto:
   612                           	opt callstack 0
   613                           
   614                           ; 2 bytes @ 0xC
   615  00006C                     	ds	2
   616  00006E                     ?___flmul:
   617                           	opt callstack 0
   618  00006E                     enviarRS232@i:
   619                           	opt callstack 0
   620  00006E                     ___flmul@b:
   621                           	opt callstack 0
   622                           
   623                           ; 4 bytes @ 0xE
   624  00006E                     	ds	4
   625  000072                     ___flmul@a:
   626                           	opt callstack 0
   627                           
   628                           ; 4 bytes @ 0x12
   629  000072                     	ds	4
   630  000076                     ??___flmul:
   631                           
   632                           ; 1 bytes @ 0x16
   633  000076                     	ds	4
   634  00007A                     ___flmul@sign:
   635                           	opt callstack 0
   636                           
   637                           ; 1 bytes @ 0x1A
   638  00007A                     	ds	1
   639  00007B                     ___flmul@aexp:
   640                           	opt callstack 0
   641                           
   642                           ; 1 bytes @ 0x1B
   643  00007B                     	ds	1
   644  00007C                     ___flmul@grs:
   645                           	opt callstack 0
   646                           
   647                           ; 4 bytes @ 0x1C
   648  00007C                     	ds	4
   649  000080                     ___flmul@bexp:
   650                           	opt callstack 0
   651                           
   652                           ; 1 bytes @ 0x20
   653  000080                     	ds	1
   654  000081                     ___flmul@prod:
   655                           	opt callstack 0
   656                           
   657                           ; 4 bytes @ 0x21
   658  000081                     	ds	4
   659  000085                     ___flmul@temp:
   660                           	opt callstack 0
   661                           
   662                           ; 2 bytes @ 0x25
   663  000085                     	ds	2
   664  000087                     ?___fladd:
   665                           	opt callstack 0
   666  000087                     ?___fltol:
   667                           	opt callstack 0
   668  000087                     ___fltol@f1:
   669                           	opt callstack 0
   670  000087                     ___fladd@b:
   671                           	opt callstack 0
   672                           
   673                           ; 4 bytes @ 0x27
   674  000087                     	ds	4
   675  00008B                     ??___fltol:
   676  00008B                     ___fladd@a:
   677                           	opt callstack 0
   678                           
   679                           ; 4 bytes @ 0x2B
   680  00008B                     	ds	4
   681  00008F                     ??___fladd:
   682  00008F                     ___fltol@sign1:
   683                           	opt callstack 0
   684                           
   685                           ; 1 bytes @ 0x2F
   686  00008F                     	ds	1
   687  000090                     ___fltol@exp1:
   688                           	opt callstack 0
   689                           
   690                           ; 1 bytes @ 0x30
   691  000090                     	ds	3
   692  000093                     ___fladd@signs:
   693                           	opt callstack 0
   694                           
   695                           ; 1 bytes @ 0x33
   696  000093                     	ds	1
   697  000094                     ___fladd@aexp:
   698                           	opt callstack 0
   699                           
   700                           ; 1 bytes @ 0x34
   701  000094                     	ds	1
   702  000095                     ___fladd@bexp:
   703                           	opt callstack 0
   704                           
   705                           ; 1 bytes @ 0x35
   706  000095                     	ds	1
   707  000096                     ___fladd@grs:
   708                           	opt callstack 0
   709                           
   710                           ; 1 bytes @ 0x36
   711  000096                     	ds	1
   712  000097                     fijarVelocidad@DC:
   713                           	opt callstack 0
   714                           
   715                           ; 4 bytes @ 0x37
   716  000097                     	ds	4
   717  00009B                     _fijarVelocidad$1915:
   718                           	opt callstack 0
   719                           
   720                           ; 4 bytes @ 0x3B
   721  00009B                     	ds	4
   722  00009F                     fijarVelocidad@speed:
   723                           	opt callstack 0
   724                           
   725                           ; 1 bytes @ 0x3F
   726  00009F                     	ds	1
   727  0000A0                     ??_rutinaEscape:
   728  0000A0                     terminal@comand:
   729                           	opt callstack 0
   730                           
   731                           ; 2 bytes @ 0x40
   732  0000A0                     	ds	2
   733  0000A2                     ??_terminal:
   734  0000A2                     rutinaEscape@type:
   735                           	opt callstack 0
   736                           
   737                           ; 1 bytes @ 0x42
   738  0000A2                     	ds	5
   739  0000A7                     terminal@texto:
   740                           	opt callstack 0
   741                           
   742                           ; 20 bytes @ 0x47
   743  0000A7                     	ds	20
   744  0000BB                     terminal@medicion:
   745                           	opt callstack 0
   746                           
   747                           ; 2 bytes @ 0x5B
   748  0000BB                     	ds	2
   749  0000BD                     terminal@degree:
   750                           	opt callstack 0
   751                           
   752                           ; 2 bytes @ 0x5D
   753  0000BD                     	ds	2
   754  0000BF                     ??_main:
   755                           
   756                           ; 1 bytes @ 0x5F
   757  0000BF                     	ds	2
   758                           
   759                           	psect	cstackCOMRAM
   760  000001                     __pcstackCOMRAM:
   761                           	opt callstack 0
   762  000001                     ?___awdiv:
   763                           	opt callstack 0
   764  000001                     ___awdiv@dividend:
   765                           	opt callstack 0
   766                           
   767                           ; 2 bytes @ 0x0
   768  000001                     	ds	2
   769  000003                     ___awdiv@divisor:
   770                           	opt callstack 0
   771                           
   772                           ; 2 bytes @ 0x2
   773  000003                     	ds	2
   774  000005                     ___awdiv@counter:
   775                           	opt callstack 0
   776                           
   777                           ; 1 bytes @ 0x4
   778  000005                     	ds	1
   779  000006                     ___awdiv@sign:
   780                           	opt callstack 0
   781                           
   782                           ; 1 bytes @ 0x5
   783  000006                     	ds	1
   784  000007                     ___awdiv@quotient:
   785                           	opt callstack 0
   786                           
   787                           ; 2 bytes @ 0x6
   788  000007                     	ds	2
   789  000009                     ?i2___xxtofl:
   790                           	opt callstack 0
   791  000009                     i2___xxtofl@val:
   792                           	opt callstack 0
   793                           
   794                           ; 4 bytes @ 0x8
   795  000009                     	ds	4
   796  00000D                     ??i2___xxtofl:
   797                           
   798                           ; 1 bytes @ 0xC
   799  00000D                     	ds	4
   800  000011                     i2___xxtofl@sign:
   801                           	opt callstack 0
   802                           
   803                           ; 1 bytes @ 0x10
   804  000011                     	ds	1
   805  000012                     i2___xxtofl@exp:
   806                           	opt callstack 0
   807                           
   808                           ; 1 bytes @ 0x11
   809  000012                     	ds	1
   810  000013                     i2___xxtofl@arg:
   811                           	opt callstack 0
   812                           
   813                           ; 4 bytes @ 0x12
   814  000013                     	ds	4
   815  000017                     ?i2___fladd:
   816                           	opt callstack 0
   817  000017                     i2___fladd@b:
   818                           	opt callstack 0
   819                           
   820                           ; 4 bytes @ 0x16
   821  000017                     	ds	4
   822  00001B                     i2___fladd@a:
   823                           	opt callstack 0
   824                           
   825                           ; 4 bytes @ 0x1A
   826  00001B                     	ds	4
   827  00001F                     ??i2___fladd:
   828                           
   829                           ; 1 bytes @ 0x1E
   830  00001F                     	ds	4
   831  000023                     i2___fladd@signs:
   832                           	opt callstack 0
   833                           
   834                           ; 1 bytes @ 0x22
   835  000023                     	ds	1
   836  000024                     i2___fladd@aexp:
   837                           	opt callstack 0
   838                           
   839                           ; 1 bytes @ 0x23
   840  000024                     	ds	1
   841  000025                     i2___fladd@bexp:
   842                           	opt callstack 0
   843                           
   844                           ; 1 bytes @ 0x24
   845  000025                     	ds	1
   846  000026                     i2___fladd@grs:
   847                           	opt callstack 0
   848                           
   849                           ; 1 bytes @ 0x25
   850  000026                     	ds	1
   851  000027                     ??_rutina:
   852                           
   853                           ; 1 bytes @ 0x26
   854  000027                     	ds	2
   855  000029                     rutina@dato:
   856                           	opt callstack 0
   857                           
   858                           ; 1 bytes @ 0x28
   859  000029                     	ds	1
   860                           
   861 ;;
   862 ;;Main: autosize = 0, tempsize = 2, incstack = 0, save=0
   863 ;;
   864 ;; *************** function _main *****************
   865 ;; Defined at:
   866 ;;		line 125 in file "auto.c"
   867 ;; Parameters:    Size  Location     Type
   868 ;;		None
   869 ;; Auto vars:     Size  Location     Type
   870 ;;		None
   871 ;; Return value:  Size  Location     Type
   872 ;;                  1    wreg      void 
   873 ;; Registers used:
   874 ;;		wreg, fsr2l, fsr2h, status,2, status,0, tblptrl, tblptrh, tblptru, prodl, prodh, cstack
   875 ;; Tracked objects:
   876 ;;		On entry : 0/0
   877 ;;		On exit  : 0/0
   878 ;;		Unchanged: 0/0
   879 ;; Data sizes:     COMRAM   BANK0   BANK1   BANK2   BANK3   BANK4   BANK5   BANK6   BANK7   BANK8   BANK9  BANK10  BANK1
      +1  BANK12  BANK13  BANK14
   880 ;;      Params:         0       0       0       0       0       0       0       0       0       0       0       0       
      +0       0       0       0
   881 ;;      Locals:         0       0       0       0       0       0       0       0       0       0       0       0       
      +0       0       0       0
   882 ;;      Temps:          0       2       0       0       0       0       0       0       0       0       0       0       
      +0       0       0       0
   883 ;;      Totals:         0       2       0       0       0       0       0       0       0       0       0       0       
      +0       0       0       0
   884 ;;Total ram usage:        2 bytes
   885 ;; Hardware stack levels required when called:    5
   886 ;; This function calls:
   887 ;;		_PWMServo
   888 ;;		___flge
   889 ;;		_cambiarEstadoFuego
   890 ;;		_configuracionInicial
   891 ;;		_enviarRS232
   892 ;;		_frenarMotor
   893 ;;		_rutinaEscape
   894 ;;		_terminal
   895 ;; This function is called by:
   896 ;;		Startup code after reset
   897 ;; This function uses a non-reentrant model
   898 ;;
   899                           
   900                           	psect	text0
   901  00193C                     __ptext0:
   902                           	opt callstack 0
   903  00193C                     _main:
   904                           	opt callstack 26
   905                           
   906                           ;auto.c: 126:     configuracionInicial();
   907                           
   908                           ;incstack = 0
   909  00193C  ECE0  F012         	call	_configuracionInicial	;wreg free
   910                           
   911                           ;auto.c: 127:     enviarRS232("HOLA!...");
   912  001940  0EBC               	movlw	low STR_1
   913  001942  0100               	movlb	0	; () banked
   914  001944  6F68               	movwf	enviarRS232@valores& (0+255),b
   915  001946  0E0F               	movlw	high STR_1
   916  001948  6F69               	movwf	(enviarRS232@valores+1)& (0+255),b
   917  00194A  ECF7  F011         	call	_enviarRS232	;wreg free
   918                           
   919                           ;auto.c: 128:     _delay((unsigned long)((1800)*(48000000/4000.0)));
   920  00194E  0E6E               	movlw	110
   921  001950  0100               	movlb	0	; () banked
   922  001952  6FC0               	movwf	(??_main+1)& (0+255),b
   923  001954  0E94               	movlw	148
   924  001956  6FBF               	movwf	??_main& (0+255),b
   925  001958  0EA7               	movlw	167
   926  00195A                     u3987:
   927  00195A  2EE8               	decfsz	wreg,f,c
   928  00195C  D7FE               	bra	u3987
   929  00195E  2FBF               	decfsz	??_main& (0+255),f,b
   930  001960  D7FC               	bra	u3987
   931  001962  2FC0               	decfsz	(??_main+1)& (0+255),f,b
   932  001964  D7FA               	bra	u3987
   933  001966  D000               	nop2	
   934                           
   935                           ;auto.c: 129:     enviarRS232("Mi nombre es Charmander");
   936  001968  0E39               	movlw	low STR_2
   937  00196A  0100               	movlb	0	; () banked
   938  00196C  6F68               	movwf	enviarRS232@valores& (0+255),b
   939  00196E  0E0F               	movlw	high STR_2
   940  001970  6F69               	movwf	(enviarRS232@valores+1)& (0+255),b
   941  001972  ECF7  F011         	call	_enviarRS232	;wreg free
   942                           
   943                           ;auto.c: 130:     _delay((unsigned long)((1800)*(48000000/4000.0)));
   944  001976  0E6E               	movlw	110
   945  001978  0100               	movlb	0	; () banked
   946  00197A  6FC0               	movwf	(??_main+1)& (0+255),b
   947  00197C  0E94               	movlw	148
   948  00197E  6FBF               	movwf	??_main& (0+255),b
   949  001980  0EA7               	movlw	167
   950  001982                     u3997:
   951  001982  2EE8               	decfsz	wreg,f,c
   952  001984  D7FE               	bra	u3997
   953  001986  2FBF               	decfsz	??_main& (0+255),f,b
   954  001988  D7FC               	bra	u3997
   955  00198A  2FC0               	decfsz	(??_main+1)& (0+255),f,b
   956  00198C  D7FA               	bra	u3997
   957  00198E  D000               	nop2	
   958                           
   959                           ;auto.c: 131:     enviarRS232("No me destruyas! :'(");
   960  001990  0E93               	movlw	low STR_3
   961  001992  0100               	movlb	0	; () banked
   962  001994  6F68               	movwf	enviarRS232@valores& (0+255),b
   963  001996  0E0F               	movlw	high STR_3
   964  001998  6F69               	movwf	(enviarRS232@valores+1)& (0+255),b
   965  00199A  ECF7  F011         	call	_enviarRS232	;wreg free
   966                           
   967                           ;auto.c: 132:     _delay((unsigned long)((1500)*(48000000/4000.0)));
   968  00199E  0E5C               	movlw	92
   969  0019A0  0100               	movlb	0	; () banked
   970  0019A2  6FC0               	movwf	(??_main+1)& (0+255),b
   971  0019A4  0E51               	movlw	81
   972  0019A6  6FBF               	movwf	??_main& (0+255),b
   973  0019A8  0E60               	movlw	96
   974  0019AA                     u4007:
   975  0019AA  2EE8               	decfsz	wreg,f,c
   976  0019AC  D7FE               	bra	u4007
   977  0019AE  2FBF               	decfsz	??_main& (0+255),f,b
   978  0019B0  D7FC               	bra	u4007
   979  0019B2  2FC0               	decfsz	(??_main+1)& (0+255),f,b
   980  0019B4  D7FA               	bra	u4007
   981  0019B6  F000               	nop	
   982                           
   983                           ;auto.c: 133:     enviarRS232("Por Favor, calibre el sensor");
   984  0019B8  0E01               	movlw	low STR_4
   985  0019BA  0100               	movlb	0	; () banked
   986  0019BC  6F68               	movwf	enviarRS232@valores& (0+255),b
   987  0019BE  0E0F               	movlw	high STR_4
   988  0019C0  6F69               	movwf	(enviarRS232@valores+1)& (0+255),b
   989  0019C2  ECF7  F011         	call	_enviarRS232	;wreg free
   990                           
   991                           ;auto.c: 134:     T4CONbits.TMR4ON = 1;
   992  0019C6  8476               	bsf	3958,2,c	;volatile
   993  0019C8                     l4261:
   994                           
   995                           ;auto.c: 136:         if(estado == 'w'){
   996  0019C8  0E77               	movlw	119
   997  0019CA  183C               	xorwf	_estado,w,c
   998  0019CC  A4D8               	btfss	status,2,c
   999  0019CE  D050               	goto	l4289
  1000                           
  1001                           ;auto.c: 137:             if(bandera_distancia == 1){
  1002  0019D0  0100               	movlb	0	; () banked
  1003  0019D2  05D6               	decf	_bandera_distancia& (0+255),w,b
  1004  0019D4  A4D8               	btfss	status,2,c
  1005  0019D6  D021               	goto	l4273
  1006                           
  1007                           ; BSR set to: 0
  1008                           ;auto.c: 138:                 bandera_distancia = 0;
  1009  0019D8  0E00               	movlw	0
  1010  0019DA  6FD6               	movwf	_bandera_distancia& (0+255),b
  1011                           
  1012                           ; BSR set to: 0
  1013                           ;auto.c: 139:                 if((distancia <= 22)){
  1014  0019DC  0E00               	movlw	0
  1015  0019DE  6F60               	movwf	___flge@ff1& (0+255),b
  1016  0019E0  0E00               	movlw	0
  1017  0019E2  6F61               	movwf	(___flge@ff1+1)& (0+255),b
  1018  0019E4  0EB0               	movlw	176
  1019  0019E6  6F62               	movwf	(___flge@ff1+2)& (0+255),b
  1020  0019E8  0E41               	movlw	65
  1021  0019EA  6F63               	movwf	(___flge@ff1+3)& (0+255),b
  1022  0019EC  C032  F064         	movff	_distancia,___flge@ff2
  1023  0019F0  C033  F065         	movff	_distancia+1,___flge@ff2+1
  1024  0019F4  C034  F066         	movff	_distancia+2,___flge@ff2+2
  1025  0019F8  C035  F067         	movff	_distancia+3,___flge@ff2+3
  1026  0019FC  ECC7  F00F         	call	___flge	;wreg free
  1027  001A00  0100               	movlb	0	; () banked
  1028  001A02  A0D8               	btfss	status,0,c
  1029  001A04  D00A               	goto	l4273
  1030                           
  1031                           ; BSR set to: 0
  1032                           ;auto.c: 140:                     rutinaEscape(3);
  1033  001A06  0E03               	movlw	3
  1034  001A08  EC8E  F010         	call	_rutinaEscape
  1035                           
  1036                           ;auto.c: 141:                     enviarRS232("ULTRASONIDO ACTIVADO!");
  1037  001A0C  0E68               	movlw	low STR_5
  1038  001A0E  0100               	movlb	0	; () banked
  1039  001A10  6F68               	movwf	enviarRS232@valores& (0+255),b
  1040  001A12  0E0F               	movlw	high STR_5
  1041  001A14  6F69               	movwf	(enviarRS232@valores+1)& (0+255),b
  1042  001A16  ECF7  F011         	call	_enviarRS232	;wreg free
  1043  001A1A                     l4273:
  1044                           
  1045                           ;auto.c: 144:             if(bandera_fuego == 1){
  1046  001A1A  0100               	movlb	0	; () banked
  1047  001A1C  05DA               	decf	_bandera_fuego& (0+255),w,b
  1048  001A1E  A4D8               	btfss	status,2,c
  1049  001A20  D014               	goto	l4281
  1050                           
  1051                           ; BSR set to: 0
  1052                           ;auto.c: 145:                 bandera_fuego = 0;
  1053  001A22  0E00               	movlw	0
  1054  001A24  6FDA               	movwf	_bandera_fuego& (0+255),b
  1055                           
  1056                           ;auto.c: 146:                 fuego_interrupcion = 0;
  1057  001A26  0E00               	movlw	0
  1058  001A28  6E2E               	movwf	_fuego_interrupcion,c
  1059  001A2A  0E00               	movlw	0
  1060  001A2C  6E2F               	movwf	_fuego_interrupcion+1,c
  1061  001A2E  0E00               	movlw	0
  1062  001A30  6E30               	movwf	_fuego_interrupcion+2,c
  1063  001A32  0E00               	movlw	0
  1064  001A34  6E31               	movwf	_fuego_interrupcion+3,c
  1065                           
  1066                           ; BSR set to: 0
  1067                           ;auto.c: 147:                 rutinaEscape(1);
  1068  001A36  0E01               	movlw	1
  1069  001A38  EC8E  F010         	call	_rutinaEscape
  1070                           
  1071                           ;auto.c: 148:                 enviarRS232("ESCAPANDO DEL FUEGO...");
  1072  001A3C  0E51               	movlw	low STR_6
  1073  001A3E  0100               	movlb	0	; () banked
  1074  001A40  6F68               	movwf	enviarRS232@valores& (0+255),b
  1075  001A42  0E0F               	movlw	high STR_6
  1076  001A44  6F69               	movwf	(enviarRS232@valores+1)& (0+255),b
  1077  001A46  ECF7  F011         	call	_enviarRS232	;wreg free
  1078  001A4A                     l4281:
  1079                           
  1080                           ;auto.c: 150:             if(cambiar_estado_rutina_escape == 1){
  1081  001A4A  0100               	movlb	0	; () banked
  1082  001A4C  05D5               	decf	_cambiar_estado_rutina_escape& (0+255),w,b
  1083  001A4E  A4D8               	btfss	status,2,c
  1084  001A50  D00F               	goto	l4289
  1085                           
  1086                           ; BSR set to: 0
  1087                           ;auto.c: 151:                 T8CONbits.TMR8ON = 0;
  1088  001A52  010F               	movlb	15	; () banked
  1089  001A54  951B               	bcf	27,2,b	;volatile
  1090                           
  1091                           ; BSR set to: 15
  1092                           ;auto.c: 152:                 fuego_interrupcion = 0;
  1093  001A56  0E00               	movlw	0
  1094  001A58  6E2E               	movwf	_fuego_interrupcion,c
  1095  001A5A  0E00               	movlw	0
  1096  001A5C  6E2F               	movwf	_fuego_interrupcion+1,c
  1097  001A5E  0E00               	movlw	0
  1098  001A60  6E30               	movwf	_fuego_interrupcion+2,c
  1099  001A62  0E00               	movlw	0
  1100  001A64  6E31               	movwf	_fuego_interrupcion+3,c
  1101                           
  1102                           ;auto.c: 153:                 cambiar_estado_rutina_escape = 0;
  1103  001A66  0E00               	movlw	0
  1104  001A68  0100               	movlb	0	; () banked
  1105  001A6A  6FD5               	movwf	_cambiar_estado_rutina_escape& (0+255),b
  1106                           
  1107                           ; BSR set to: 0
  1108                           ;auto.c: 154:                 cambiarEstadoFuego();
  1109  001A6C  ECDE  F010         	call	_cambiarEstadoFuego	;wreg free
  1110  001A70                     l4289:
  1111                           
  1112                           ;auto.c: 157:         if(estado == 's'){
  1113  001A70  0E73               	movlw	115
  1114  001A72  183C               	xorwf	_estado,w,c
  1115  001A74  A4D8               	btfss	status,2,c
  1116  001A76  D01E               	goto	l4305
  1117                           
  1118                           ;auto.c: 158:             if(obstaculo == 1){
  1119  001A78  0100               	movlb	0	; () banked
  1120  001A7A  05D7               	decf	_obstaculo& (0+255),w,b
  1121  001A7C  A4D8               	btfss	status,2,c
  1122  001A7E  D005               	goto	l4297
  1123                           
  1124                           ; BSR set to: 0
  1125                           ;auto.c: 159:                 obstaculo = 0;
  1126  001A80  0E00               	movlw	0
  1127  001A82  6FD7               	movwf	_obstaculo& (0+255),b
  1128                           
  1129                           ; BSR set to: 0
  1130                           ;auto.c: 160:                 rutinaEscape(2);
  1131  001A84  0E02               	movlw	2
  1132  001A86  EC8E  F010         	call	_rutinaEscape
  1133  001A8A                     l4297:
  1134                           
  1135                           ;auto.c: 162:             if(cambiar_estado_rutina_escape == 1){
  1136  001A8A  0100               	movlb	0	; () banked
  1137  001A8C  05D5               	decf	_cambiar_estado_rutina_escape& (0+255),w,b
  1138  001A8E  A4D8               	btfss	status,2,c
  1139  001A90  D011               	goto	l4305
  1140                           
  1141                           ; BSR set to: 0
  1142                           ;auto.c: 163:                 T8CONbits.TMR8ON = 0;
  1143  001A92  010F               	movlb	15	; () banked
  1144  001A94  951B               	bcf	27,2,b	;volatile
  1145                           
  1146                           ; BSR set to: 15
  1147                           ;auto.c: 164:                 fuego_interrupcion = 0;
  1148  001A96  0E00               	movlw	0
  1149  001A98  6E2E               	movwf	_fuego_interrupcion,c
  1150  001A9A  0E00               	movlw	0
  1151  001A9C  6E2F               	movwf	_fuego_interrupcion+1,c
  1152  001A9E  0E00               	movlw	0
  1153  001AA0  6E30               	movwf	_fuego_interrupcion+2,c
  1154  001AA2  0E00               	movlw	0
  1155  001AA4  6E31               	movwf	_fuego_interrupcion+3,c
  1156                           
  1157                           ;auto.c: 165:                 cambiar_estado_rutina_escape = 0;
  1158  001AA6  0E00               	movlw	0
  1159  001AA8  0100               	movlb	0	; () banked
  1160  001AAA  6FD5               	movwf	_cambiar_estado_rutina_escape& (0+255),b
  1161                           
  1162                           ;auto.c: 166:                 estado = 'c';
  1163  001AAC  0E63               	movlw	99
  1164  001AAE  6E3C               	movwf	_estado,c
  1165                           
  1166                           ; BSR set to: 0
  1167                           ;auto.c: 167:                 frenarMotor();
  1168  001AB0  EC52  F013         	call	_frenarMotor	;wreg free
  1169  001AB4                     l4305:
  1170                           
  1171                           ;auto.c: 170:         if(bandera == 1){
  1172  001AB4  0100               	movlb	0	; () banked
  1173  001AB6  05D9               	decf	_bandera& (0+255),w,b
  1174  001AB8  A4D8               	btfss	status,2,c
  1175  001ABA  D008               	goto	l4311
  1176                           
  1177                           ; BSR set to: 0
  1178                           ;auto.c: 171:             bandera = 0;
  1179  001ABC  0E00               	movlw	0
  1180  001ABE  6FD9               	movwf	_bandera& (0+255),b
  1181                           
  1182                           ; BSR set to: 0
  1183                           ;auto.c: 172:             terminal(datos);
  1184  001AC0  0E42               	movlw	low _datos
  1185  001AC2  6FA0               	movwf	terminal@comand& (0+255),b
  1186  001AC4  0E00               	movlw	high _datos
  1187  001AC6  6FA1               	movwf	(terminal@comand+1)& (0+255),b
  1188  001AC8  EC11  F00E         	call	_terminal	;wreg free
  1189  001ACC                     l4311:
  1190                           
  1191                           ;auto.c: 174:         if(bandera_servo == 1){
  1192  001ACC  0100               	movlb	0	; () banked
  1193  001ACE  05D8               	decf	_bandera_servo& (0+255),w,b
  1194  001AD0  A4D8               	btfss	status,2,c
  1195  001AD2  D77A               	goto	l4261
  1196                           
  1197                           ; BSR set to: 0
  1198                           ;auto.c: 175:             bandera_servo = 0;
  1199  001AD4  0E00               	movlw	0
  1200  001AD6  6FD8               	movwf	_bandera_servo& (0+255),b
  1201                           
  1202                           ; BSR set to: 0
  1203                           ;auto.c: 176:             PWMServo();
  1204  001AD8  EC85  F012         	call	_PWMServo	;wreg free
  1205  001ADC  D775               	goto	l4261
  1206  001ADE                     __end_of_main:
  1207                           	opt callstack 0
  1208                           
  1209 ;; *************** function _terminal *****************
  1210 ;; Defined at:
  1211 ;;		line 194 in file "auto.c"
  1212 ;; Parameters:    Size  Location     Type
  1213 ;;  comand          2   64[BANK0 ] PTR unsigned char 
  1214 ;;		 -> datos(10), 
  1215 ;; Auto vars:     Size  Location     Type
  1216 ;;  texto          20   71[BANK0 ] unsigned char [20]
  1217 ;;  degree          2   93[BANK0 ] unsigned int 
  1218 ;;  medicion        2   91[BANK0 ] unsigned int 
  1219 ;; Return value:  Size  Location     Type
  1220 ;;                  1    wreg      void 
  1221 ;; Registers used:
  1222 ;;		wreg, fsr2l, fsr2h, status,2, status,0, tblptrl, tblptrh, tblptru, prodl, prodh, cstack
  1223 ;; Tracked objects:
  1224 ;;		On entry : 0/0
  1225 ;;		On exit  : 0/0
  1226 ;;		Unchanged: 0/0
  1227 ;; Data sizes:     COMRAM   BANK0   BANK1   BANK2   BANK3   BANK4   BANK5   BANK6   BANK7   BANK8   BANK9  BANK10  BANK1
      +1  BANK12  BANK13  BANK14
  1228 ;;      Params:         0       2       0       0       0       0       0       0       0       0       0       0       
      +0       0       0       0
  1229 ;;      Locals:         0      24       0       0       0       0       0       0       0       0       0       0       
      +0       0       0       0
  1230 ;;      Temps:          0       5       0       0       0       0       0       0       0       0       0       0       
      +0       0       0       0
  1231 ;;      Totals:         0      31       0       0       0       0       0       0       0       0       0       0       
      +0       0       0       0
  1232 ;;Total ram usage:       31 bytes
  1233 ;; Hardware stack levels used:    1
  1234 ;; Hardware stack levels required when called:    4
  1235 ;; This function calls:
  1236 ;;		_adelante
  1237 ;;		_atras
  1238 ;;		_cambiarPWM
  1239 ;;		_dirreccion
  1240 ;;		_encenderMotor
  1241 ;;		_enviarRS232
  1242 ;;		_estadoDirreccion
  1243 ;;		_fijarVelocidad
  1244 ;;		_frenarMotor
  1245 ;; This function is called by:
  1246 ;;		_main
  1247 ;; This function uses a non-reentrant model
  1248 ;;
  1249                           
  1250                           	psect	text1
  1251  001C22                     __ptext1:
  1252                           	opt callstack 0
  1253  001C22                     _terminal:
  1254                           	opt callstack 26
  1255                           
  1256                           ;auto.c: 196:     unsigned int degree;;auto.c: 197:     unsigned char texto[20] = {'\0'}
      +                          ;
  1257                           
  1258                           ;incstack = 0
  1259  001C22  EE20  F0A7         	lfsr	2,terminal@texto
  1260  001C26  0E13               	movlw	19
  1261  001C28                     u3801:
  1262  001C28  6ADE               	clrf	postinc2,c
  1263  001C2A  06E8               	decf	wreg,f,c
  1264  001C2C  E2FD               	bc	u3801
  1265                           
  1266                           ;auto.c: 198:     estado = 'c';
  1267  001C2E  0E63               	movlw	99
  1268  001C30  6E3C               	movwf	_estado,c
  1269                           
  1270                           ;auto.c: 199:     switch (comand[0]){
  1271  001C32  D075               	goto	l4195
  1272  001C34                     l4163:
  1273                           
  1274                           ; BSR set to: 0
  1275                           ;auto.c: 201:             adelante();
  1276  001C34  EC61  F013         	call	_adelante	;wreg free
  1277                           
  1278                           ;auto.c: 202:             encenderMotor();
  1279  001C38  EC39  F013         	call	_encenderMotor	;wreg free
  1280                           
  1281                           ;auto.c: 203:             enviarRS232("Motores encendidos!");
  1282  001C3C  0EA8               	movlw	low STR_7
  1283  001C3E  0100               	movlb	0	; () banked
  1284  001C40  6F68               	movwf	enviarRS232@valores& (0+255),b
  1285  001C42  0E0F               	movlw	high STR_7
  1286  001C44  6F69               	movwf	(enviarRS232@valores+1)& (0+255),b
  1287  001C46  ECF7  F011         	call	_enviarRS232	;wreg free
  1288                           
  1289                           ;auto.c: 204:             break;
  1290  001C4A  0012               	return	
  1291  001C4C                     l4169:
  1292                           
  1293                           ; BSR set to: 0
  1294                           ;auto.c: 206:             atras();
  1295  001C4C  EC5A  F013         	call	_atras	;wreg free
  1296                           
  1297                           ;auto.c: 207:             encenderMotor();
  1298  001C50  EC39  F013         	call	_encenderMotor	;wreg free
  1299                           
  1300                           ;auto.c: 208:             enviarRS232("Vehiculo en reversa!");
  1301  001C54  0E7E               	movlw	low STR_8
  1302  001C56  0100               	movlb	0	; () banked
  1303  001C58  6F68               	movwf	enviarRS232@valores& (0+255),b
  1304  001C5A  0E0F               	movlw	high STR_8
  1305  001C5C  6F69               	movwf	(enviarRS232@valores+1)& (0+255),b
  1306  001C5E  ECF7  F011         	call	_enviarRS232	;wreg free
  1307                           
  1308                           ;auto.c: 209:             break;
  1309  001C62  0012               	return	
  1310  001C64                     l4175:
  1311                           
  1312                           ; BSR set to: 0
  1313                           ;auto.c: 211:             degree = estadoDirreccion(2);
  1314  001C64  0E02               	movlw	2
  1315  001C66  ECB6  F011         	call	_estadoDirreccion
  1316  001C6A  C060  F0BD         	movff	?_estadoDirreccion,terminal@degree
  1317  001C6E  C061  F0BE         	movff	?_estadoDirreccion+1,terminal@degree+1
  1318                           
  1319                           ;auto.c: 212:             dirreccion(degree);
  1320  001C72  C0BD  F060         	movff	terminal@degree,dirreccion@degree
  1321  001C76  C0BE  F061         	movff	terminal@degree+1,dirreccion@degree+1
  1322  001C7A  EC2D  F011         	call	_dirreccion	;wreg free
  1323                           
  1324                           ;auto.c: 213:             break;
  1325  001C7E  0012               	return	
  1326  001C80                     l4177:
  1327                           
  1328                           ; BSR set to: 0
  1329                           ;auto.c: 215:             degree = estadoDirreccion(1);
  1330  001C80  0E01               	movlw	1
  1331  001C82  ECB6  F011         	call	_estadoDirreccion
  1332  001C86  C060  F0BD         	movff	?_estadoDirreccion,terminal@degree
  1333  001C8A  C061  F0BE         	movff	?_estadoDirreccion+1,terminal@degree+1
  1334                           
  1335                           ;auto.c: 216:             dirreccion(degree);
  1336  001C8E  C0BD  F060         	movff	terminal@degree,dirreccion@degree
  1337  001C92  C0BE  F061         	movff	terminal@degree+1,dirreccion@degree+1
  1338  001C96  EC2D  F011         	call	_dirreccion	;wreg free
  1339                           
  1340                           ;auto.c: 217:             break;
  1341  001C9A  0012               	return	
  1342  001C9C                     l4179:
  1343                           
  1344                           ; BSR set to: 0
  1345                           ;auto.c: 219:             estado = 'c';
  1346  001C9C  0E63               	movlw	99
  1347  001C9E  6E3C               	movwf	_estado,c
  1348                           
  1349                           ; BSR set to: 0
  1350                           ;auto.c: 220:             frenarMotor();
  1351  001CA0  EC52  F013         	call	_frenarMotor	;wreg free
  1352                           
  1353                           ;auto.c: 221:             INTCON3bits.INT1E = 1;
  1354  001CA4  86F0               	bsf	4080,3,c	;volatile
  1355                           
  1356                           ;auto.c: 222:             break;
  1357  001CA6  0012               	return	
  1358  001CA8                     l4185:
  1359                           
  1360                           ; BSR set to: 0
  1361                           ;auto.c: 224:             medicion = (comand[1] - 0x30)*100 + (comand[2] - 0x30)*10 + co
      +                          mand[3] - 0x30;
  1362  001CA8  EE20 F001          	lfsr	2,1
  1363  001CAC  51A0               	movf	terminal@comand& (0+255),w,b
  1364  001CAE  26D9               	addwf	fsr2l,f,c
  1365  001CB0  51A1               	movf	(terminal@comand+1)& (0+255),w,b
  1366  001CB2  22DA               	addwfc	fsr2h,f,c
  1367  001CB4  50DF               	movf	indf2,w,c
  1368  001CB6  6FA2               	movwf	??_terminal& (0+255),b
  1369  001CB8  51A2               	movf	??_terminal& (0+255),w,b
  1370  001CBA  0D64               	mullw	100
  1371  001CBC  CFF3 F0A3          	movff	prodl,??_terminal+1
  1372  001CC0  CFF4 F0A4          	movff	prodh,??_terminal+2
  1373  001CC4  EE20 F002          	lfsr	2,2
  1374  001CC8  51A0               	movf	terminal@comand& (0+255),w,b
  1375  001CCA  26D9               	addwf	fsr2l,f,c
  1376  001CCC  51A1               	movf	(terminal@comand+1)& (0+255),w,b
  1377  001CCE  22DA               	addwfc	fsr2h,f,c
  1378  001CD0  50DF               	movf	indf2,w,c
  1379  001CD2  6FA5               	movwf	(??_terminal+3)& (0+255),b
  1380  001CD4  51A5               	movf	(??_terminal+3)& (0+255),w,b
  1381  001CD6  0D0A               	mullw	10
  1382  001CD8  50F3               	movf	prodl,w,c
  1383  001CDA  27A3               	addwf	(??_terminal+1)& (0+255),f,b
  1384  001CDC  50F4               	movf	prodh,w,c
  1385  001CDE  23A4               	addwfc	(??_terminal+2)& (0+255),f,b
  1386  001CE0  EE20 F003          	lfsr	2,3
  1387  001CE4  51A0               	movf	terminal@comand& (0+255),w,b
  1388  001CE6  26D9               	addwf	fsr2l,f,c
  1389  001CE8  51A1               	movf	(terminal@comand+1)& (0+255),w,b
  1390  001CEA  22DA               	addwfc	fsr2h,f,c
  1391  001CEC  50DF               	movf	indf2,w,c
  1392  001CEE  6FA6               	movwf	(??_terminal+4)& (0+255),b
  1393  001CF0  51A6               	movf	(??_terminal+4)& (0+255),w,b
  1394  001CF2  27A3               	addwf	(??_terminal+1)& (0+255),f,b
  1395  001CF4  0E00               	movlw	0
  1396  001CF6  23A4               	addwfc	(??_terminal+2)& (0+255),f,b
  1397  001CF8  0E30               	movlw	48
  1398  001CFA  25A3               	addwf	(??_terminal+1)& (0+255),w,b
  1399  001CFC  6FBB               	movwf	terminal@medicion& (0+255),b
  1400  001CFE  0EEB               	movlw	235
  1401  001D00  21A4               	addwfc	(??_terminal+2)& (0+255),w,b
  1402  001D02  6FBC               	movwf	(terminal@medicion+1)& (0+255),b
  1403                           
  1404                           ; BSR set to: 0
  1405                           ;auto.c: 225:             fijarVelocidad(medicion);
  1406  001D04  51BB               	movf	terminal@medicion& (0+255),w,b
  1407  001D06  EC52  F00F         	call	_fijarVelocidad
  1408                           
  1409                           ;auto.c: 226:             cambiarPWM();
  1410  001D0A  EC6F  F013         	call	_cambiarPWM	;wreg free
  1411                           
  1412                           ;auto.c: 227:             break;
  1413  001D0E  0012               	return	
  1414  001D10                     l4191:
  1415                           
  1416                           ; BSR set to: 0
  1417                           ;auto.c: 229:             enviarRS232("MODO PROGRAMADOR ACTIVADO!");
  1418  001D10  0E1E               	movlw	low STR_9
  1419  001D12  6F68               	movwf	enviarRS232@valores& (0+255),b
  1420  001D14  0E0F               	movlw	high STR_9
  1421  001D16  6F69               	movwf	(enviarRS232@valores+1)& (0+255),b
  1422  001D18  ECF7  F011         	call	_enviarRS232	;wreg free
  1423  001D1C                     l284:
  1424  001D1C  D7FF               	goto	l284
  1425  001D1E                     l4195:
  1426  001D1E  C0A0  FFD9         	movff	terminal@comand,fsr2l
  1427  001D22  C0A1  FFDA         	movff	terminal@comand+1,fsr2h
  1428  001D26  50DF               	movf	indf2,w,c
  1429  001D28  0100               	movlb	0	; () banked
  1430  001D2A  6FA2               	movwf	??_terminal& (0+255),b
  1431  001D2C  6BA3               	clrf	(??_terminal+1)& (0+255),b
  1432                           
  1433                           ; Switch on 2 bytes has been partitioned into a top level switch of size 1, and 1 sub-sw
      +                          itches
  1434                           ; Switch size 1, requested type "simple"
  1435                           ; Number of cases is 1, Range of values is 0 to 0
  1436                           ; switch strategies available:
  1437                           ; Name         Instructions Cycles
  1438                           ; simple_byte            4     3 (average)
  1439                           ;	Chosen strategy is simple_byte
  1440  001D2E  51A3               	movf	(??_terminal+1)& (0+255),w,b
  1441  001D30  0A00               	xorlw	0	; case 0
  1442  001D32  A4D8               	btfss	status,2,c
  1443  001D34  0012               	return	
  1444                           
  1445                           ; BSR set to: 0
  1446                           ; Switch size 1, requested type "simple"
  1447                           ; Number of cases is 7, Range of values is 70 to 119
  1448                           ; switch strategies available:
  1449                           ; Name         Instructions Cycles
  1450                           ; simple_byte           22    12 (average)
  1451                           ;	Chosen strategy is simple_byte
  1452  001D36  51A2               	movf	??_terminal& (0+255),w,b
  1453  001D38  0A46               	xorlw	70	; case 70
  1454  001D3A  B4D8               	btfsc	status,2,c
  1455  001D3C  D7B5               	goto	l4185
  1456  001D3E  0A27               	xorlw	39	; case 97
  1457  001D40  B4D8               	btfsc	status,2,c
  1458  001D42  D790               	goto	l4175
  1459  001D44  0A02               	xorlw	2	; case 99
  1460  001D46  B4D8               	btfsc	status,2,c
  1461  001D48  D7A9               	goto	l4179
  1462  001D4A  0A07               	xorlw	7	; case 100
  1463  001D4C  B4D8               	btfsc	status,2,c
  1464  001D4E  D798               	goto	l4177
  1465  001D50  0A03               	xorlw	3	; case 103
  1466  001D52  B4D8               	btfsc	status,2,c
  1467  001D54  D7DD               	goto	l4191
  1468  001D56  0A14               	xorlw	20	; case 115
  1469  001D58  B4D8               	btfsc	status,2,c
  1470  001D5A  D778               	goto	l4169
  1471  001D5C  0A04               	xorlw	4	; case 119
  1472  001D5E  A4D8               	btfss	status,2,c
  1473  001D60  0012               	return	
  1474  001D62  D768               	goto	l4163
  1475  001D64                     __end_of_terminal:
  1476                           	opt callstack 0
  1477                           
  1478 ;; *************** function _cambiarPWM *****************
  1479 ;; Defined at:
  1480 ;;		line 237 in file "auto.c"
  1481 ;; Parameters:    Size  Location     Type
  1482 ;;		None
  1483 ;; Auto vars:     Size  Location     Type
  1484 ;;		None
  1485 ;; Return value:  Size  Location     Type
  1486 ;;                  1    wreg      void 
  1487 ;; Registers used:
  1488 ;;		wreg, status,2, status,0, cstack
  1489 ;; Tracked objects:
  1490 ;;		On entry : 0/0
  1491 ;;		On exit  : 0/0
  1492 ;;		Unchanged: 0/0
  1493 ;; Data sizes:     COMRAM   BANK0   BANK1   BANK2   BANK3   BANK4   BANK5   BANK6   BANK7   BANK8   BANK9  BANK10  BANK1
      +1  BANK12  BANK13  BANK14
  1494 ;;      Params:         0       0       0       0       0       0       0       0       0       0       0       0       
      +0       0       0       0
  1495 ;;      Locals:         0       0       0       0       0       0       0       0       0       0       0       0       
      +0       0       0       0
  1496 ;;      Temps:          0       0       0       0       0       0       0       0       0       0       0       0       
      +0       0       0       0
  1497 ;;      Totals:         0       0       0       0       0       0       0       0       0       0       0       0       
      +0       0       0       0
  1498 ;;Total ram usage:        0 bytes
  1499 ;; Hardware stack levels used:    1
  1500 ;; Hardware stack levels required when called:    3
  1501 ;; This function calls:
  1502 ;;		_definirVelocidad
  1503 ;; This function is called by:
  1504 ;;		_terminal
  1505 ;; This function uses a non-reentrant model
  1506 ;;
  1507                           
  1508                           	psect	text2
  1509  0026DE                     __ptext2:
  1510                           	opt callstack 0
  1511  0026DE                     _cambiarPWM:
  1512                           	opt callstack 26
  1513                           
  1514                           ;auto.c: 238:     if(motor == 1){
  1515                           
  1516                           ;incstack = 0
  1517  0026DE  0441               	decf	_motor,w,c
  1518  0026E0  A4D8               	btfss	status,2,c
  1519  0026E2  0012               	return	
  1520                           
  1521                           ;auto.c: 239:         definirVelocidad();
  1522  0026E4  ECAD  F012         	call	_definirVelocidad	;wreg free
  1523  0026E8  0012               	return		;funcret
  1524  0026EA                     __end_of_cambiarPWM:
  1525                           	opt callstack 0
  1526                           
  1527 ;; *************** function _rutinaEscape *****************
  1528 ;; Defined at:
  1529 ;;		line 348 in file "auto.c"
  1530 ;; Parameters:    Size  Location     Type
  1531 ;;  type            1    wreg     unsigned char 
  1532 ;; Auto vars:     Size  Location     Type
  1533 ;;  type            1   66[BANK0 ] unsigned char 
  1534 ;; Return value:  Size  Location     Type
  1535 ;;                  1    wreg      void 
  1536 ;; Registers used:
  1537 ;;		wreg, status,2, status,0, tblptrl, tblptrh, tblptru, prodl, prodh, cstack
  1538 ;; Tracked objects:
  1539 ;;		On entry : 0/0
  1540 ;;		On exit  : 0/0
  1541 ;;		Unchanged: 0/0
  1542 ;; Data sizes:     COMRAM   BANK0   BANK1   BANK2   BANK3   BANK4   BANK5   BANK6   BANK7   BANK8   BANK9  BANK10  BANK1
      +1  BANK12  BANK13  BANK14
  1543 ;;      Params:         0       0       0       0       0       0       0       0       0       0       0       0       
      +0       0       0       0
  1544 ;;      Locals:         0       1       0       0       0       0       0       0       0       0       0       0       
      +0       0       0       0
  1545 ;;      Temps:          0       2       0       0       0       0       0       0       0       0       0       0       
      +0       0       0       0
  1546 ;;      Totals:         0       3       0       0       0       0       0       0       0       0       0       0       
      +0       0       0       0
  1547 ;;Total ram usage:        3 bytes
  1548 ;; Hardware stack levels used:    1
  1549 ;; Hardware stack levels required when called:    4
  1550 ;; This function calls:
  1551 ;;		_adelante
  1552 ;;		_atras
  1553 ;;		_dirreccion
  1554 ;;		_encenderMotor
  1555 ;;		_enviarRS232
  1556 ;;		_fijarVelocidad
  1557 ;;		_frenarMotor
  1558 ;; This function is called by:
  1559 ;;		_main
  1560 ;; This function uses a non-reentrant model
  1561 ;;
  1562                           
  1563                           	psect	text3
  1564  00211C                     __ptext3:
  1565                           	opt callstack 0
  1566  00211C                     _rutinaEscape:
  1567                           	opt callstack 26
  1568                           
  1569                           ;incstack = 0
  1570                           ;rutinaEscape@type stored from wreg
  1571  00211C  0100               	movlb	0	; () banked
  1572  00211E  6FA2               	movwf	rutinaEscape@type& (0+255),b
  1573                           
  1574                           ;auto.c: 349:     frenarMotor();
  1575  002120  EC52  F013         	call	_frenarMotor	;wreg free
  1576                           
  1577                           ;auto.c: 350:     estado = 'c';
  1578  002124  0E63               	movlw	99
  1579  002126  6E3C               	movwf	_estado,c
  1580                           
  1581                           ;auto.c: 351:     switch(type){
  1582  002128  D036               	goto	l4115
  1583  00212A                     l4085:
  1584                           
  1585                           ; BSR set to: 0
  1586                           ;auto.c: 353:             enviarRS232("FUEGO!");
  1587  00212A  0EC5               	movlw	low STR_10
  1588  00212C  6F68               	movwf	enviarRS232@valores& (0+255),b
  1589  00212E  0E0F               	movlw	high STR_10
  1590  002130  6F69               	movwf	(enviarRS232@valores+1)& (0+255),b
  1591  002132  ECF7  F011         	call	_enviarRS232	;wreg free
  1592                           
  1593                           ;auto.c: 354:             dirreccion(180);
  1594  002136  0E00               	movlw	0
  1595  002138  0100               	movlb	0	; () banked
  1596  00213A  6F61               	movwf	(dirreccion@degree+1)& (0+255),b
  1597  00213C  0EB4               	movlw	180
  1598  00213E  6F60               	movwf	dirreccion@degree& (0+255),b
  1599  002140  EC2D  F011         	call	_dirreccion	;wreg free
  1600                           
  1601                           ;auto.c: 355:             fijarVelocidad(10);
  1602  002144  0E0A               	movlw	10
  1603  002146  EC52  F00F         	call	_fijarVelocidad
  1604                           
  1605                           ;auto.c: 356:             adelante();
  1606  00214A  EC61  F013         	call	_adelante	;wreg free
  1607                           
  1608                           ;auto.c: 357:             encenderMotor();
  1609  00214E  EC39  F013         	call	_encenderMotor	;wreg free
  1610                           
  1611                           ;auto.c: 358:             TIME_FUEGO = 4000;
  1612  002152  0EA0               	movlw	160
  1613  002154  6E2A               	movwf	_TIME_FUEGO,c
  1614  002156  0E0F               	movlw	15
  1615  002158  6E2B               	movwf	_TIME_FUEGO+1,c
  1616  00215A  0E00               	movlw	0
  1617  00215C  6E2C               	movwf	_TIME_FUEGO+2,c
  1618  00215E  0E00               	movlw	0
  1619  002160  6E2D               	movwf	_TIME_FUEGO+3,c
  1620                           
  1621                           ;auto.c: 359:             T8CONbits.TMR8ON = 1;
  1622  002162  010F               	movlb	15	; () banked
  1623  002164  851B               	bsf	27,2,b	;volatile
  1624                           
  1625                           ; BSR set to: 15
  1626                           ;auto.c: 360:             estadoFuego = 0;
  1627  002166  0E00               	movlw	0
  1628  002168  6E3D               	movwf	_estadoFuego,c
  1629                           
  1630                           ;auto.c: 361:             break;
  1631  00216A  0012               	return	
  1632  00216C                     l4101:
  1633                           
  1634                           ; BSR set to: 0
  1635                           ;auto.c: 363:             TIME_FUEGO = 4000;
  1636  00216C  0EA0               	movlw	160
  1637  00216E  6E2A               	movwf	_TIME_FUEGO,c
  1638  002170  0E0F               	movlw	15
  1639  002172  6E2B               	movwf	_TIME_FUEGO+1,c
  1640  002174  0E00               	movlw	0
  1641  002176  6E2C               	movwf	_TIME_FUEGO+2,c
  1642  002178  0E00               	movlw	0
  1643  00217A  6E2D               	movwf	_TIME_FUEGO+3,c
  1644                           
  1645                           ; BSR set to: 0
  1646                           ;auto.c: 364:             atras();
  1647  00217C  EC5A  F013         	call	_atras	;wreg free
  1648                           
  1649                           ;auto.c: 365:             fijarVelocidad(10);
  1650  002180  0E0A               	movlw	10
  1651  002182  EC52  F00F         	call	_fijarVelocidad
  1652                           
  1653                           ;auto.c: 366:             encenderMotor();
  1654  002186  EC39  F013         	call	_encenderMotor	;wreg free
  1655                           
  1656                           ;auto.c: 367:             T8CONbits.TMR8ON = 1;
  1657  00218A  010F               	movlb	15	; () banked
  1658  00218C  851B               	bsf	27,2,b	;volatile
  1659                           
  1660                           ;auto.c: 368:             break;
  1661  00218E  0012               	return	
  1662  002190                     l4111:
  1663                           
  1664                           ; BSR set to: 0
  1665                           ;auto.c: 370:             frenarMotor();
  1666  002190  EC52  F013         	call	_frenarMotor	;wreg free
  1667                           
  1668                           ;auto.c: 371:             break;
  1669  002194  0012               	return	
  1670  002196                     l4115:
  1671  002196  0100               	movlb	0	; () banked
  1672  002198  51A2               	movf	rutinaEscape@type& (0+255),w,b
  1673  00219A  6FA0               	movwf	??_rutinaEscape& (0+255),b
  1674  00219C  6BA1               	clrf	(??_rutinaEscape+1)& (0+255),b
  1675                           
  1676                           ; Switch on 2 bytes has been partitioned into a top level switch of size 1, and 1 sub-sw
      +                          itches
  1677                           ; Switch size 1, requested type "simple"
  1678                           ; Number of cases is 1, Range of values is 0 to 0
  1679                           ; switch strategies available:
  1680                           ; Name         Instructions Cycles
  1681                           ; simple_byte            4     3 (average)
  1682                           ;	Chosen strategy is simple_byte
  1683  00219E  51A1               	movf	(??_rutinaEscape+1)& (0+255),w,b
  1684  0021A0  0A00               	xorlw	0	; case 0
  1685  0021A2  A4D8               	btfss	status,2,c
  1686  0021A4  0012               	return	
  1687                           
  1688                           ; BSR set to: 0
  1689                           ; Switch size 1, requested type "simple"
  1690                           ; Number of cases is 3, Range of values is 1 to 3
  1691                           ; switch strategies available:
  1692                           ; Name         Instructions Cycles
  1693                           ; simple_byte           10     6 (average)
  1694                           ;	Chosen strategy is simple_byte
  1695  0021A6  51A0               	movf	??_rutinaEscape& (0+255),w,b
  1696  0021A8  0A01               	xorlw	1	; case 1
  1697  0021AA  B4D8               	btfsc	status,2,c
  1698  0021AC  D7BE               	goto	l4085
  1699  0021AE  0A03               	xorlw	3	; case 2
  1700  0021B0  B4D8               	btfsc	status,2,c
  1701  0021B2  D7EE               	goto	l4111
  1702  0021B4  0A01               	xorlw	1	; case 3
  1703  0021B6  A4D8               	btfss	status,2,c
  1704  0021B8  0012               	return	
  1705  0021BA  D7D8               	goto	l4101
  1706  0021BC                     __end_of_rutinaEscape:
  1707                           	opt callstack 0
  1708                           
  1709 ;; *************** function _fijarVelocidad *****************
  1710 ;; Defined at:
  1711 ;;		line 31 in file "./../LIBRERIAS/funciones_auto.h"
  1712 ;; Parameters:    Size  Location     Type
  1713 ;;  speed           1    wreg     unsigned char 
  1714 ;; Auto vars:     Size  Location     Type
  1715 ;;  speed           1   63[BANK0 ] unsigned char 
  1716 ;;  DC              4   55[BANK0 ] float 
  1717 ;; Return value:  Size  Location     Type
  1718 ;;                  1    wreg      void 
  1719 ;; Registers used:
  1720 ;;		wreg, status,2, status,0, prodl, prodh, cstack
  1721 ;; Tracked objects:
  1722 ;;		On entry : 0/0
  1723 ;;		On exit  : 0/0
  1724 ;;		Unchanged: 0/0
  1725 ;; Data sizes:     COMRAM   BANK0   BANK1   BANK2   BANK3   BANK4   BANK5   BANK6   BANK7   BANK8   BANK9  BANK10  BANK1
      +1  BANK12  BANK13  BANK14
  1726 ;;      Params:         0       0       0       0       0       0       0       0       0       0       0       0       
      +0       0       0       0
  1727 ;;      Locals:         0       9       0       0       0       0       0       0       0       0       0       0       
      +0       0       0       0
  1728 ;;      Temps:          0       0       0       0       0       0       0       0       0       0       0       0       
      +0       0       0       0
  1729 ;;      Totals:         0       9       0       0       0       0       0       0       0       0       0       0       
      +0       0       0       0
  1730 ;;Total ram usage:        9 bytes
  1731 ;; Hardware stack levels used:    1
  1732 ;; Hardware stack levels required when called:    3
  1733 ;; This function calls:
  1734 ;;		___fladd
  1735 ;;		___flmul
  1736 ;;		___fltol
  1737 ;;		___xxtofl
  1738 ;; This function is called by:
  1739 ;;		_terminal
  1740 ;;		_rutinaEscape
  1741 ;; This function uses a non-reentrant model
  1742 ;;
  1743                           
  1744                           	psect	text4
  1745  001EA4                     __ptext4:
  1746                           	opt callstack 0
  1747  001EA4                     _fijarVelocidad:
  1748                           	opt callstack 26
  1749                           
  1750                           ;incstack = 0
  1751                           ;fijarVelocidad@speed stored from wreg
  1752  001EA4  0100               	movlb	0	; () banked
  1753  001EA6  6F9F               	movwf	fijarVelocidad@speed& (0+255),b
  1754                           
  1755                           ;./../LIBRERIAS/funciones_auto.h: 32:     float DC = maximun_constant * speed + 0.55;
  1756  001EA8  0EBC               	movlw	188
  1757  001EAA  0100               	movlb	0	; () banked
  1758  001EAC  6F72               	movwf	___flmul@a& (0+255),b
  1759  001EAE  0E74               	movlw	116
  1760  001EB0  6F73               	movwf	(___flmul@a+1)& (0+255),b
  1761  001EB2  0E13               	movlw	19
  1762  001EB4  6F74               	movwf	(___flmul@a+2)& (0+255),b
  1763  001EB6  0E3C               	movlw	60
  1764  001EB8  6F75               	movwf	(___flmul@a+3)& (0+255),b
  1765  001EBA  519F               	movf	fijarVelocidad@speed& (0+255),w,b
  1766  001EBC  6F60               	movwf	___xxtofl@val& (0+255),b
  1767  001EBE  6B61               	clrf	(___xxtofl@val+1)& (0+255),b
  1768  001EC0  6B62               	clrf	(___xxtofl@val+2)& (0+255),b
  1769  001EC2  6B63               	clrf	(___xxtofl@val+3)& (0+255),b
  1770  001EC4  0E01               	movlw	1
  1771  001EC6  EC6F  F00D         	call	___xxtofl
  1772  001ECA  C060  F06E         	movff	?___xxtofl,___flmul@b
  1773  001ECE  C061  F06F         	movff	?___xxtofl+1,___flmul@b+1
  1774  001ED2  C062  F070         	movff	?___xxtofl+2,___flmul@b+2
  1775  001ED6  C063  F071         	movff	?___xxtofl+3,___flmul@b+3
  1776  001EDA  ECE7  F007         	call	___flmul	;wreg free
  1777  001EDE  C06E  F087         	movff	?___flmul,___fladd@b
  1778  001EE2  C06F  F088         	movff	?___flmul+1,___fladd@b+1
  1779  001EE6  C070  F089         	movff	?___flmul+2,___fladd@b+2
  1780  001EEA  C071  F08A         	movff	?___flmul+3,___fladd@b+3
  1781  001EEE  0ECD               	movlw	205
  1782  001EF0  0100               	movlb	0	; () banked
  1783  001EF2  6F8B               	movwf	___fladd@a& (0+255),b
  1784  001EF4  0ECC               	movlw	204
  1785  001EF6  6F8C               	movwf	(___fladd@a+1)& (0+255),b
  1786  001EF8  0E0C               	movlw	12
  1787  001EFA  6F8D               	movwf	(___fladd@a+2)& (0+255),b
  1788  001EFC  0E3F               	movlw	63
  1789  001EFE  6F8E               	movwf	(___fladd@a+3)& (0+255),b
  1790  001F00  EC91  F009         	call	___fladd	;wreg free
  1791  001F04  C087  F097         	movff	?___fladd,fijarVelocidad@DC
  1792  001F08  C088  F098         	movff	?___fladd+1,fijarVelocidad@DC+1
  1793  001F0C  C089  F099         	movff	?___fladd+2,fijarVelocidad@DC+2
  1794  001F10  C08A  F09A         	movff	?___fladd+3,fijarVelocidad@DC+3
  1795                           
  1796                           ;./../LIBRERIAS/funciones_auto.h: 33:     velocidad = 4 * DC * 25;
  1797  001F14  0E00               	movlw	0
  1798  001F16  0100               	movlb	0	; () banked
  1799  001F18  6F72               	movwf	___flmul@a& (0+255),b
  1800  001F1A  0E00               	movlw	0
  1801  001F1C  6F73               	movwf	(___flmul@a+1)& (0+255),b
  1802  001F1E  0E80               	movlw	128
  1803  001F20  6F74               	movwf	(___flmul@a+2)& (0+255),b
  1804  001F22  0E40               	movlw	64
  1805  001F24  6F75               	movwf	(___flmul@a+3)& (0+255),b
  1806  001F26  C097  F06E         	movff	fijarVelocidad@DC,___flmul@b
  1807  001F2A  C098  F06F         	movff	fijarVelocidad@DC+1,___flmul@b+1
  1808  001F2E  C099  F070         	movff	fijarVelocidad@DC+2,___flmul@b+2
  1809  001F32  C09A  F071         	movff	fijarVelocidad@DC+3,___flmul@b+3
  1810  001F36  ECE7  F007         	call	___flmul	;wreg free
  1811  001F3A  C06E  F09B         	movff	?___flmul,_fijarVelocidad$1915
  1812  001F3E  C06F  F09C         	movff	?___flmul+1,_fijarVelocidad$1915+1
  1813  001F42  C070  F09D         	movff	?___flmul+2,_fijarVelocidad$1915+2
  1814  001F46  C071  F09E         	movff	?___flmul+3,_fijarVelocidad$1915+3
  1815                           
  1816                           ;./../LIBRERIAS/funciones_auto.h: 33:     velocidad = 4 * DC * 25;
  1817  001F4A  0E00               	movlw	0
  1818  001F4C  0100               	movlb	0	; () banked
  1819  001F4E  6F72               	movwf	___flmul@a& (0+255),b
  1820  001F50  0E00               	movlw	0
  1821  001F52  6F73               	movwf	(___flmul@a+1)& (0+255),b
  1822  001F54  0EC8               	movlw	200
  1823  001F56  6F74               	movwf	(___flmul@a+2)& (0+255),b
  1824  001F58  0E41               	movlw	65
  1825  001F5A  6F75               	movwf	(___flmul@a+3)& (0+255),b
  1826  001F5C  C09B  F06E         	movff	_fijarVelocidad$1915,___flmul@b
  1827  001F60  C09C  F06F         	movff	_fijarVelocidad$1915+1,___flmul@b+1
  1828  001F64  C09D  F070         	movff	_fijarVelocidad$1915+2,___flmul@b+2
  1829  001F68  C09E  F071         	movff	_fijarVelocidad$1915+3,___flmul@b+3
  1830  001F6C  ECE7  F007         	call	___flmul	;wreg free
  1831  001F70  C06E  F087         	movff	?___flmul,___fltol@f1
  1832  001F74  C06F  F088         	movff	?___flmul+1,___fltol@f1+1
  1833  001F78  C070  F089         	movff	?___flmul+2,___fltol@f1+2
  1834  001F7C  C071  F08A         	movff	?___flmul+3,___fltol@f1+3
  1835  001F80  EC30  F010         	call	___fltol	;wreg free
  1836  001F84  C087  F0DF         	movff	?___fltol,_velocidad
  1837  001F88  C088  F0E0         	movff	?___fltol+1,_velocidad+1
  1838  001F8C  0012               	return		;funcret
  1839  001F8E                     __end_of_fijarVelocidad:
  1840                           	opt callstack 0
  1841                           
  1842 ;; *************** function ___xxtofl *****************
  1843 ;; Defined at:
  1844 ;;		line 10 in file "C:\Program Files (x86)\Microchip\xc8\v2.05\pic\sources\c99\common\xxtofl.c"
  1845 ;; Parameters:    Size  Location     Type
  1846 ;;  sign            1    wreg     unsigned char 
  1847 ;;  val             4    0[BANK0 ] long 
  1848 ;; Auto vars:     Size  Location     Type
  1849 ;;  sign            1    8[BANK0 ] unsigned char 
  1850 ;;  arg             4   10[BANK0 ] unsigned long 
  1851 ;;  exp             1    9[BANK0 ] unsigned char 
  1852 ;; Return value:  Size  Location     Type
  1853 ;;                  4    0[BANK0 ] unsigned char 
  1854 ;; Registers used:
  1855 ;;		wreg, status,2, status,0
  1856 ;; Tracked objects:
  1857 ;;		On entry : 0/0
  1858 ;;		On exit  : 0/0
  1859 ;;		Unchanged: 0/0
  1860 ;; Data sizes:     COMRAM   BANK0   BANK1   BANK2   BANK3   BANK4   BANK5   BANK6   BANK7   BANK8   BANK9  BANK10  BANK1
      +1  BANK12  BANK13  BANK14
  1861 ;;      Params:         0       4       0       0       0       0       0       0       0       0       0       0       
      +0       0       0       0
  1862 ;;      Locals:         0       6       0       0       0       0       0       0       0       0       0       0       
      +0       0       0       0
  1863 ;;      Temps:          0       4       0       0       0       0       0       0       0       0       0       0       
      +0       0       0       0
  1864 ;;      Totals:         0      14       0       0       0       0       0       0       0       0       0       0       
      +0       0       0       0
  1865 ;;Total ram usage:       14 bytes
  1866 ;; Hardware stack levels used:    1
  1867 ;; Hardware stack levels required when called:    2
  1868 ;; This function calls:
  1869 ;;		Nothing
  1870 ;; This function is called by:
  1871 ;;		_fijarVelocidad
  1872 ;; This function uses a non-reentrant model
  1873 ;;
  1874                           
  1875                           	psect	text5
  1876  001ADE                     __ptext5:
  1877                           	opt callstack 0
  1878  001ADE                     ___xxtofl:
  1879                           	opt callstack 26
  1880                           
  1881                           ;incstack = 0
  1882                           ;___xxtofl@sign stored from wreg
  1883  001ADE  0100               	movlb	0	; () banked
  1884  001AE0  6F68               	movwf	___xxtofl@sign& (0+255),b
  1885  001AE2  0100               	movlb	0	; () banked
  1886  001AE4  5168               	movf	___xxtofl@sign& (0+255),w,b
  1887  001AE6  A4D8               	btfss	status,2,c
  1888                           
  1889                           ; BSR set to: 0
  1890  001AE8  AF63               	btfss	(___xxtofl@val+3)& (0+255),7,b
  1891  001AEA  D01A               	goto	l1003
  1892                           
  1893                           ; BSR set to: 0
  1894  001AEC  C060  F064         	movff	___xxtofl@val,??___xxtofl
  1895  001AF0  C061  F065         	movff	___xxtofl@val+1,??___xxtofl+1
  1896  001AF4  C062  F066         	movff	___xxtofl@val+2,??___xxtofl+2
  1897  001AF8  C063  F067         	movff	___xxtofl@val+3,??___xxtofl+3
  1898  001AFC  1F64               	comf	??___xxtofl& (0+255),f,b
  1899  001AFE  1F65               	comf	(??___xxtofl+1)& (0+255),f,b
  1900  001B00  1F66               	comf	(??___xxtofl+2)& (0+255),f,b
  1901  001B02  1F67               	comf	(??___xxtofl+3)& (0+255),f,b
  1902  001B04  2B64               	incf	??___xxtofl& (0+255),f,b
  1903  001B06  0E00               	movlw	0
  1904  001B08  2365               	addwfc	(??___xxtofl+1)& (0+255),f,b
  1905  001B0A  2366               	addwfc	(??___xxtofl+2)& (0+255),f,b
  1906  001B0C  2367               	addwfc	(??___xxtofl+3)& (0+255),f,b
  1907  001B0E  C064  F06A         	movff	??___xxtofl,___xxtofl@arg
  1908  001B12  C065  F06B         	movff	??___xxtofl+1,___xxtofl@arg+1
  1909  001B16  C066  F06C         	movff	??___xxtofl+2,___xxtofl@arg+2
  1910  001B1A  C067  F06D         	movff	??___xxtofl+3,___xxtofl@arg+3
  1911  001B1E  D008               	goto	l3859
  1912  001B20                     l1003:
  1913                           
  1914                           ; BSR set to: 0
  1915  001B20  C060  F06A         	movff	___xxtofl@val,___xxtofl@arg
  1916  001B24  C061  F06B         	movff	___xxtofl@val+1,___xxtofl@arg+1
  1917  001B28  C062  F06C         	movff	___xxtofl@val+2,___xxtofl@arg+2
  1918  001B2C  C063  F06D         	movff	___xxtofl@val+3,___xxtofl@arg+3
  1919  001B30                     l3859:
  1920                           
  1921                           ; BSR set to: 0
  1922  001B30  5160               	movf	___xxtofl@val& (0+255),w,b
  1923  001B32  1161               	iorwf	(___xxtofl@val+1)& (0+255),w,b
  1924  001B34  1162               	iorwf	(___xxtofl@val+2)& (0+255),w,b
  1925  001B36  1163               	iorwf	(___xxtofl@val+3)& (0+255),w,b
  1926  001B38  A4D8               	btfss	status,2,c
  1927  001B3A  D009               	goto	l3865
  1928                           
  1929                           ; BSR set to: 0
  1930  001B3C  0E00               	movlw	0
  1931  001B3E  6F60               	movwf	?___xxtofl& (0+255),b
  1932  001B40  0E00               	movlw	0
  1933  001B42  6F61               	movwf	(?___xxtofl+1)& (0+255),b
  1934  001B44  0E00               	movlw	0
  1935  001B46  6F62               	movwf	(?___xxtofl+2)& (0+255),b
  1936  001B48  0E00               	movlw	0
  1937  001B4A  6F63               	movwf	(?___xxtofl+3)& (0+255),b
  1938  001B4C  0012               	return	
  1939  001B4E                     l3865:
  1940                           
  1941                           ; BSR set to: 0
  1942  001B4E  0E96               	movlw	150
  1943  001B50  6F69               	movwf	___xxtofl@exp& (0+255),b
  1944  001B52  D006               	goto	l3869
  1945  001B54                     l3867:
  1946                           
  1947                           ; BSR set to: 0
  1948  001B54  2B69               	incf	___xxtofl@exp& (0+255),f,b
  1949  001B56  90D8               	bcf	status,0,c
  1950  001B58  336D               	rrcf	(___xxtofl@arg+3)& (0+255),f,b
  1951  001B5A  336C               	rrcf	(___xxtofl@arg+2)& (0+255),f,b
  1952  001B5C  336B               	rrcf	(___xxtofl@arg+1)& (0+255),f,b
  1953  001B5E  336A               	rrcf	___xxtofl@arg& (0+255),f,b
  1954  001B60                     l3869:
  1955                           
  1956                           ; BSR set to: 0
  1957  001B60  0E00               	movlw	0
  1958  001B62  156A               	andwf	___xxtofl@arg& (0+255),w,b
  1959  001B64  6F64               	movwf	??___xxtofl& (0+255),b
  1960  001B66  0E00               	movlw	0
  1961  001B68  156B               	andwf	(___xxtofl@arg+1)& (0+255),w,b
  1962  001B6A  6F65               	movwf	(??___xxtofl+1)& (0+255),b
  1963  001B6C  0E00               	movlw	0
  1964  001B6E  156C               	andwf	(___xxtofl@arg+2)& (0+255),w,b
  1965  001B70  6F66               	movwf	(??___xxtofl+2)& (0+255),b
  1966  001B72  0EFE               	movlw	254
  1967  001B74  156D               	andwf	(___xxtofl@arg+3)& (0+255),w,b
  1968  001B76  6F67               	movwf	(??___xxtofl+3)& (0+255),b
  1969  001B78  5164               	movf	??___xxtofl& (0+255),w,b
  1970  001B7A  1165               	iorwf	(??___xxtofl+1)& (0+255),w,b
  1971  001B7C  1166               	iorwf	(??___xxtofl+2)& (0+255),w,b
  1972  001B7E  1167               	iorwf	(??___xxtofl+3)& (0+255),w,b
  1973  001B80  B4D8               	btfsc	status,2,c
  1974  001B82  D00D               	goto	l1010
  1975  001B84  D7E7               	goto	l3867
  1976  001B86                     l3871:
  1977                           
  1978                           ; BSR set to: 0
  1979  001B86  2B69               	incf	___xxtofl@exp& (0+255),f,b
  1980                           
  1981                           ; BSR set to: 0
  1982  001B88  0E01               	movlw	1
  1983  001B8A  276A               	addwf	___xxtofl@arg& (0+255),f,b
  1984  001B8C  0E00               	movlw	0
  1985  001B8E  236B               	addwfc	(___xxtofl@arg+1)& (0+255),f,b
  1986  001B90  236C               	addwfc	(___xxtofl@arg+2)& (0+255),f,b
  1987  001B92  236D               	addwfc	(___xxtofl@arg+3)& (0+255),f,b
  1988                           
  1989                           ; BSR set to: 0
  1990  001B94  90D8               	bcf	status,0,c
  1991  001B96  336D               	rrcf	(___xxtofl@arg+3)& (0+255),f,b
  1992  001B98  336C               	rrcf	(___xxtofl@arg+2)& (0+255),f,b
  1993  001B9A  336B               	rrcf	(___xxtofl@arg+1)& (0+255),f,b
  1994  001B9C  336A               	rrcf	___xxtofl@arg& (0+255),f,b
  1995  001B9E                     l1010:
  1996                           
  1997                           ; BSR set to: 0
  1998  001B9E  0E00               	movlw	0
  1999  001BA0  156A               	andwf	___xxtofl@arg& (0+255),w,b
  2000  001BA2  6F64               	movwf	??___xxtofl& (0+255),b
  2001  001BA4  0E00               	movlw	0
  2002  001BA6  156B               	andwf	(___xxtofl@arg+1)& (0+255),w,b
  2003  001BA8  6F65               	movwf	(??___xxtofl+1)& (0+255),b
  2004  001BAA  0E00               	movlw	0
  2005  001BAC  156C               	andwf	(___xxtofl@arg+2)& (0+255),w,b
  2006  001BAE  6F66               	movwf	(??___xxtofl+2)& (0+255),b
  2007  001BB0  0EFF               	movlw	255
  2008  001BB2  156D               	andwf	(___xxtofl@arg+3)& (0+255),w,b
  2009  001BB4  6F67               	movwf	(??___xxtofl+3)& (0+255),b
  2010  001BB6  5164               	movf	??___xxtofl& (0+255),w,b
  2011  001BB8  1165               	iorwf	(??___xxtofl+1)& (0+255),w,b
  2012  001BBA  1166               	iorwf	(??___xxtofl+2)& (0+255),w,b
  2013  001BBC  1167               	iorwf	(??___xxtofl+3)& (0+255),w,b
  2014  001BBE  B4D8               	btfsc	status,2,c
  2015  001BC0  D007               	goto	l3879
  2016  001BC2  D7E1               	goto	l3871
  2017  001BC4                     l3877:
  2018                           
  2019                           ; BSR set to: 0
  2020  001BC4  0769               	decf	___xxtofl@exp& (0+255),f,b
  2021  001BC6  90D8               	bcf	status,0,c
  2022  001BC8  376A               	rlcf	___xxtofl@arg& (0+255),f,b
  2023  001BCA  376B               	rlcf	(___xxtofl@arg+1)& (0+255),f,b
  2024  001BCC  376C               	rlcf	(___xxtofl@arg+2)& (0+255),f,b
  2025  001BCE  376D               	rlcf	(___xxtofl@arg+3)& (0+255),f,b
  2026  001BD0                     l3879:
  2027                           
  2028                           ; BSR set to: 0
  2029  001BD0  BF6C               	btfsc	(___xxtofl@arg+2)& (0+255),7,b
  2030  001BD2  D003               	goto	u3690
  2031                           
  2032                           ; BSR set to: 0
  2033  001BD4  0E02               	movlw	2
  2034  001BD6  6169               	cpfslt	___xxtofl@exp& (0+255),b
  2035  001BD8  D7F5               	goto	l3877
  2036  001BDA                     u3690:
  2037                           
  2038                           ; BSR set to: 0
  2039  001BDA  A169               	btfss	___xxtofl@exp& (0+255),0,b
  2040                           
  2041                           ; BSR set to: 0
  2042  001BDC  9F6C               	bcf	(___xxtofl@arg+2)& (0+255),7,b
  2043                           
  2044                           ; BSR set to: 0
  2045  001BDE  90D8               	bcf	status,0,c
  2046  001BE0  3369               	rrcf	___xxtofl@exp& (0+255),f,b
  2047                           
  2048                           ; BSR set to: 0
  2049  001BE2  C069  F064         	movff	___xxtofl@exp,??___xxtofl
  2050  001BE6  6B65               	clrf	(??___xxtofl+1)& (0+255),b
  2051  001BE8  6B66               	clrf	(??___xxtofl+2)& (0+255),b
  2052  001BEA  6B67               	clrf	(??___xxtofl+3)& (0+255),b
  2053  001BEC  C064  F067         	movff	??___xxtofl,??___xxtofl+3
  2054  001BF0  6B66               	clrf	(??___xxtofl+2)& (0+255),b
  2055  001BF2  6B65               	clrf	(??___xxtofl+1)& (0+255),b
  2056  001BF4  6B64               	clrf	??___xxtofl& (0+255),b
  2057  001BF6  5164               	movf	??___xxtofl& (0+255),w,b
  2058  001BF8  136A               	iorwf	___xxtofl@arg& (0+255),f,b
  2059  001BFA  5165               	movf	(??___xxtofl+1)& (0+255),w,b
  2060  001BFC  136B               	iorwf	(___xxtofl@arg+1)& (0+255),f,b
  2061  001BFE  5166               	movf	(??___xxtofl+2)& (0+255),w,b
  2062  001C00  136C               	iorwf	(___xxtofl@arg+2)& (0+255),f,b
  2063  001C02  5167               	movf	(??___xxtofl+3)& (0+255),w,b
  2064  001C04  136D               	iorwf	(___xxtofl@arg+3)& (0+255),f,b
  2065                           
  2066                           ; BSR set to: 0
  2067  001C06  5168               	movf	___xxtofl@sign& (0+255),w,b
  2068  001C08  A4D8               	btfss	status,2,c
  2069                           
  2070                           ; BSR set to: 0
  2071  001C0A  AF63               	btfss	(___xxtofl@val+3)& (0+255),7,b
  2072  001C0C  D001               	goto	l3895
  2073                           
  2074                           ; BSR set to: 0
  2075  001C0E  8F6D               	bsf	(___xxtofl@arg+3)& (0+255),7,b
  2076  001C10                     l3895:
  2077                           
  2078                           ; BSR set to: 0
  2079  001C10  C06A  F060         	movff	___xxtofl@arg,?___xxtofl
  2080  001C14  C06B  F061         	movff	___xxtofl@arg+1,?___xxtofl+1
  2081  001C18  C06C  F062         	movff	___xxtofl@arg+2,?___xxtofl+2
  2082  001C1C  C06D  F063         	movff	___xxtofl@arg+3,?___xxtofl+3
  2083                           
  2084                           ; BSR set to: 0
  2085  001C20  0012               	return		;funcret
  2086  001C22                     __end_of___xxtofl:
  2087                           	opt callstack 0
  2088                           
  2089 ;; *************** function ___fltol *****************
  2090 ;; Defined at:
  2091 ;;		line 43 in file "C:\Program Files (x86)\Microchip\xc8\v2.05\pic\sources\c99\common\fltol.c"
  2092 ;; Parameters:    Size  Location     Type
  2093 ;;  f1              4   39[BANK0 ] unsigned char 
  2094 ;; Auto vars:     Size  Location     Type
  2095 ;;  exp1            1   48[BANK0 ] unsigned char 
  2096 ;;  sign1           1   47[BANK0 ] unsigned char 
  2097 ;; Return value:  Size  Location     Type
  2098 ;;                  4   39[BANK0 ] long 
  2099 ;; Registers used:
  2100 ;;		wreg, status,2, status,0
  2101 ;; Tracked objects:
  2102 ;;		On entry : 0/0
  2103 ;;		On exit  : 0/0
  2104 ;;		Unchanged: 0/0
  2105 ;; Data sizes:     COMRAM   BANK0   BANK1   BANK2   BANK3   BANK4   BANK5   BANK6   BANK7   BANK8   BANK9  BANK10  BANK1
      +1  BANK12  BANK13  BANK14
  2106 ;;      Params:         0       4       0       0       0       0       0       0       0       0       0       0       
      +0       0       0       0
  2107 ;;      Locals:         0       2       0       0       0       0       0       0       0       0       0       0       
      +0       0       0       0
  2108 ;;      Temps:          0       4       0       0       0       0       0       0       0       0       0       0       
      +0       0       0       0
  2109 ;;      Totals:         0      10       0       0       0       0       0       0       0       0       0       0       
      +0       0       0       0
  2110 ;;Total ram usage:       10 bytes
  2111 ;; Hardware stack levels used:    1
  2112 ;; Hardware stack levels required when called:    2
  2113 ;; This function calls:
  2114 ;;		Nothing
  2115 ;; This function is called by:
  2116 ;;		_fijarVelocidad
  2117 ;; This function uses a non-reentrant model
  2118 ;;
  2119                           
  2120                           	psect	text6
  2121  002060                     __ptext6:
  2122                           	opt callstack 0
  2123  002060                     ___fltol:
  2124                           	opt callstack 26
  2125                           
  2126                           ; BSR set to: 0
  2127                           ;incstack = 0
  2128  002060  0100               	movlb	0	; () banked
  2129  002062  3589               	rlcf	(___fltol@f1+2)& (0+255),w,b
  2130  002064  358A               	rlcf	(___fltol@f1+3)& (0+255),w,b
  2131  002066  6F90               	movwf	___fltol@exp1& (0+255),b
  2132  002068  5190               	movf	___fltol@exp1& (0+255),w,b
  2133  00206A  A4D8               	btfss	status,2,c
  2134  00206C  D009               	goto	l2703
  2135  00206E                     u2310:
  2136                           
  2137                           ; BSR set to: 0
  2138  00206E  0E00               	movlw	0
  2139  002070  6F87               	movwf	?___fltol& (0+255),b
  2140  002072  0E00               	movlw	0
  2141  002074  6F88               	movwf	(?___fltol+1)& (0+255),b
  2142  002076  0E00               	movlw	0
  2143  002078  6F89               	movwf	(?___fltol+2)& (0+255),b
  2144  00207A  0E00               	movlw	0
  2145  00207C  6F8A               	movwf	(?___fltol+3)& (0+255),b
  2146  00207E  0012               	return	
  2147  002080                     l2703:
  2148                           
  2149                           ; BSR set to: 0
  2150  002080  C087  F08B         	movff	___fltol@f1,??___fltol
  2151  002084  C088  F08C         	movff	___fltol@f1+1,??___fltol+1
  2152  002088  C089  F08D         	movff	___fltol@f1+2,??___fltol+2
  2153  00208C  C08A  F08E         	movff	___fltol@f1+3,??___fltol+3
  2154  002090  0E20               	movlw	32
  2155  002092  D005               	goto	u2320
  2156  002094                     u2325:
  2157  002094  90D8               	bcf	status,0,c
  2158  002096  338E               	rrcf	(??___fltol+3)& (0+255),f,b
  2159  002098  338D               	rrcf	(??___fltol+2)& (0+255),f,b
  2160  00209A  338C               	rrcf	(??___fltol+1)& (0+255),f,b
  2161  00209C  338B               	rrcf	??___fltol& (0+255),f,b
  2162  00209E                     u2320:
  2163  00209E  2EE8               	decfsz	wreg,f,c
  2164  0020A0  D7F9               	goto	u2325
  2165  0020A2  518B               	movf	??___fltol& (0+255),w,b
  2166  0020A4  6F8F               	movwf	___fltol@sign1& (0+255),b
  2167                           
  2168                           ; BSR set to: 0
  2169  0020A6  8F89               	bsf	(___fltol@f1+2)& (0+255),7,b
  2170                           
  2171                           ; BSR set to: 0
  2172  0020A8  0EFF               	movlw	255
  2173  0020AA  1787               	andwf	___fltol@f1& (0+255),f,b
  2174  0020AC  0EFF               	movlw	255
  2175  0020AE  1788               	andwf	(___fltol@f1+1)& (0+255),f,b
  2176  0020B0  0EFF               	movlw	255
  2177  0020B2  1789               	andwf	(___fltol@f1+2)& (0+255),f,b
  2178  0020B4  0E00               	movlw	0
  2179  0020B6  178A               	andwf	(___fltol@f1+3)& (0+255),f,b
  2180                           
  2181                           ; BSR set to: 0
  2182  0020B8  0E96               	movlw	150
  2183  0020BA  5F90               	subwf	___fltol@exp1& (0+255),f,b
  2184                           
  2185                           ; BSR set to: 0
  2186  0020BC  AF90               	btfss	___fltol@exp1& (0+255),7,b
  2187  0020BE  D00D               	goto	l2723
  2188                           
  2189                           ; BSR set to: 0
  2190  0020C0  5190               	movf	___fltol@exp1& (0+255),w,b
  2191  0020C2  0A80               	xorlw	128
  2192  0020C4  0F97               	addlw	151
  2193  0020C6  A0D8               	btfss	status,0,c
  2194  0020C8  D7D2               	goto	u2310
  2195  0020CA                     l2719:
  2196                           
  2197                           ; BSR set to: 0
  2198  0020CA  90D8               	bcf	status,0,c
  2199  0020CC  338A               	rrcf	(___fltol@f1+3)& (0+255),f,b
  2200  0020CE  3389               	rrcf	(___fltol@f1+2)& (0+255),f,b
  2201  0020D0  3388               	rrcf	(___fltol@f1+1)& (0+255),f,b
  2202  0020D2  3387               	rrcf	___fltol@f1& (0+255),f,b
  2203                           
  2204                           ; BSR set to: 0
  2205  0020D4  3F90               	incfsz	___fltol@exp1& (0+255),f,b
  2206  0020D6  D7F9               	goto	l2719
  2207  0020D8  D00D               	goto	u2360
  2208  0020DA                     l2723:
  2209                           
  2210                           ; BSR set to: 0
  2211  0020DA  0E1F               	movlw	31
  2212  0020DC  6590               	cpfsgt	___fltol@exp1& (0+255),b
  2213  0020DE  D007               	goto	l2731
  2214  0020E0  D7C6               	goto	u2310
  2215  0020E2                     l2729:
  2216                           
  2217                           ; BSR set to: 0
  2218  0020E2  90D8               	bcf	status,0,c
  2219  0020E4  3787               	rlcf	___fltol@f1& (0+255),f,b
  2220  0020E6  3788               	rlcf	(___fltol@f1+1)& (0+255),f,b
  2221  0020E8  3789               	rlcf	(___fltol@f1+2)& (0+255),f,b
  2222  0020EA  378A               	rlcf	(___fltol@f1+3)& (0+255),f,b
  2223  0020EC  0790               	decf	___fltol@exp1& (0+255),f,b
  2224  0020EE                     l2731:
  2225                           
  2226                           ; BSR set to: 0
  2227  0020EE  5190               	movf	___fltol@exp1& (0+255),w,b
  2228  0020F0  A4D8               	btfss	status,2,c
  2229  0020F2  D7F7               	goto	l2729
  2230  0020F4                     u2360:
  2231                           
  2232                           ; BSR set to: 0
  2233  0020F4  518F               	movf	___fltol@sign1& (0+255),w,b
  2234  0020F6  B4D8               	btfsc	status,2,c
  2235  0020F8  D008               	goto	l2737
  2236                           
  2237                           ; BSR set to: 0
  2238  0020FA  1F8A               	comf	(___fltol@f1+3)& (0+255),f,b
  2239  0020FC  1F89               	comf	(___fltol@f1+2)& (0+255),f,b
  2240  0020FE  1F88               	comf	(___fltol@f1+1)& (0+255),f,b
  2241  002100  6D87               	negf	___fltol@f1& (0+255),b
  2242  002102  0E00               	movlw	0
  2243  002104  2388               	addwfc	(___fltol@f1+1)& (0+255),f,b
  2244  002106  2389               	addwfc	(___fltol@f1+2)& (0+255),f,b
  2245  002108  238A               	addwfc	(___fltol@f1+3)& (0+255),f,b
  2246  00210A                     l2737:
  2247                           
  2248                           ; BSR set to: 0
  2249  00210A  C087  F087         	movff	___fltol@f1,?___fltol
  2250  00210E  C088  F088         	movff	___fltol@f1+1,?___fltol+1
  2251  002112  C089  F089         	movff	___fltol@f1+2,?___fltol+2
  2252  002116  C08A  F08A         	movff	___fltol@f1+3,?___fltol+3
  2253                           
  2254                           ; BSR set to: 0
  2255  00211A  0012               	return		;funcret
  2256  00211C                     __end_of___fltol:
  2257                           	opt callstack 0
  2258                           
  2259 ;; *************** function ___flmul *****************
  2260 ;; Defined at:
  2261 ;;		line 8 in file "C:\Program Files (x86)\Microchip\xc8\v2.05\pic\sources\c99\common\sprcmul.c"
  2262 ;; Parameters:    Size  Location     Type
  2263 ;;  b               4   14[BANK0 ] long 
  2264 ;;  a               4   18[BANK0 ] long 
  2265 ;; Auto vars:     Size  Location     Type
  2266 ;;  prod            4   33[BANK0 ] struct .
  2267 ;;  grs             4   28[BANK0 ] unsigned long 
  2268 ;;  temp            2   37[BANK0 ] struct .
  2269 ;;  bexp            1   32[BANK0 ] unsigned char 
  2270 ;;  aexp            1   27[BANK0 ] unsigned char 
  2271 ;;  sign            1   26[BANK0 ] unsigned char 
  2272 ;; Return value:  Size  Location     Type
  2273 ;;                  4   14[BANK0 ] unsigned char 
  2274 ;; Registers used:
  2275 ;;		wreg, status,2, status,0, prodl, prodh
  2276 ;; Tracked objects:
  2277 ;;		On entry : 0/0
  2278 ;;		On exit  : 0/0
  2279 ;;		Unchanged: 0/0
  2280 ;; Data sizes:     COMRAM   BANK0   BANK1   BANK2   BANK3   BANK4   BANK5   BANK6   BANK7   BANK8   BANK9  BANK10  BANK1
      +1  BANK12  BANK13  BANK14
  2281 ;;      Params:         0       8       0       0       0       0       0       0       0       0       0       0       
      +0       0       0       0
  2282 ;;      Locals:         0      13       0       0       0       0       0       0       0       0       0       0       
      +0       0       0       0
  2283 ;;      Temps:          0       4       0       0       0       0       0       0       0       0       0       0       
      +0       0       0       0
  2284 ;;      Totals:         0      25       0       0       0       0       0       0       0       0       0       0       
      +0       0       0       0
  2285 ;;Total ram usage:       25 bytes
  2286 ;; Hardware stack levels used:    1
  2287 ;; Hardware stack levels required when called:    2
  2288 ;; This function calls:
  2289 ;;		Nothing
  2290 ;; This function is called by:
  2291 ;;		_fijarVelocidad
  2292 ;; This function uses a non-reentrant model
  2293 ;;
  2294                           
  2295                           	psect	text7
  2296  000FCE                     __ptext7:
  2297                           	opt callstack 0
  2298  000FCE                     ___flmul:
  2299                           	opt callstack 26
  2300                           
  2301                           ; BSR set to: 0
  2302                           ;incstack = 0
  2303  000FCE  0100               	movlb	0	; () banked
  2304  000FD0  5171               	movf	(___flmul@b+3)& (0+255),w,b
  2305  000FD2  0B80               	andlw	128
  2306  000FD4  6F7A               	movwf	___flmul@sign& (0+255),b
  2307  000FD6  5171               	movf	(___flmul@b+3)& (0+255),w,b
  2308  000FD8  2571               	addwf	(___flmul@b+3)& (0+255),w,b
  2309  000FDA  6F80               	movwf	___flmul@bexp& (0+255),b
  2310                           
  2311                           ; BSR set to: 0
  2312  000FDC  BF70               	btfsc	(___flmul@b+2)& (0+255),7,b
  2313                           
  2314                           ; BSR set to: 0
  2315  000FDE  8180               	bsf	___flmul@bexp& (0+255),0,b
  2316                           
  2317                           ; BSR set to: 0
  2318  000FE0  5180               	movf	___flmul@bexp& (0+255),w,b
  2319  000FE2  B4D8               	btfsc	status,2,c
  2320  000FE4  D00D               	goto	l3737
  2321                           
  2322                           ; BSR set to: 0
  2323  000FE6  2980               	incf	___flmul@bexp& (0+255),w,b
  2324  000FE8  A4D8               	btfss	status,2,c
  2325  000FEA  D008               	goto	l3735
  2326                           
  2327                           ; BSR set to: 0
  2328  000FEC  0E00               	movlw	0
  2329  000FEE  6F6E               	movwf	___flmul@b& (0+255),b
  2330  000FF0  0E00               	movlw	0
  2331  000FF2  6F6F               	movwf	(___flmul@b+1)& (0+255),b
  2332  000FF4  0E00               	movlw	0
  2333  000FF6  6F70               	movwf	(___flmul@b+2)& (0+255),b
  2334  000FF8  0E00               	movlw	0
  2335  000FFA  6F71               	movwf	(___flmul@b+3)& (0+255),b
  2336  000FFC                     l3735:
  2337                           
  2338                           ; BSR set to: 0
  2339  000FFC  8F70               	bsf	(___flmul@b+2)& (0+255),7,b
  2340  000FFE  D008               	goto	l3739
  2341  001000                     l3737:
  2342                           
  2343                           ; BSR set to: 0
  2344  001000  0E00               	movlw	0
  2345  001002  6F6E               	movwf	___flmul@b& (0+255),b
  2346  001004  0E00               	movlw	0
  2347  001006  6F6F               	movwf	(___flmul@b+1)& (0+255),b
  2348  001008  0E00               	movlw	0
  2349  00100A  6F70               	movwf	(___flmul@b+2)& (0+255),b
  2350  00100C  0E00               	movlw	0
  2351  00100E  6F71               	movwf	(___flmul@b+3)& (0+255),b
  2352  001010                     l3739:
  2353                           
  2354                           ; BSR set to: 0
  2355  001010  5175               	movf	(___flmul@a+3)& (0+255),w,b
  2356  001012  0B80               	andlw	128
  2357  001014  1B7A               	xorwf	___flmul@sign& (0+255),f,b
  2358                           
  2359                           ; BSR set to: 0
  2360  001016  5175               	movf	(___flmul@a+3)& (0+255),w,b
  2361  001018  2575               	addwf	(___flmul@a+3)& (0+255),w,b
  2362  00101A  6F7B               	movwf	___flmul@aexp& (0+255),b
  2363                           
  2364                           ; BSR set to: 0
  2365  00101C  BF74               	btfsc	(___flmul@a+2)& (0+255),7,b
  2366                           
  2367                           ; BSR set to: 0
  2368  00101E  817B               	bsf	___flmul@aexp& (0+255),0,b
  2369                           
  2370                           ; BSR set to: 0
  2371  001020  517B               	movf	___flmul@aexp& (0+255),w,b
  2372  001022  B4D8               	btfsc	status,2,c
  2373  001024  D00D               	goto	l3755
  2374                           
  2375                           ; BSR set to: 0
  2376  001026  297B               	incf	___flmul@aexp& (0+255),w,b
  2377  001028  A4D8               	btfss	status,2,c
  2378  00102A  D008               	goto	l3753
  2379                           
  2380                           ; BSR set to: 0
  2381  00102C  0E00               	movlw	0
  2382  00102E  6F72               	movwf	___flmul@a& (0+255),b
  2383  001030  0E00               	movlw	0
  2384  001032  6F73               	movwf	(___flmul@a+1)& (0+255),b
  2385  001034  0E00               	movlw	0
  2386  001036  6F74               	movwf	(___flmul@a+2)& (0+255),b
  2387  001038  0E00               	movlw	0
  2388  00103A  6F75               	movwf	(___flmul@a+3)& (0+255),b
  2389  00103C                     l3753:
  2390                           
  2391                           ; BSR set to: 0
  2392  00103C  8F74               	bsf	(___flmul@a+2)& (0+255),7,b
  2393  00103E  D008               	goto	l962
  2394  001040                     l3755:
  2395                           
  2396                           ; BSR set to: 0
  2397  001040  0E00               	movlw	0
  2398  001042  6F72               	movwf	___flmul@a& (0+255),b
  2399  001044  0E00               	movlw	0
  2400  001046  6F73               	movwf	(___flmul@a+1)& (0+255),b
  2401  001048  0E00               	movlw	0
  2402  00104A  6F74               	movwf	(___flmul@a+2)& (0+255),b
  2403  00104C  0E00               	movlw	0
  2404  00104E  6F75               	movwf	(___flmul@a+3)& (0+255),b
  2405  001050                     l962:
  2406                           
  2407                           ; BSR set to: 0
  2408  001050  517B               	movf	___flmul@aexp& (0+255),w,b
  2409  001052  B4D8               	btfsc	status,2,c
  2410  001054  D003               	goto	u3510
  2411                           
  2412                           ; BSR set to: 0
  2413  001056  5180               	movf	___flmul@bexp& (0+255),w,b
  2414  001058  A4D8               	btfss	status,2,c
  2415  00105A  D009               	goto	l3763
  2416  00105C                     u3510:
  2417                           
  2418                           ; BSR set to: 0
  2419  00105C  0E00               	movlw	0
  2420  00105E  6F6E               	movwf	?___flmul& (0+255),b
  2421  001060  0E00               	movlw	0
  2422  001062  6F6F               	movwf	(?___flmul+1)& (0+255),b
  2423  001064  0E00               	movlw	0
  2424  001066  6F70               	movwf	(?___flmul+2)& (0+255),b
  2425  001068  0E00               	movlw	0
  2426  00106A  6F71               	movwf	(?___flmul+3)& (0+255),b
  2427  00106C  0012               	return	
  2428  00106E                     l3763:
  2429                           
  2430                           ; BSR set to: 0
  2431  00106E  5174               	movf	(___flmul@a+2)& (0+255),w,b
  2432  001070  036E               	mulwf	___flmul@b& (0+255),b
  2433  001072  CFF3 F085          	movff	prodl,___flmul@temp
  2434  001076  CFF4 F086          	movff	prodh,___flmul@temp+1
  2435                           
  2436                           ; BSR set to: 0
  2437  00107A  5185               	movf	___flmul@temp& (0+255),w,b
  2438  00107C  6F7C               	movwf	___flmul@grs& (0+255),b
  2439  00107E  6B7D               	clrf	(___flmul@grs+1)& (0+255),b
  2440  001080  6B7E               	clrf	(___flmul@grs+2)& (0+255),b
  2441  001082  6B7F               	clrf	(___flmul@grs+3)& (0+255),b
  2442                           
  2443                           ; BSR set to: 0
  2444  001084  5186               	movf	(___flmul@temp+1)& (0+255),w,b
  2445  001086  6F81               	movwf	___flmul@prod& (0+255),b
  2446  001088  6B82               	clrf	(___flmul@prod+1)& (0+255),b
  2447  00108A  6B83               	clrf	(___flmul@prod+2)& (0+255),b
  2448  00108C  6B84               	clrf	(___flmul@prod+3)& (0+255),b
  2449  00108E  5173               	movf	(___flmul@a+1)& (0+255),w,b
  2450  001090  036F               	mulwf	(___flmul@b+1)& (0+255),b
  2451  001092  CFF3 F085          	movff	prodl,___flmul@temp
  2452  001096  CFF4 F086          	movff	prodh,___flmul@temp+1
  2453                           
  2454                           ; BSR set to: 0
  2455  00109A  5185               	movf	___flmul@temp& (0+255),w,b
  2456  00109C  277C               	addwf	___flmul@grs& (0+255),f,b
  2457  00109E  0E00               	movlw	0
  2458  0010A0  237D               	addwfc	(___flmul@grs+1)& (0+255),f,b
  2459  0010A2  237E               	addwfc	(___flmul@grs+2)& (0+255),f,b
  2460  0010A4  237F               	addwfc	(___flmul@grs+3)& (0+255),f,b
  2461                           
  2462                           ; BSR set to: 0
  2463  0010A6  5186               	movf	(___flmul@temp+1)& (0+255),w,b
  2464  0010A8  2781               	addwf	___flmul@prod& (0+255),f,b
  2465  0010AA  0E00               	movlw	0
  2466  0010AC  2382               	addwfc	(___flmul@prod+1)& (0+255),f,b
  2467  0010AE  2383               	addwfc	(___flmul@prod+2)& (0+255),f,b
  2468  0010B0  2384               	addwfc	(___flmul@prod+3)& (0+255),f,b
  2469  0010B2  5172               	movf	___flmul@a& (0+255),w,b
  2470  0010B4  0370               	mulwf	(___flmul@b+2)& (0+255),b
  2471  0010B6  CFF3 F085          	movff	prodl,___flmul@temp
  2472  0010BA  CFF4 F086          	movff	prodh,___flmul@temp+1
  2473                           
  2474                           ; BSR set to: 0
  2475  0010BE  5185               	movf	___flmul@temp& (0+255),w,b
  2476  0010C0  277C               	addwf	___flmul@grs& (0+255),f,b
  2477  0010C2  0E00               	movlw	0
  2478  0010C4  237D               	addwfc	(___flmul@grs+1)& (0+255),f,b
  2479  0010C6  237E               	addwfc	(___flmul@grs+2)& (0+255),f,b
  2480  0010C8  237F               	addwfc	(___flmul@grs+3)& (0+255),f,b
  2481                           
  2482                           ; BSR set to: 0
  2483  0010CA  5186               	movf	(___flmul@temp+1)& (0+255),w,b
  2484  0010CC  2781               	addwf	___flmul@prod& (0+255),f,b
  2485  0010CE  0E00               	movlw	0
  2486  0010D0  2382               	addwfc	(___flmul@prod+1)& (0+255),f,b
  2487  0010D2  2383               	addwfc	(___flmul@prod+2)& (0+255),f,b
  2488  0010D4  2384               	addwfc	(___flmul@prod+3)& (0+255),f,b
  2489                           
  2490                           ; BSR set to: 0
  2491  0010D6  C07E  F07F         	movff	___flmul@grs+2,___flmul@grs+3
  2492  0010DA  C07D  F07E         	movff	___flmul@grs+1,___flmul@grs+2
  2493  0010DE  C07C  F07D         	movff	___flmul@grs,___flmul@grs+1
  2494  0010E2  6B7C               	clrf	___flmul@grs& (0+255),b
  2495                           
  2496                           ; BSR set to: 0
  2497  0010E4  5172               	movf	___flmul@a& (0+255),w,b
  2498  0010E6  036F               	mulwf	(___flmul@b+1)& (0+255),b
  2499  0010E8  CFF3 F085          	movff	prodl,___flmul@temp
  2500  0010EC  CFF4 F086          	movff	prodh,___flmul@temp+1
  2501                           
  2502                           ; BSR set to: 0
  2503  0010F0  5185               	movf	___flmul@temp& (0+255),w,b
  2504  0010F2  277C               	addwf	___flmul@grs& (0+255),f,b
  2505  0010F4  5186               	movf	(___flmul@temp+1)& (0+255),w,b
  2506  0010F6  237D               	addwfc	(___flmul@grs+1)& (0+255),f,b
  2507  0010F8  0E00               	movlw	0
  2508  0010FA  237E               	addwfc	(___flmul@grs+2)& (0+255),f,b
  2509  0010FC  0E00               	movlw	0
  2510  0010FE  237F               	addwfc	(___flmul@grs+3)& (0+255),f,b
  2511                           
  2512                           ; BSR set to: 0
  2513  001100  5173               	movf	(___flmul@a+1)& (0+255),w,b
  2514  001102  036E               	mulwf	___flmul@b& (0+255),b
  2515  001104  CFF3 F085          	movff	prodl,___flmul@temp
  2516  001108  CFF4 F086          	movff	prodh,___flmul@temp+1
  2517                           
  2518                           ; BSR set to: 0
  2519  00110C  5185               	movf	___flmul@temp& (0+255),w,b
  2520  00110E  277C               	addwf	___flmul@grs& (0+255),f,b
  2521  001110  5186               	movf	(___flmul@temp+1)& (0+255),w,b
  2522  001112  237D               	addwfc	(___flmul@grs+1)& (0+255),f,b
  2523  001114  0E00               	movlw	0
  2524  001116  237E               	addwfc	(___flmul@grs+2)& (0+255),f,b
  2525  001118  0E00               	movlw	0
  2526  00111A  237F               	addwfc	(___flmul@grs+3)& (0+255),f,b
  2527                           
  2528                           ; BSR set to: 0
  2529  00111C  C07E  F07F         	movff	___flmul@grs+2,___flmul@grs+3
  2530  001120  C07D  F07E         	movff	___flmul@grs+1,___flmul@grs+2
  2531  001124  C07C  F07D         	movff	___flmul@grs,___flmul@grs+1
  2532  001128  6B7C               	clrf	___flmul@grs& (0+255),b
  2533  00112A  5172               	movf	___flmul@a& (0+255),w,b
  2534  00112C  036E               	mulwf	___flmul@b& (0+255),b
  2535  00112E  CFF3 F085          	movff	prodl,___flmul@temp
  2536  001132  CFF4 F086          	movff	prodh,___flmul@temp+1
  2537                           
  2538                           ; BSR set to: 0
  2539  001136  5185               	movf	___flmul@temp& (0+255),w,b
  2540  001138  277C               	addwf	___flmul@grs& (0+255),f,b
  2541  00113A  5186               	movf	(___flmul@temp+1)& (0+255),w,b
  2542  00113C  237D               	addwfc	(___flmul@grs+1)& (0+255),f,b
  2543  00113E  0E00               	movlw	0
  2544  001140  237E               	addwfc	(___flmul@grs+2)& (0+255),f,b
  2545  001142  0E00               	movlw	0
  2546  001144  237F               	addwfc	(___flmul@grs+3)& (0+255),f,b
  2547                           
  2548                           ; BSR set to: 0
  2549  001146  5174               	movf	(___flmul@a+2)& (0+255),w,b
  2550  001148  036F               	mulwf	(___flmul@b+1)& (0+255),b
  2551  00114A  CFF3 F085          	movff	prodl,___flmul@temp
  2552  00114E  CFF4 F086          	movff	prodh,___flmul@temp+1
  2553  001152  5185               	movf	___flmul@temp& (0+255),w,b
  2554  001154  2781               	addwf	___flmul@prod& (0+255),f,b
  2555  001156  5186               	movf	(___flmul@temp+1)& (0+255),w,b
  2556  001158  2382               	addwfc	(___flmul@prod+1)& (0+255),f,b
  2557  00115A  0E00               	movlw	0
  2558  00115C  2383               	addwfc	(___flmul@prod+2)& (0+255),f,b
  2559  00115E  0E00               	movlw	0
  2560  001160  2384               	addwfc	(___flmul@prod+3)& (0+255),f,b
  2561                           
  2562                           ; BSR set to: 0
  2563  001162  5173               	movf	(___flmul@a+1)& (0+255),w,b
  2564  001164  0370               	mulwf	(___flmul@b+2)& (0+255),b
  2565  001166  CFF3 F085          	movff	prodl,___flmul@temp
  2566  00116A  CFF4 F086          	movff	prodh,___flmul@temp+1
  2567                           
  2568                           ; BSR set to: 0
  2569  00116E  5185               	movf	___flmul@temp& (0+255),w,b
  2570  001170  2781               	addwf	___flmul@prod& (0+255),f,b
  2571  001172  5186               	movf	(___flmul@temp+1)& (0+255),w,b
  2572  001174  2382               	addwfc	(___flmul@prod+1)& (0+255),f,b
  2573  001176  0E00               	movlw	0
  2574  001178  2383               	addwfc	(___flmul@prod+2)& (0+255),f,b
  2575  00117A  0E00               	movlw	0
  2576  00117C  2384               	addwfc	(___flmul@prod+3)& (0+255),f,b
  2577  00117E  5174               	movf	(___flmul@a+2)& (0+255),w,b
  2578  001180  0370               	mulwf	(___flmul@b+2)& (0+255),b
  2579  001182  CFF3 F085          	movff	prodl,___flmul@temp
  2580  001186  CFF4 F086          	movff	prodh,___flmul@temp+1
  2581                           
  2582                           ; BSR set to: 0
  2583  00118A  5185               	movf	___flmul@temp& (0+255),w,b
  2584  00118C  6F76               	movwf	??___flmul& (0+255),b
  2585  00118E  5186               	movf	(___flmul@temp+1)& (0+255),w,b
  2586  001190  6F77               	movwf	(??___flmul+1)& (0+255),b
  2587  001192  6B78               	clrf	(??___flmul+2)& (0+255),b
  2588  001194  6B79               	clrf	(??___flmul+3)& (0+255),b
  2589  001196  C078  F079         	movff	??___flmul+2,??___flmul+3
  2590  00119A  C077  F078         	movff	??___flmul+1,??___flmul+2
  2591  00119E  C076  F077         	movff	??___flmul,??___flmul+1
  2592  0011A2  6B76               	clrf	??___flmul& (0+255),b
  2593  0011A4  5176               	movf	??___flmul& (0+255),w,b
  2594  0011A6  2781               	addwf	___flmul@prod& (0+255),f,b
  2595  0011A8  5177               	movf	(??___flmul+1)& (0+255),w,b
  2596  0011AA  2382               	addwfc	(___flmul@prod+1)& (0+255),f,b
  2597  0011AC  5178               	movf	(??___flmul+2)& (0+255),w,b
  2598  0011AE  2383               	addwfc	(___flmul@prod+2)& (0+255),f,b
  2599  0011B0  5179               	movf	(??___flmul+3)& (0+255),w,b
  2600  0011B2  2384               	addwfc	(___flmul@prod+3)& (0+255),f,b
  2601                           
  2602                           ; BSR set to: 0
  2603  0011B4  C07C  F076         	movff	___flmul@grs,??___flmul
  2604  0011B8  C07D  F077         	movff	___flmul@grs+1,??___flmul+1
  2605  0011BC  C07E  F078         	movff	___flmul@grs+2,??___flmul+2
  2606  0011C0  C07F  F079         	movff	___flmul@grs+3,??___flmul+3
  2607  0011C4  0E19               	movlw	25
  2608  0011C6  D005               	goto	u3520
  2609  0011C8                     u3525:
  2610  0011C8  90D8               	bcf	status,0,c
  2611  0011CA  3379               	rrcf	(??___flmul+3)& (0+255),f,b
  2612  0011CC  3378               	rrcf	(??___flmul+2)& (0+255),f,b
  2613  0011CE  3377               	rrcf	(??___flmul+1)& (0+255),f,b
  2614  0011D0  3376               	rrcf	??___flmul& (0+255),f,b
  2615  0011D2                     u3520:
  2616  0011D2  2EE8               	decfsz	wreg,f,c
  2617  0011D4  D7F9               	goto	u3525
  2618  0011D6  5176               	movf	??___flmul& (0+255),w,b
  2619  0011D8  2781               	addwf	___flmul@prod& (0+255),f,b
  2620  0011DA  5177               	movf	(??___flmul+1)& (0+255),w,b
  2621  0011DC  2382               	addwfc	(___flmul@prod+1)& (0+255),f,b
  2622  0011DE  5178               	movf	(??___flmul+2)& (0+255),w,b
  2623  0011E0  2383               	addwfc	(___flmul@prod+2)& (0+255),f,b
  2624  0011E2  5179               	movf	(??___flmul+3)& (0+255),w,b
  2625  0011E4  2384               	addwfc	(___flmul@prod+3)& (0+255),f,b
  2626                           
  2627                           ; BSR set to: 0
  2628  0011E6  C07E  F07F         	movff	___flmul@grs+2,___flmul@grs+3
  2629  0011EA  C07D  F07E         	movff	___flmul@grs+1,___flmul@grs+2
  2630  0011EE  C07C  F07D         	movff	___flmul@grs,___flmul@grs+1
  2631  0011F2  6B7C               	clrf	___flmul@grs& (0+255),b
  2632                           
  2633                           ; BSR set to: 0
  2634  0011F4  517B               	movf	___flmul@aexp& (0+255),w,b
  2635  0011F6  C080  F076         	movff	___flmul@bexp,??___flmul
  2636  0011FA  6B77               	clrf	(??___flmul+1)& (0+255),b
  2637  0011FC  2776               	addwf	??___flmul& (0+255),f,b
  2638  0011FE  0E00               	movlw	0
  2639  001200  2377               	addwfc	(??___flmul+1)& (0+255),f,b
  2640  001202  0E82               	movlw	130
  2641  001204  2576               	addwf	??___flmul& (0+255),w,b
  2642  001206  6F85               	movwf	___flmul@temp& (0+255),b
  2643  001208  0EFF               	movlw	255
  2644  00120A  2177               	addwfc	(??___flmul+1)& (0+255),w,b
  2645  00120C  6F86               	movwf	(___flmul@temp+1)& (0+255),b
  2646  00120E  D00F               	goto	l3811
  2647  001210                     l3805:
  2648                           
  2649                           ; BSR set to: 0
  2650  001210  90D8               	bcf	status,0,c
  2651  001212  3781               	rlcf	___flmul@prod& (0+255),f,b
  2652  001214  3782               	rlcf	(___flmul@prod+1)& (0+255),f,b
  2653  001216  3783               	rlcf	(___flmul@prod+2)& (0+255),f,b
  2654  001218  3784               	rlcf	(___flmul@prod+3)& (0+255),f,b
  2655                           
  2656                           ; BSR set to: 0
  2657  00121A  BF7F               	btfsc	(___flmul@grs+3)& (0+255),7,b
  2658                           
  2659                           ; BSR set to: 0
  2660  00121C  8181               	bsf	___flmul@prod& (0+255),0,b
  2661                           
  2662                           ; BSR set to: 0
  2663  00121E  90D8               	bcf	status,0,c
  2664  001220  377C               	rlcf	___flmul@grs& (0+255),f,b
  2665  001222  377D               	rlcf	(___flmul@grs+1)& (0+255),f,b
  2666  001224  377E               	rlcf	(___flmul@grs+2)& (0+255),f,b
  2667  001226  377F               	rlcf	(___flmul@grs+3)& (0+255),f,b
  2668  001228  0785               	decf	___flmul@temp& (0+255),f,b
  2669  00122A  A0D8               	btfss	status,0,c
  2670  00122C  0786               	decf	(___flmul@temp+1)& (0+255),f,b
  2671  00122E                     l3811:
  2672                           
  2673                           ; BSR set to: 0
  2674  00122E  AF83               	btfss	(___flmul@prod+2)& (0+255),7,b
  2675  001230  D7EF               	goto	l3805
  2676                           
  2677                           ; BSR set to: 0
  2678  001232  0E00               	movlw	0
  2679  001234  6F7B               	movwf	___flmul@aexp& (0+255),b
  2680                           
  2681                           ; BSR set to: 0
  2682  001236  AF7F               	btfss	(___flmul@grs+3)& (0+255),7,b
  2683  001238  D017               	goto	l971
  2684                           
  2685                           ; BSR set to: 0
  2686  00123A  0EFF               	movlw	255
  2687  00123C  157C               	andwf	___flmul@grs& (0+255),w,b
  2688  00123E  6F76               	movwf	??___flmul& (0+255),b
  2689  001240  0EFF               	movlw	255
  2690  001242  157D               	andwf	(___flmul@grs+1)& (0+255),w,b
  2691  001244  6F77               	movwf	(??___flmul+1)& (0+255),b
  2692  001246  0EFF               	movlw	255
  2693  001248  157E               	andwf	(___flmul@grs+2)& (0+255),w,b
  2694  00124A  6F78               	movwf	(??___flmul+2)& (0+255),b
  2695  00124C  0E7F               	movlw	127
  2696  00124E  157F               	andwf	(___flmul@grs+3)& (0+255),w,b
  2697  001250  6F79               	movwf	(??___flmul+3)& (0+255),b
  2698  001252  5176               	movf	??___flmul& (0+255),w,b
  2699  001254  1177               	iorwf	(??___flmul+1)& (0+255),w,b
  2700  001256  1178               	iorwf	(??___flmul+2)& (0+255),w,b
  2701  001258  1179               	iorwf	(??___flmul+3)& (0+255),w,b
  2702  00125A  B4D8               	btfsc	status,2,c
  2703  00125C  D003               	goto	l972
  2704  00125E                     u3560:
  2705                           
  2706                           ; BSR set to: 0
  2707  00125E  0E01               	movlw	1
  2708  001260  6F7B               	movwf	___flmul@aexp& (0+255),b
  2709  001262  D002               	goto	l971
  2710  001264                     l972:
  2711                           
  2712                           ; BSR set to: 0
  2713  001264  B181               	btfsc	___flmul@prod& (0+255),0,b
  2714  001266  D7FB               	goto	u3560
  2715  001268                     l971:
  2716                           
  2717                           ; BSR set to: 0
  2718  001268  517B               	movf	___flmul@aexp& (0+255),w,b
  2719  00126A  B4D8               	btfsc	status,2,c
  2720  00126C  D01F               	goto	l3831
  2721                           
  2722                           ; BSR set to: 0
  2723  00126E  0E01               	movlw	1
  2724  001270  2781               	addwf	___flmul@prod& (0+255),f,b
  2725  001272  0E00               	movlw	0
  2726  001274  2382               	addwfc	(___flmul@prod+1)& (0+255),f,b
  2727  001276  2383               	addwfc	(___flmul@prod+2)& (0+255),f,b
  2728  001278  2384               	addwfc	(___flmul@prod+3)& (0+255),f,b
  2729                           
  2730                           ; BSR set to: 0
  2731  00127A  A184               	btfss	(___flmul@prod+3)& (0+255),0,b
  2732  00127C  D017               	goto	l3831
  2733                           
  2734                           ; BSR set to: 0
  2735  00127E  C081  F076         	movff	___flmul@prod,??___flmul
  2736  001282  C082  F077         	movff	___flmul@prod+1,??___flmul+1
  2737  001286  C083  F078         	movff	___flmul@prod+2,??___flmul+2
  2738  00128A  C084  F079         	movff	___flmul@prod+3,??___flmul+3
  2739  00128E  3579               	rlcf	(??___flmul+3)& (0+255),w,b
  2740  001290  3379               	rrcf	(??___flmul+3)& (0+255),f,b
  2741  001292  3378               	rrcf	(??___flmul+2)& (0+255),f,b
  2742  001294  3377               	rrcf	(??___flmul+1)& (0+255),f,b
  2743  001296  3376               	rrcf	??___flmul& (0+255),f,b
  2744  001298  C076  F081         	movff	??___flmul,___flmul@prod
  2745  00129C  C077  F082         	movff	??___flmul+1,___flmul@prod+1
  2746  0012A0  C078  F083         	movff	??___flmul+2,___flmul@prod+2
  2747  0012A4  C079  F084         	movff	??___flmul+3,___flmul@prod+3
  2748                           
  2749                           ; BSR set to: 0
  2750  0012A8  4B85               	infsnz	___flmul@temp& (0+255),f,b
  2751  0012AA  2B86               	incf	(___flmul@temp+1)& (0+255),f,b
  2752  0012AC                     l3831:
  2753                           
  2754                           ; BSR set to: 0
  2755  0012AC  BF86               	btfsc	(___flmul@temp+1)& (0+255),7,b
  2756  0012AE  D00D               	goto	l3835
  2757  0012B0  5186               	movf	(___flmul@temp+1)& (0+255),w,b
  2758  0012B2  E103               	bnz	u3600
  2759  0012B4  2985               	incf	___flmul@temp& (0+255),w,b
  2760  0012B6  A0D8               	btfss	status,0,c
  2761  0012B8  D008               	goto	l3835
  2762  0012BA                     u3600:
  2763                           
  2764                           ; BSR set to: 0
  2765  0012BA  0E00               	movlw	0
  2766  0012BC  6F81               	movwf	___flmul@prod& (0+255),b
  2767  0012BE  0E00               	movlw	0
  2768  0012C0  6F82               	movwf	(___flmul@prod+1)& (0+255),b
  2769  0012C2  0E80               	movlw	128
  2770  0012C4  6F83               	movwf	(___flmul@prod+2)& (0+255),b
  2771  0012C6  0E7F               	movlw	127
  2772  0012C8  D020               	goto	L1
  2773  0012CA                     l3835:
  2774                           
  2775                           ; BSR set to: 0
  2776  0012CA  BF86               	btfsc	(___flmul@temp+1)& (0+255),7,b
  2777  0012CC  D005               	goto	u3610
  2778  0012CE  5186               	movf	(___flmul@temp+1)& (0+255),w,b
  2779  0012D0  E10E               	bnz	l979
  2780  0012D2  0585               	decf	___flmul@temp& (0+255),w,b
  2781  0012D4  B0D8               	btfsc	status,0,c
  2782  0012D6  D00B               	goto	l979
  2783  0012D8                     u3610:
  2784                           
  2785                           ; BSR set to: 0
  2786  0012D8  0E00               	movlw	0
  2787  0012DA  6F81               	movwf	___flmul@prod& (0+255),b
  2788  0012DC  0E00               	movlw	0
  2789  0012DE  6F82               	movwf	(___flmul@prod+1)& (0+255),b
  2790  0012E0  0E00               	movlw	0
  2791  0012E2  6F83               	movwf	(___flmul@prod+2)& (0+255),b
  2792  0012E4  0E00               	movlw	0
  2793  0012E6  6F84               	movwf	(___flmul@prod+3)& (0+255),b
  2794  0012E8  0E00               	movlw	0
  2795  0012EA  6F7A               	movwf	___flmul@sign& (0+255),b
  2796  0012EC  D00F               	goto	l3847
  2797  0012EE                     l979:
  2798                           
  2799                           ; BSR set to: 0
  2800  0012EE  C085  F080         	movff	___flmul@temp,___flmul@bexp
  2801                           
  2802                           ; BSR set to: 0
  2803  0012F2  0EFF               	movlw	255
  2804  0012F4  1781               	andwf	___flmul@prod& (0+255),f,b
  2805  0012F6  0EFF               	movlw	255
  2806  0012F8  1782               	andwf	(___flmul@prod+1)& (0+255),f,b
  2807  0012FA  0E7F               	movlw	127
  2808  0012FC  1783               	andwf	(___flmul@prod+2)& (0+255),f,b
  2809  0012FE  0E00               	movlw	0
  2810  001300  1784               	andwf	(___flmul@prod+3)& (0+255),f,b
  2811                           
  2812                           ; BSR set to: 0
  2813  001302  B180               	btfsc	___flmul@bexp& (0+255),0,b
  2814                           
  2815                           ; BSR set to: 0
  2816  001304  8F83               	bsf	(___flmul@prod+2)& (0+255),7,b
  2817                           
  2818                           ; BSR set to: 0
  2819  001306  90D8               	bcf	status,0,c
  2820  001308  3180               	rrcf	___flmul@bexp& (0+255),w,b
  2821  00130A                     L1:
  2822  00130A  6F84               	movwf	(___flmul@prod+3)& (0+255),b
  2823  00130C                     l3847:
  2824                           
  2825                           ; BSR set to: 0
  2826  00130C  517A               	movf	___flmul@sign& (0+255),w,b
  2827  00130E  1384               	iorwf	(___flmul@prod+3)& (0+255),f,b
  2828                           
  2829                           ; BSR set to: 0
  2830  001310  C081  F06E         	movff	___flmul@prod,?___flmul
  2831  001314  C082  F06F         	movff	___flmul@prod+1,?___flmul+1
  2832  001318  C083  F070         	movff	___flmul@prod+2,?___flmul+2
  2833  00131C  C084  F071         	movff	___flmul@prod+3,?___flmul+3
  2834                           
  2835                           ; BSR set to: 0
  2836  001320  0012               	return		;funcret
  2837  001322                     __end_of___flmul:
  2838                           	opt callstack 0
  2839                           
  2840 ;; *************** function ___fladd *****************
  2841 ;; Defined at:
  2842 ;;		line 10 in file "C:\Program Files (x86)\Microchip\xc8\v2.05\pic\sources\c99\common\sprcadd.c"
  2843 ;; Parameters:    Size  Location     Type
  2844 ;;  b               4   39[BANK0 ] unsigned char 
  2845 ;;  a               4   43[BANK0 ] unsigned char 
  2846 ;; Auto vars:     Size  Location     Type
  2847 ;;  grs             1   54[BANK0 ] unsigned char 
  2848 ;;  bexp            1   53[BANK0 ] unsigned char 
  2849 ;;  aexp            1   52[BANK0 ] unsigned char 
  2850 ;;  signs           1   51[BANK0 ] unsigned char 
  2851 ;; Return value:  Size  Location     Type
  2852 ;;                  4   39[BANK0 ] unsigned char 
  2853 ;; Registers used:
  2854 ;;		wreg, status,2, status,0
  2855 ;; Tracked objects:
  2856 ;;		On entry : 0/0
  2857 ;;		On exit  : 0/0
  2858 ;;		Unchanged: 0/0
  2859 ;; Data sizes:     COMRAM   BANK0   BANK1   BANK2   BANK3   BANK4   BANK5   BANK6   BANK7   BANK8   BANK9  BANK10  BANK1
      +1  BANK12  BANK13  BANK14
  2860 ;;      Params:         0       8       0       0       0       0       0       0       0       0       0       0       
      +0       0       0       0
  2861 ;;      Locals:         0       4       0       0       0       0       0       0       0       0       0       0       
      +0       0       0       0
  2862 ;;      Temps:          0       4       0       0       0       0       0       0       0       0       0       0       
      +0       0       0       0
  2863 ;;      Totals:         0      16       0       0       0       0       0       0       0       0       0       0       
      +0       0       0       0
  2864 ;;Total ram usage:       16 bytes
  2865 ;; Hardware stack levels used:    1
  2866 ;; Hardware stack levels required when called:    2
  2867 ;; This function calls:
  2868 ;;		Nothing
  2869 ;; This function is called by:
  2870 ;;		_fijarVelocidad
  2871 ;; This function uses a non-reentrant model
  2872 ;;
  2873                           
  2874                           	psect	text8
  2875  001322                     __ptext8:
  2876                           	opt callstack 0
  2877  001322                     ___fladd:
  2878                           	opt callstack 26
  2879                           
  2880                           ; BSR set to: 0
  2881                           ;incstack = 0
  2882  001322  0100               	movlb	0	; () banked
  2883  001324  518A               	movf	(___fladd@b+3)& (0+255),w,b
  2884  001326  0B80               	andlw	128
  2885  001328  6F93               	movwf	___fladd@signs& (0+255),b
  2886  00132A  518A               	movf	(___fladd@b+3)& (0+255),w,b
  2887  00132C  258A               	addwf	(___fladd@b+3)& (0+255),w,b
  2888  00132E  6F95               	movwf	___fladd@bexp& (0+255),b
  2889                           
  2890                           ; BSR set to: 0
  2891  001330  BF89               	btfsc	(___fladd@b+2)& (0+255),7,b
  2892                           
  2893                           ; BSR set to: 0
  2894  001332  8195               	bsf	___fladd@bexp& (0+255),0,b
  2895                           
  2896                           ; BSR set to: 0
  2897  001334  5195               	movf	___fladd@bexp& (0+255),w,b
  2898  001336  B4D8               	btfsc	status,2,c
  2899  001338  D00D               	goto	l2381
  2900                           
  2901                           ; BSR set to: 0
  2902  00133A  2995               	incf	___fladd@bexp& (0+255),w,b
  2903  00133C  A4D8               	btfss	status,2,c
  2904  00133E  D008               	goto	l2377
  2905                           
  2906                           ; BSR set to: 0
  2907  001340  0E00               	movlw	0
  2908  001342  6F87               	movwf	___fladd@b& (0+255),b
  2909  001344  0E00               	movlw	0
  2910  001346  6F88               	movwf	(___fladd@b+1)& (0+255),b
  2911  001348  0E00               	movlw	0
  2912  00134A  6F89               	movwf	(___fladd@b+2)& (0+255),b
  2913  00134C  0E00               	movlw	0
  2914  00134E  6F8A               	movwf	(___fladd@b+3)& (0+255),b
  2915  001350                     l2377:
  2916                           
  2917                           ; BSR set to: 0
  2918  001350  8F89               	bsf	(___fladd@b+2)& (0+255),7,b
  2919  001352  D006               	goto	L2
  2920  001354                     l2381:
  2921                           
  2922                           ; BSR set to: 0
  2923  001354  0E00               	movlw	0
  2924  001356  6F87               	movwf	___fladd@b& (0+255),b
  2925  001358  0E00               	movlw	0
  2926  00135A  6F88               	movwf	(___fladd@b+1)& (0+255),b
  2927  00135C  0E00               	movlw	0
  2928  00135E  6F89               	movwf	(___fladd@b+2)& (0+255),b
  2929  001360                     L2:
  2930  001360  0E00               	movlw	0
  2931  001362  6F8A               	movwf	(___fladd@b+3)& (0+255),b
  2932                           
  2933                           ; BSR set to: 0
  2934  001364  518E               	movf	(___fladd@a+3)& (0+255),w,b
  2935  001366  0B80               	andlw	128
  2936  001368  6F94               	movwf	___fladd@aexp& (0+255),b
  2937                           
  2938                           ; BSR set to: 0
  2939  00136A  5193               	movf	___fladd@signs& (0+255),w,b
  2940  00136C  1994               	xorwf	___fladd@aexp& (0+255),w,b
  2941  00136E  A4D8               	btfss	status,2,c
  2942                           
  2943                           ; BSR set to: 0
  2944  001370  8D93               	bsf	___fladd@signs& (0+255),6,b
  2945                           
  2946                           ; BSR set to: 0
  2947  001372  518E               	movf	(___fladd@a+3)& (0+255),w,b
  2948  001374  258E               	addwf	(___fladd@a+3)& (0+255),w,b
  2949  001376  6F94               	movwf	___fladd@aexp& (0+255),b
  2950                           
  2951                           ; BSR set to: 0
  2952  001378  BF8D               	btfsc	(___fladd@a+2)& (0+255),7,b
  2953                           
  2954                           ; BSR set to: 0
  2955  00137A  8194               	bsf	___fladd@aexp& (0+255),0,b
  2956                           
  2957                           ; BSR set to: 0
  2958  00137C  5194               	movf	___fladd@aexp& (0+255),w,b
  2959  00137E  B4D8               	btfsc	status,2,c
  2960  001380  D00D               	goto	l2405
  2961                           
  2962                           ; BSR set to: 0
  2963  001382  2994               	incf	___fladd@aexp& (0+255),w,b
  2964  001384  A4D8               	btfss	status,2,c
  2965  001386  D008               	goto	l2401
  2966                           
  2967                           ; BSR set to: 0
  2968  001388  0E00               	movlw	0
  2969  00138A  6F8B               	movwf	___fladd@a& (0+255),b
  2970  00138C  0E00               	movlw	0
  2971  00138E  6F8C               	movwf	(___fladd@a+1)& (0+255),b
  2972  001390  0E00               	movlw	0
  2973  001392  6F8D               	movwf	(___fladd@a+2)& (0+255),b
  2974  001394  0E00               	movlw	0
  2975  001396  6F8E               	movwf	(___fladd@a+3)& (0+255),b
  2976  001398                     l2401:
  2977                           
  2978                           ; BSR set to: 0
  2979  001398  8F8D               	bsf	(___fladd@a+2)& (0+255),7,b
  2980  00139A  D006               	goto	L3
  2981  00139C                     l2405:
  2982                           
  2983                           ; BSR set to: 0
  2984  00139C  0E00               	movlw	0
  2985  00139E  6F8B               	movwf	___fladd@a& (0+255),b
  2986  0013A0  0E00               	movlw	0
  2987  0013A2  6F8C               	movwf	(___fladd@a+1)& (0+255),b
  2988  0013A4  0E00               	movlw	0
  2989  0013A6  6F8D               	movwf	(___fladd@a+2)& (0+255),b
  2990  0013A8                     L3:
  2991  0013A8  0E00               	movlw	0
  2992  0013AA  6F8E               	movwf	(___fladd@a+3)& (0+255),b
  2993                           
  2994                           ; BSR set to: 0
  2995  0013AC  5195               	movf	___fladd@bexp& (0+255),w,b
  2996  0013AE  5D94               	subwf	___fladd@aexp& (0+255),w,b
  2997  0013B0  B0D8               	btfsc	status,0,c
  2998  0013B2  D022               	goto	l2443
  2999                           
  3000                           ; BSR set to: 0
  3001  0013B4  AD93               	btfss	___fladd@signs& (0+255),6,b
  3002  0013B6  D002               	goto	l2413
  3003                           
  3004                           ; BSR set to: 0
  3005  0013B8  0E80               	movlw	128
  3006  0013BA  1B93               	xorwf	___fladd@signs& (0+255),f,b
  3007  0013BC                     l2413:
  3008                           
  3009                           ; BSR set to: 0
  3010  0013BC  C095  F096         	movff	___fladd@bexp,___fladd@grs
  3011                           
  3012                           ; BSR set to: 0
  3013  0013C0  C094  F095         	movff	___fladd@aexp,___fladd@bexp
  3014                           
  3015                           ; BSR set to: 0
  3016  0013C4  C096  F094         	movff	___fladd@grs,___fladd@aexp
  3017                           
  3018                           ; BSR set to: 0
  3019  0013C8  C087  F096         	movff	___fladd@b,___fladd@grs
  3020                           
  3021                           ; BSR set to: 0
  3022  0013CC  C08B  F087         	movff	___fladd@a,___fladd@b
  3023                           
  3024                           ; BSR set to: 0
  3025  0013D0  C096  F08B         	movff	___fladd@grs,___fladd@a
  3026                           
  3027                           ; BSR set to: 0
  3028  0013D4  C088  F096         	movff	___fladd@b+1,___fladd@grs
  3029                           
  3030                           ; BSR set to: 0
  3031  0013D8  C08C  F088         	movff	___fladd@a+1,___fladd@b+1
  3032                           
  3033                           ; BSR set to: 0
  3034  0013DC  C096  F08C         	movff	___fladd@grs,___fladd@a+1
  3035                           
  3036                           ; BSR set to: 0
  3037  0013E0  C089  F096         	movff	___fladd@b+2,___fladd@grs
  3038                           
  3039                           ; BSR set to: 0
  3040  0013E4  C08D  F089         	movff	___fladd@a+2,___fladd@b+2
  3041                           
  3042                           ; BSR set to: 0
  3043  0013E8  C096  F08D         	movff	___fladd@grs,___fladd@a+2
  3044                           
  3045                           ; BSR set to: 0
  3046  0013EC  C08A  F096         	movff	___fladd@b+3,___fladd@grs
  3047                           
  3048                           ; BSR set to: 0
  3049  0013F0  C08E  F08A         	movff	___fladd@a+3,___fladd@b+3
  3050                           
  3051                           ; BSR set to: 0
  3052  0013F4  C096  F08E         	movff	___fladd@grs,___fladd@a+3
  3053  0013F8                     l2443:
  3054                           
  3055                           ; BSR set to: 0
  3056  0013F8  0E00               	movlw	0
  3057  0013FA  6F96               	movwf	___fladd@grs& (0+255),b
  3058                           
  3059                           ; BSR set to: 0
  3060  0013FC  5195               	movf	___fladd@bexp& (0+255),w,b
  3061  0013FE  C094  F08F         	movff	___fladd@aexp,??___fladd
  3062  001402  6B90               	clrf	(??___fladd+1)& (0+255),b
  3063  001404  5F8F               	subwf	??___fladd& (0+255),f,b
  3064  001406  0E00               	movlw	0
  3065  001408  5B90               	subwfb	(??___fladd+1)& (0+255),f,b
  3066  00140A  BF90               	btfsc	(??___fladd+1)& (0+255),7,b
  3067  00140C  D02C               	goto	l877
  3068  00140E  5190               	movf	(??___fladd+1)& (0+255),w,b
  3069  001410  E104               	bnz	u1820
  3070  001412  0E1A               	movlw	26
  3071  001414  5D8F               	subwf	??___fladd& (0+255),w,b
  3072  001416  A0D8               	btfss	status,0,c
  3073  001418  D026               	goto	l877
  3074  00141A                     u1820:
  3075                           
  3076                           ; BSR set to: 0
  3077  00141A  5187               	movf	___fladd@b& (0+255),w,b
  3078  00141C  1188               	iorwf	(___fladd@b+1)& (0+255),w,b
  3079  00141E  1189               	iorwf	(___fladd@b+2)& (0+255),w,b
  3080  001420  118A               	iorwf	(___fladd@b+3)& (0+255),w,b
  3081  001422  B4D8               	btfsc	status,2,c
  3082  001424  D002               	goto	u1830
  3083  001426  0E01               	movlw	1
  3084  001428  D001               	goto	u1840
  3085  00142A                     u1830:
  3086  00142A  0E00               	movlw	0
  3087  00142C                     u1840:
  3088  00142C  6F96               	movwf	___fladd@grs& (0+255),b
  3089                           
  3090                           ; BSR set to: 0
  3091  00142E  0E00               	movlw	0
  3092  001430  6F87               	movwf	___fladd@b& (0+255),b
  3093  001432  0E00               	movlw	0
  3094  001434  6F88               	movwf	(___fladd@b+1)& (0+255),b
  3095  001436  0E00               	movlw	0
  3096  001438  6F89               	movwf	(___fladd@b+2)& (0+255),b
  3097  00143A  0E00               	movlw	0
  3098  00143C  6F8A               	movwf	(___fladd@b+3)& (0+255),b
  3099                           
  3100                           ; BSR set to: 0
  3101  00143E  C094  F095         	movff	___fladd@aexp,___fladd@bexp
  3102  001442  D015               	goto	u1870
  3103  001444                     l878:
  3104                           
  3105                           ; BSR set to: 0
  3106  001444  A196               	btfss	___fladd@grs& (0+255),0,b
  3107  001446  D005               	goto	l2455
  3108                           
  3109                           ; BSR set to: 0
  3110  001448  90D8               	bcf	status,0,c
  3111  00144A  3196               	rrcf	___fladd@grs& (0+255),w,b
  3112  00144C  0901               	iorlw	1
  3113  00144E  6F96               	movwf	___fladd@grs& (0+255),b
  3114  001450  D002               	goto	l2457
  3115  001452                     l2455:
  3116                           
  3117                           ; BSR set to: 0
  3118  001452  90D8               	bcf	status,0,c
  3119  001454  3396               	rrcf	___fladd@grs& (0+255),f,b
  3120  001456                     l2457:
  3121                           
  3122                           ; BSR set to: 0
  3123  001456  B187               	btfsc	___fladd@b& (0+255),0,b
  3124                           
  3125                           ; BSR set to: 0
  3126  001458  8F96               	bsf	___fladd@grs& (0+255),7,b
  3127                           
  3128                           ; BSR set to: 0
  3129  00145A  358A               	rlcf	(___fladd@b+3)& (0+255),w,b
  3130  00145C  338A               	rrcf	(___fladd@b+3)& (0+255),f,b
  3131  00145E  3389               	rrcf	(___fladd@b+2)& (0+255),f,b
  3132  001460  3388               	rrcf	(___fladd@b+1)& (0+255),f,b
  3133  001462  3387               	rrcf	___fladd@b& (0+255),f,b
  3134                           
  3135                           ; BSR set to: 0
  3136  001464  2B95               	incf	___fladd@bexp& (0+255),f,b
  3137  001466                     l877:
  3138                           
  3139                           ; BSR set to: 0
  3140  001466  5194               	movf	___fladd@aexp& (0+255),w,b
  3141  001468  5D95               	subwf	___fladd@bexp& (0+255),w,b
  3142  00146A  A0D8               	btfss	status,0,c
  3143  00146C  D7EB               	goto	l878
  3144  00146E                     u1870:
  3145                           
  3146                           ; BSR set to: 0
  3147  00146E  BD93               	btfsc	___fladd@signs& (0+255),6,b
  3148  001470  D028               	goto	l2489
  3149                           
  3150                           ; BSR set to: 0
  3151  001472  5195               	movf	___fladd@bexp& (0+255),w,b
  3152  001474  A4D8               	btfss	status,2,c
  3153  001476  D009               	goto	l2471
  3154                           
  3155                           ; BSR set to: 0
  3156  001478  0E00               	movlw	0
  3157  00147A  6F87               	movwf	?___fladd& (0+255),b
  3158  00147C  0E00               	movlw	0
  3159  00147E  6F88               	movwf	(?___fladd+1)& (0+255),b
  3160  001480  0E00               	movlw	0
  3161  001482  6F89               	movwf	(?___fladd+2)& (0+255),b
  3162  001484  0E00               	movlw	0
  3163  001486  6F8A               	movwf	(?___fladd+3)& (0+255),b
  3164  001488  0012               	return	
  3165  00148A                     l2471:
  3166                           
  3167                           ; BSR set to: 0
  3168  00148A  518B               	movf	___fladd@a& (0+255),w,b
  3169  00148C  2787               	addwf	___fladd@b& (0+255),f,b
  3170  00148E  518C               	movf	(___fladd@a+1)& (0+255),w,b
  3171  001490  2388               	addwfc	(___fladd@b+1)& (0+255),f,b
  3172  001492  518D               	movf	(___fladd@a+2)& (0+255),w,b
  3173  001494  2389               	addwfc	(___fladd@b+2)& (0+255),f,b
  3174  001496  518E               	movf	(___fladd@a+3)& (0+255),w,b
  3175  001498  238A               	addwfc	(___fladd@b+3)& (0+255),f,b
  3176                           
  3177                           ; BSR set to: 0
  3178  00149A  A18A               	btfss	(___fladd@b+3)& (0+255),0,b
  3179  00149C  D071               	goto	u2000
  3180                           
  3181                           ; BSR set to: 0
  3182  00149E  A196               	btfss	___fladd@grs& (0+255),0,b
  3183  0014A0  D005               	goto	l2479
  3184                           
  3185                           ; BSR set to: 0
  3186  0014A2  90D8               	bcf	status,0,c
  3187  0014A4  3196               	rrcf	___fladd@grs& (0+255),w,b
  3188  0014A6  0901               	iorlw	1
  3189  0014A8  6F96               	movwf	___fladd@grs& (0+255),b
  3190  0014AA  D002               	goto	l2481
  3191  0014AC                     l2479:
  3192                           
  3193                           ; BSR set to: 0
  3194  0014AC  90D8               	bcf	status,0,c
  3195  0014AE  3396               	rrcf	___fladd@grs& (0+255),f,b
  3196  0014B0                     l2481:
  3197                           
  3198                           ; BSR set to: 0
  3199  0014B0  B187               	btfsc	___fladd@b& (0+255),0,b
  3200                           
  3201                           ; BSR set to: 0
  3202  0014B2  8F96               	bsf	___fladd@grs& (0+255),7,b
  3203                           
  3204                           ; BSR set to: 0
  3205  0014B4  358A               	rlcf	(___fladd@b+3)& (0+255),w,b
  3206  0014B6  338A               	rrcf	(___fladd@b+3)& (0+255),f,b
  3207  0014B8  3389               	rrcf	(___fladd@b+2)& (0+255),f,b
  3208  0014BA  3388               	rrcf	(___fladd@b+1)& (0+255),f,b
  3209  0014BC  3387               	rrcf	___fladd@b& (0+255),f,b
  3210                           
  3211                           ; BSR set to: 0
  3212  0014BE  2B95               	incf	___fladd@bexp& (0+255),f,b
  3213  0014C0  D05F               	goto	u2000
  3214  0014C2                     l2489:
  3215                           
  3216                           ; BSR set to: 0
  3217  0014C2  518B               	movf	___fladd@a& (0+255),w,b
  3218  0014C4  5D87               	subwf	___fladd@b& (0+255),w,b
  3219  0014C6  518C               	movf	(___fladd@a+1)& (0+255),w,b
  3220  0014C8  5988               	subwfb	(___fladd@b+1)& (0+255),w,b
  3221  0014CA  518D               	movf	(___fladd@a+2)& (0+255),w,b
  3222  0014CC  5989               	subwfb	(___fladd@b+2)& (0+255),w,b
  3223  0014CE  518A               	movf	(___fladd@b+3)& (0+255),w,b
  3224  0014D0  0A80               	xorlw	128
  3225  0014D2  6F8F               	movwf	??___fladd& (0+255),b
  3226  0014D4  518E               	movf	(___fladd@a+3)& (0+255),w,b
  3227  0014D6  0A80               	xorlw	128
  3228  0014D8  598F               	subwfb	??___fladd& (0+255),w,b
  3229  0014DA  B0D8               	btfsc	status,0,c
  3230  0014DC  D025               	goto	l2499
  3231                           
  3232                           ; BSR set to: 0
  3233  0014DE  5187               	movf	___fladd@b& (0+255),w,b
  3234  0014E0  5D8B               	subwf	___fladd@a& (0+255),w,b
  3235  0014E2  6F8F               	movwf	??___fladd& (0+255),b
  3236  0014E4  5188               	movf	(___fladd@b+1)& (0+255),w,b
  3237  0014E6  598C               	subwfb	(___fladd@a+1)& (0+255),w,b
  3238  0014E8  6F90               	movwf	(??___fladd+1)& (0+255),b
  3239  0014EA  5189               	movf	(___fladd@b+2)& (0+255),w,b
  3240  0014EC  598D               	subwfb	(___fladd@a+2)& (0+255),w,b
  3241  0014EE  6F91               	movwf	(??___fladd+2)& (0+255),b
  3242  0014F0  518A               	movf	(___fladd@b+3)& (0+255),w,b
  3243  0014F2  598E               	subwfb	(___fladd@a+3)& (0+255),w,b
  3244  0014F4  6F92               	movwf	(??___fladd+3)& (0+255),b
  3245  0014F6  0EFF               	movlw	255
  3246  0014F8  258F               	addwf	??___fladd& (0+255),w,b
  3247  0014FA  6F87               	movwf	___fladd@b& (0+255),b
  3248  0014FC  0EFF               	movlw	255
  3249  0014FE  2190               	addwfc	(??___fladd+1)& (0+255),w,b
  3250  001500  6F88               	movwf	(___fladd@b+1)& (0+255),b
  3251  001502  0EFF               	movlw	255
  3252  001504  2191               	addwfc	(??___fladd+2)& (0+255),w,b
  3253  001506  6F89               	movwf	(___fladd@b+2)& (0+255),b
  3254  001508  0EFF               	movlw	255
  3255  00150A  2192               	addwfc	(??___fladd+3)& (0+255),w,b
  3256  00150C  6F8A               	movwf	(___fladd@b+3)& (0+255),b
  3257  00150E  0E80               	movlw	128
  3258  001510  1B93               	xorwf	___fladd@signs& (0+255),f,b
  3259                           
  3260                           ; BSR set to: 0
  3261  001512  6D96               	negf	___fladd@grs& (0+255),b
  3262                           
  3263                           ; BSR set to: 0
  3264  001514  5196               	movf	___fladd@grs& (0+255),w,b
  3265  001516  A4D8               	btfss	status,2,c
  3266  001518  D00F               	goto	l893
  3267                           
  3268                           ; BSR set to: 0
  3269  00151A  0E01               	movlw	1
  3270  00151C  2787               	addwf	___fladd@b& (0+255),f,b
  3271  00151E  0E00               	movlw	0
  3272  001520  2388               	addwfc	(___fladd@b+1)& (0+255),f,b
  3273  001522  2389               	addwfc	(___fladd@b+2)& (0+255),f,b
  3274  001524  238A               	addwfc	(___fladd@b+3)& (0+255),f,b
  3275  001526  D008               	goto	l893
  3276  001528                     l2499:
  3277                           
  3278                           ; BSR set to: 0
  3279  001528  518B               	movf	___fladd@a& (0+255),w,b
  3280  00152A  5F87               	subwf	___fladd@b& (0+255),f,b
  3281  00152C  518C               	movf	(___fladd@a+1)& (0+255),w,b
  3282  00152E  5B88               	subwfb	(___fladd@b+1)& (0+255),f,b
  3283  001530  518D               	movf	(___fladd@a+2)& (0+255),w,b
  3284  001532  5B89               	subwfb	(___fladd@b+2)& (0+255),f,b
  3285  001534  518E               	movf	(___fladd@a+3)& (0+255),w,b
  3286  001536  5B8A               	subwfb	(___fladd@b+3)& (0+255),f,b
  3287  001538                     l893:
  3288                           
  3289                           ; BSR set to: 0
  3290  001538  5187               	movf	___fladd@b& (0+255),w,b
  3291  00153A  1188               	iorwf	(___fladd@b+1)& (0+255),w,b
  3292  00153C  1189               	iorwf	(___fladd@b+2)& (0+255),w,b
  3293  00153E  118A               	iorwf	(___fladd@b+3)& (0+255),w,b
  3294  001540  A4D8               	btfss	status,2,c
  3295  001542  D01C               	goto	l2523
  3296                           
  3297                           ; BSR set to: 0
  3298  001544  5196               	movf	___fladd@grs& (0+255),w,b
  3299  001546  A4D8               	btfss	status,2,c
  3300  001548  D019               	goto	l2523
  3301                           
  3302                           ; BSR set to: 0
  3303  00154A  0E00               	movlw	0
  3304  00154C  6F87               	movwf	?___fladd& (0+255),b
  3305  00154E  0E00               	movlw	0
  3306  001550  6F88               	movwf	(?___fladd+1)& (0+255),b
  3307  001552  0E00               	movlw	0
  3308  001554  6F89               	movwf	(?___fladd+2)& (0+255),b
  3309  001556  0E00               	movlw	0
  3310  001558  6F8A               	movwf	(?___fladd+3)& (0+255),b
  3311  00155A  0012               	return	
  3312  00155C                     l2507:
  3313                           
  3314                           ; BSR set to: 0
  3315  00155C  90D8               	bcf	status,0,c
  3316  00155E  3787               	rlcf	___fladd@b& (0+255),f,b
  3317  001560  3788               	rlcf	(___fladd@b+1)& (0+255),f,b
  3318  001562  3789               	rlcf	(___fladd@b+2)& (0+255),f,b
  3319  001564  378A               	rlcf	(___fladd@b+3)& (0+255),f,b
  3320                           
  3321                           ; BSR set to: 0
  3322  001566  BF96               	btfsc	___fladd@grs& (0+255),7,b
  3323                           
  3324                           ; BSR set to: 0
  3325  001568  8187               	bsf	___fladd@b& (0+255),0,b
  3326                           
  3327                           ; BSR set to: 0
  3328  00156A  A196               	btfss	___fladd@grs& (0+255),0,b
  3329  00156C  D002               	goto	l2517
  3330                           
  3331                           ; BSR set to: 0
  3332  00156E  80D8               	bsf	status,0,c
  3333  001570  D001               	goto	L4
  3334  001572                     l2517:
  3335                           
  3336                           ; BSR set to: 0
  3337  001572  90D8               	bcf	status,0,c
  3338  001574                     L4:
  3339  001574  3796               	rlcf	___fladd@grs& (0+255),f,b
  3340                           
  3341                           ; BSR set to: 0
  3342  001576  5195               	movf	___fladd@bexp& (0+255),w,b
  3343  001578  A4D8               	btfss	status,2,c
  3344                           
  3345                           ; BSR set to: 0
  3346  00157A  0795               	decf	___fladd@bexp& (0+255),f,b
  3347  00157C                     l2523:
  3348                           
  3349                           ; BSR set to: 0
  3350  00157C  AF89               	btfss	(___fladd@b+2)& (0+255),7,b
  3351  00157E  D7EE               	goto	l2507
  3352  001580                     u2000:
  3353                           
  3354                           ; BSR set to: 0
  3355  001580  0E00               	movlw	0
  3356  001582  6F94               	movwf	___fladd@aexp& (0+255),b
  3357                           
  3358                           ; BSR set to: 0
  3359  001584  AF96               	btfss	___fladd@grs& (0+255),7,b
  3360  001586  D00B               	goto	l902
  3361                           
  3362                           ; BSR set to: 0
  3363  001588  C096  F08F         	movff	___fladd@grs,??___fladd
  3364  00158C  0E7F               	movlw	127
  3365  00158E  178F               	andwf	??___fladd& (0+255),f,b
  3366  001590  B4D8               	btfsc	status,2,c
  3367  001592  D003               	goto	l903
  3368  001594                     u2020:
  3369                           
  3370                           ; BSR set to: 0
  3371  001594  0E01               	movlw	1
  3372  001596  6F94               	movwf	___fladd@aexp& (0+255),b
  3373  001598  D002               	goto	l902
  3374  00159A                     l903:
  3375                           
  3376                           ; BSR set to: 0
  3377  00159A  B187               	btfsc	___fladd@b& (0+255),0,b
  3378  00159C  D7FB               	goto	u2020
  3379  00159E                     l902:
  3380                           
  3381                           ; BSR set to: 0
  3382  00159E  5194               	movf	___fladd@aexp& (0+255),w,b
  3383  0015A0  B4D8               	btfsc	status,2,c
  3384  0015A2  D020               	goto	l2543
  3385                           
  3386                           ; BSR set to: 0
  3387  0015A4  0E01               	movlw	1
  3388  0015A6  2787               	addwf	___fladd@b& (0+255),f,b
  3389  0015A8  0E00               	movlw	0
  3390  0015AA  2388               	addwfc	(___fladd@b+1)& (0+255),f,b
  3391  0015AC  2389               	addwfc	(___fladd@b+2)& (0+255),f,b
  3392  0015AE  238A               	addwfc	(___fladd@b+3)& (0+255),f,b
  3393                           
  3394                           ; BSR set to: 0
  3395  0015B0  A18A               	btfss	(___fladd@b+3)& (0+255),0,b
  3396  0015B2  D018               	goto	l2543
  3397                           
  3398                           ; BSR set to: 0
  3399  0015B4  C087  F08F         	movff	___fladd@b,??___fladd
  3400  0015B8  C088  F090         	movff	___fladd@b+1,??___fladd+1
  3401  0015BC  C089  F091         	movff	___fladd@b+2,??___fladd+2
  3402  0015C0  C08A  F092         	movff	___fladd@b+3,??___fladd+3
  3403  0015C4  3592               	rlcf	(??___fladd+3)& (0+255),w,b
  3404  0015C6  3392               	rrcf	(??___fladd+3)& (0+255),f,b
  3405  0015C8  3391               	rrcf	(??___fladd+2)& (0+255),f,b
  3406  0015CA  3390               	rrcf	(??___fladd+1)& (0+255),f,b
  3407  0015CC  338F               	rrcf	??___fladd& (0+255),f,b
  3408  0015CE  C08F  F087         	movff	??___fladd,___fladd@b
  3409  0015D2  C090  F088         	movff	??___fladd+1,___fladd@b+1
  3410  0015D6  C091  F089         	movff	??___fladd+2,___fladd@b+2
  3411  0015DA  C092  F08A         	movff	??___fladd+3,___fladd@b+3
  3412  0015DE  2995               	incf	___fladd@bexp& (0+255),w,b
  3413  0015E0  A4D8               	btfss	status,2,c
  3414                           
  3415                           ; BSR set to: 0
  3416  0015E2  2B95               	incf	___fladd@bexp& (0+255),f,b
  3417  0015E4                     l2543:
  3418                           
  3419                           ; BSR set to: 0
  3420  0015E4  2995               	incf	___fladd@bexp& (0+255),w,b
  3421  0015E6  B4D8               	btfsc	status,2,c
  3422  0015E8  D003               	goto	u2080
  3423                           
  3424                           ; BSR set to: 0
  3425  0015EA  5195               	movf	___fladd@bexp& (0+255),w,b
  3426  0015EC  A4D8               	btfss	status,2,c
  3427  0015EE  D00D               	goto	l2551
  3428  0015F0                     u2080:
  3429                           
  3430                           ; BSR set to: 0
  3431  0015F0  0E00               	movlw	0
  3432  0015F2  6F87               	movwf	___fladd@b& (0+255),b
  3433  0015F4  0E00               	movlw	0
  3434  0015F6  6F88               	movwf	(___fladd@b+1)& (0+255),b
  3435  0015F8  0E00               	movlw	0
  3436  0015FA  6F89               	movwf	(___fladd@b+2)& (0+255),b
  3437  0015FC  0E00               	movlw	0
  3438  0015FE  6F8A               	movwf	(___fladd@b+3)& (0+255),b
  3439  001600  5195               	movf	___fladd@bexp& (0+255),w,b
  3440  001602  A4D8               	btfss	status,2,c
  3441  001604  D002               	goto	l2551
  3442                           
  3443                           ; BSR set to: 0
  3444  001606  0E00               	movlw	0
  3445  001608  6F93               	movwf	___fladd@signs& (0+255),b
  3446  00160A                     l2551:
  3447                           
  3448                           ; BSR set to: 0
  3449  00160A  A195               	btfss	___fladd@bexp& (0+255),0,b
  3450  00160C  D002               	goto	l2555
  3451                           
  3452                           ; BSR set to: 0
  3453  00160E  8F89               	bsf	(___fladd@b+2)& (0+255),7,b
  3454  001610  D001               	goto	l2557
  3455  001612                     l2555:
  3456                           
  3457                           ; BSR set to: 0
  3458  001612  9F89               	bcf	(___fladd@b+2)& (0+255),7,b
  3459  001614                     l2557:
  3460                           
  3461                           ; BSR set to: 0
  3462  001614  90D8               	bcf	status,0,c
  3463  001616  3195               	rrcf	___fladd@bexp& (0+255),w,b
  3464  001618  6F8A               	movwf	(___fladd@b+3)& (0+255),b
  3465                           
  3466                           ; BSR set to: 0
  3467  00161A  BF93               	btfsc	___fladd@signs& (0+255),7,b
  3468                           
  3469                           ; BSR set to: 0
  3470  00161C  8F8A               	bsf	(___fladd@b+3)& (0+255),7,b
  3471                           
  3472                           ; BSR set to: 0
  3473  00161E  C087  F087         	movff	___fladd@b,?___fladd
  3474  001622  C088  F088         	movff	___fladd@b+1,?___fladd+1
  3475  001626  C089  F089         	movff	___fladd@b+2,?___fladd+2
  3476  00162A  C08A  F08A         	movff	___fladd@b+3,?___fladd+3
  3477                           
  3478                           ; BSR set to: 0
  3479  00162E  0012               	return		;funcret
  3480  001630                     __end_of___fladd:
  3481                           	opt callstack 0
  3482                           
  3483 ;; *************** function _enviarRS232 *****************
  3484 ;; Defined at:
  3485 ;;		line 55 in file "./../LIBRERIAS/funciones_auto.h"
  3486 ;; Parameters:    Size  Location     Type
  3487 ;;  valores         2    8[BANK0 ] PTR unsigned char 
  3488 ;;		 -> STR_10(7), STR_9(27), STR_8(21), STR_7(20), 
  3489 ;;		 -> STR_6(23), STR_5(22), STR_4(29), STR_3(21), 
  3490 ;;		 -> STR_2(24), STR_1(9), 
  3491 ;; Auto vars:     Size  Location     Type
  3492 ;;  i               1   14[BANK0 ] unsigned char 
  3493 ;;  longitud_tex    2   12[BANK0 ] unsigned int 
  3494 ;; Return value:  Size  Location     Type
  3495 ;;                  1    wreg      void 
  3496 ;; Registers used:
  3497 ;;		wreg, status,2, status,0, tblptrl, tblptrh, tblptru, cstack
  3498 ;; Tracked objects:
  3499 ;;		On entry : 0/0
  3500 ;;		On exit  : 0/0
  3501 ;;		Unchanged: 0/0
  3502 ;; Data sizes:     COMRAM   BANK0   BANK1   BANK2   BANK3   BANK4   BANK5   BANK6   BANK7   BANK8   BANK9  BANK10  BANK1
      +1  BANK12  BANK13  BANK14
  3503 ;;      Params:         0       2       0       0       0       0       0       0       0       0       0       0       
      +0       0       0       0
  3504 ;;      Locals:         0       3       0       0       0       0       0       0       0       0       0       0       
      +0       0       0       0
  3505 ;;      Temps:          0       2       0       0       0       0       0       0       0       0       0       0       
      +0       0       0       0
  3506 ;;      Totals:         0       7       0       0       0       0       0       0       0       0       0       0       
      +0       0       0       0
  3507 ;;Total ram usage:        7 bytes
  3508 ;; Hardware stack levels used:    1
  3509 ;; Hardware stack levels required when called:    3
  3510 ;; This function calls:
  3511 ;;		_length
  3512 ;; This function is called by:
  3513 ;;		_main
  3514 ;;		_terminal
  3515 ;;		_rutinaEscape
  3516 ;; This function uses a non-reentrant model
  3517 ;;
  3518                           
  3519                           	psect	text9
  3520  0023EE                     __ptext9:
  3521                           	opt callstack 0
  3522  0023EE                     _enviarRS232:
  3523                           	opt callstack 26
  3524                           
  3525                           ;./../LIBRERIAS/funciones_auto.h: 56:     unsigned int longitud_texto = length(valores);
  3526                           
  3527                           ; BSR set to: 0
  3528                           ;incstack = 0
  3529  0023EE  C068  F060         	movff	enviarRS232@valores,length@text
  3530  0023F2  C069  F061         	movff	enviarRS232@valores+1,length@text+1
  3531  0023F6  EC5A  F012         	call	_length	;wreg free
  3532  0023FA  C060  F06C         	movff	?_length,enviarRS232@longitud_texto
  3533  0023FE  C061  F06D         	movff	?_length+1,enviarRS232@longitud_texto+1
  3534                           
  3535                           ;./../LIBRERIAS/funciones_auto.h: 57:     for(unsigned char i = 0; i<longitud_texto; i++
      +                          ){
  3536  002402  0E00               	movlw	0
  3537  002404  0100               	movlb	0	; () banked
  3538  002406  6F6E               	movwf	enviarRS232@i& (0+255),b
  3539  002408  D01A               	goto	l3995
  3540  00240A                     l3989:
  3541                           
  3542                           ; BSR set to: 0
  3543                           ;./../LIBRERIAS/funciones_auto.h: 58:         TXREG1 = valores[i];
  3544  00240A  516E               	movf	enviarRS232@i& (0+255),w,b
  3545  00240C  2568               	addwf	enviarRS232@valores& (0+255),w,b
  3546  00240E  6F6A               	movwf	??_enviarRS232& (0+255),b
  3547  002410  0E00               	movlw	0
  3548  002412  2169               	addwfc	(enviarRS232@valores+1)& (0+255),w,b
  3549  002414  6F6B               	movwf	(??_enviarRS232+1)& (0+255),b
  3550  002416  C06A  FFF6         	movff	??_enviarRS232,tblptrl
  3551  00241A  C06B  FFF7         	movff	??_enviarRS232+1,tblptrh
  3552  00241E                     	if	0	;tblptru may be non-zero
  3553  00241E                     	endif
  3554  00241E                     	if	1	;Program memory is > 0xFFFF, there are 3 active tblptr bytes
  3555  00241E  0E00               	movlw	low (__mediumconst shr (0+16))
  3556  002420  6EF8               	movwf	tblptru,c
  3557  002422                     	endif
  3558  002422  0008               	tblrd		*
  3559  002424  CFF5 FFAE          	movff	tablat,4014	;volatile
  3560                           
  3561                           ; BSR set to: 0
  3562                           ;./../LIBRERIAS/funciones_auto.h: 59:         _delay((unsigned long)((3)*(48000000/4000.
      +                          0)));
  3563  002428  0E2F               	movlw	47
  3564  00242A  0100               	movlb	0	; () banked
  3565  00242C  6F6A               	movwf	??_enviarRS232& (0+255),b
  3566  00242E  0EBF               	movlw	191
  3567  002430                     u4017:
  3568  002430  2EE8               	decfsz	wreg,f,c
  3569  002432  D7FE               	bra	u4017
  3570  002434  2F6A               	decfsz	??_enviarRS232& (0+255),f,b
  3571  002436  D7FC               	bra	u4017
  3572  002438  D000               	nop2	
  3573                           
  3574                           ;./../LIBRERIAS/funciones_auto.h: 60:     }
  3575  00243A  0100               	movlb	0	; () banked
  3576  00243C  2B6E               	incf	enviarRS232@i& (0+255),f,b
  3577  00243E                     l3995:
  3578                           
  3579                           ; BSR set to: 0
  3580  00243E  516E               	movf	enviarRS232@i& (0+255),w,b
  3581  002440  6F6A               	movwf	??_enviarRS232& (0+255),b
  3582  002442  6B6B               	clrf	(??_enviarRS232+1)& (0+255),b
  3583  002444  516C               	movf	enviarRS232@longitud_texto& (0+255),w,b
  3584  002446  5D6A               	subwf	??_enviarRS232& (0+255),w,b
  3585  002448  516D               	movf	(enviarRS232@longitud_texto+1)& (0+255),w,b
  3586  00244A  596B               	subwfb	(??_enviarRS232+1)& (0+255),w,b
  3587  00244C  B0D8               	btfsc	status,0,c
  3588  00244E  0012               	return	
  3589  002450  D7DC               	goto	l3989
  3590  002452                     __end_of_enviarRS232:
  3591                           	opt callstack 0
  3592                           
  3593 ;; *************** function _length *****************
  3594 ;; Defined at:
  3595 ;;		line 63 in file "./../LIBRERIAS/funciones_auto.h"
  3596 ;; Parameters:    Size  Location     Type
  3597 ;;  text            2    0[BANK0 ] PTR unsigned char 
  3598 ;;		 -> STR_10(7), STR_9(27), STR_8(21), STR_7(20), 
  3599 ;;		 -> STR_6(23), STR_5(22), STR_4(29), STR_3(21), 
  3600 ;;		 -> STR_2(24), STR_1(9), 
  3601 ;; Auto vars:     Size  Location     Type
  3602 ;;  longitud        2    4[BANK0 ] int 
  3603 ;;  i               1    7[BANK0 ] unsigned char 
  3604 ;;  dato            1    6[BANK0 ] unsigned char 
  3605 ;; Return value:  Size  Location     Type
  3606 ;;                  2    0[BANK0 ] int 
  3607 ;; Registers used:
  3608 ;;		wreg, status,2, status,0, tblptrl, tblptrh, tblptru
  3609 ;; Tracked objects:
  3610 ;;		On entry : 0/0
  3611 ;;		On exit  : 0/0
  3612 ;;		Unchanged: 0/0
  3613 ;; Data sizes:     COMRAM   BANK0   BANK1   BANK2   BANK3   BANK4   BANK5   BANK6   BANK7   BANK8   BANK9  BANK10  BANK1
      +1  BANK12  BANK13  BANK14
  3614 ;;      Params:         0       2       0       0       0       0       0       0       0       0       0       0       
      +0       0       0       0
  3615 ;;      Locals:         0       4       0       0       0       0       0       0       0       0       0       0       
      +0       0       0       0
  3616 ;;      Temps:          0       2       0       0       0       0       0       0       0       0       0       0       
      +0       0       0       0
  3617 ;;      Totals:         0       8       0       0       0       0       0       0       0       0       0       0       
      +0       0       0       0
  3618 ;;Total ram usage:        8 bytes
  3619 ;; Hardware stack levels used:    1
  3620 ;; Hardware stack levels required when called:    2
  3621 ;; This function calls:
  3622 ;;		Nothing
  3623 ;; This function is called by:
  3624 ;;		_enviarRS232
  3625 ;; This function uses a non-reentrant model
  3626 ;;
  3627                           
  3628                           	psect	text10
  3629  0024B4                     __ptext10:
  3630                           	opt callstack 0
  3631  0024B4                     _length:
  3632                           	opt callstack 26
  3633                           
  3634                           ;./../LIBRERIAS/funciones_auto.h: 64:     unsigned char dato = text[0], i = 1;
  3635                           
  3636                           ; BSR set to: 0
  3637                           ;incstack = 0
  3638  0024B4  C060  FFF6         	movff	length@text,tblptrl
  3639  0024B8  C061  FFF7         	movff	length@text+1,tblptrh
  3640  0024BC                     	if	0	;tblptru may be non-zero
  3641  0024BC                     	endif
  3642  0024BC                     	if	1	;Program memory is > 0xFFFF, there are 3 active tblptr bytes
  3643  0024BC  0E00               	movlw	low (__mediumconst shr (0+16))
  3644  0024BE  6EF8               	movwf	tblptru,c
  3645  0024C0                     	endif
  3646  0024C0  0008               	tblrd		*
  3647  0024C2  CFF5 F066          	movff	tablat,length@dato
  3648  0024C6  0E01               	movlw	1
  3649  0024C8  0100               	movlb	0	; () banked
  3650  0024CA  6F67               	movwf	length@i& (0+255),b
  3651                           
  3652                           ; BSR set to: 0
  3653                           ;./../LIBRERIAS/funciones_auto.h: 65:     int longitud = 0;
  3654  0024CC  0E00               	movlw	0
  3655  0024CE  6F65               	movwf	(length@longitud+1)& (0+255),b
  3656  0024D0  0E00               	movlw	0
  3657  0024D2  6F64               	movwf	length@longitud& (0+255),b
  3658                           
  3659                           ;./../LIBRERIAS/funciones_auto.h: 66:     while(dato != '\0'){
  3660  0024D4  D012               	goto	l3721
  3661  0024D6                     l3715:
  3662                           
  3663                           ; BSR set to: 0
  3664                           ;./../LIBRERIAS/funciones_auto.h: 67:         dato = text[i];
  3665  0024D6  5167               	movf	length@i& (0+255),w,b
  3666  0024D8  2560               	addwf	length@text& (0+255),w,b
  3667  0024DA  6F62               	movwf	??_length& (0+255),b
  3668  0024DC  0E00               	movlw	0
  3669  0024DE  2161               	addwfc	(length@text+1)& (0+255),w,b
  3670  0024E0  6F63               	movwf	(??_length+1)& (0+255),b
  3671  0024E2  C062  FFF6         	movff	??_length,tblptrl
  3672  0024E6  C063  FFF7         	movff	??_length+1,tblptrh
  3673  0024EA                     	if	0	;tblptru may be non-zero
  3674  0024EA                     	endif
  3675  0024EA                     	if	1	;Program memory is > 0xFFFF, there are 3 active tblptr bytes
  3676  0024EA  0E00               	movlw	low (__mediumconst shr (0+16))
  3677  0024EC  6EF8               	movwf	tblptru,c
  3678  0024EE                     	endif
  3679  0024EE  0008               	tblrd		*
  3680  0024F0  CFF5 F066          	movff	tablat,length@dato
  3681                           
  3682                           ; BSR set to: 0
  3683                           ;./../LIBRERIAS/funciones_auto.h: 68:         i++;
  3684  0024F4  2B67               	incf	length@i& (0+255),f,b
  3685                           
  3686                           ; BSR set to: 0
  3687                           ;./../LIBRERIAS/funciones_auto.h: 69:         longitud++;
  3688  0024F6  4B64               	infsnz	length@longitud& (0+255),f,b
  3689  0024F8  2B65               	incf	(length@longitud+1)& (0+255),f,b
  3690  0024FA                     l3721:
  3691                           
  3692                           ; BSR set to: 0
  3693                           ;./../LIBRERIAS/funciones_auto.h: 66:     while(dato != '\0'){
  3694  0024FA  5166               	movf	length@dato& (0+255),w,b
  3695  0024FC  A4D8               	btfss	status,2,c
  3696  0024FE  D7EB               	goto	l3715
  3697                           
  3698                           ; BSR set to: 0
  3699                           ;./../LIBRERIAS/funciones_auto.h: 71:     return longitud;
  3700  002500  C064  F060         	movff	length@longitud,?_length
  3701  002504  C065  F061         	movff	length@longitud+1,?_length+1
  3702                           
  3703                           ; BSR set to: 0
  3704  002508  0012               	return		;funcret
  3705  00250A                     __end_of_length:
  3706                           	opt callstack 0
  3707                           
  3708 ;; *************** function _encenderMotor *****************
  3709 ;; Defined at:
  3710 ;;		line 36 in file "./../LIBRERIAS/funciones_auto.h"
  3711 ;; Parameters:    Size  Location     Type
  3712 ;;		None
  3713 ;; Auto vars:     Size  Location     Type
  3714 ;;		None
  3715 ;; Return value:  Size  Location     Type
  3716 ;;                  1    wreg      void 
  3717 ;; Registers used:
  3718 ;;		wreg, status,2, status,0, cstack
  3719 ;; Tracked objects:
  3720 ;;		On entry : 0/0
  3721 ;;		On exit  : 0/0
  3722 ;;		Unchanged: 0/0
  3723 ;; Data sizes:     COMRAM   BANK0   BANK1   BANK2   BANK3   BANK4   BANK5   BANK6   BANK7   BANK8   BANK9  BANK10  BANK1
      +1  BANK12  BANK13  BANK14
  3724 ;;      Params:         0       0       0       0       0       0       0       0       0       0       0       0       
      +0       0       0       0
  3725 ;;      Locals:         0       0       0       0       0       0       0       0       0       0       0       0       
      +0       0       0       0
  3726 ;;      Temps:          0       0       0       0       0       0       0       0       0       0       0       0       
      +0       0       0       0
  3727 ;;      Totals:         0       0       0       0       0       0       0       0       0       0       0       0       
      +0       0       0       0
  3728 ;;Total ram usage:        0 bytes
  3729 ;; Hardware stack levels used:    1
  3730 ;; Hardware stack levels required when called:    3
  3731 ;; This function calls:
  3732 ;;		_definirVelocidad
  3733 ;;		_rutinaArranque
  3734 ;; This function is called by:
  3735 ;;		_terminal
  3736 ;;		_rutinaEscape
  3737 ;; This function uses a non-reentrant model
  3738 ;;
  3739                           
  3740                           	psect	text11
  3741  002672                     __ptext11:
  3742                           	opt callstack 0
  3743  002672                     _encenderMotor:
  3744                           	opt callstack 26
  3745                           
  3746                           ;./../LIBRERIAS/funciones_auto.h: 37:     if(motor == 0){
  3747                           
  3748                           ; BSR set to: 0
  3749                           ;incstack = 0
  3750  002672  5041               	movf	_motor,w,c
  3751  002674  B4D8               	btfsc	status,2,c
  3752                           
  3753                           ;./../LIBRERIAS/funciones_auto.h: 38:         rutinaArranque();
  3754  002676  ECCA  F012         	call	_rutinaArranque	;wreg free
  3755                           
  3756                           ;./../LIBRERIAS/funciones_auto.h: 40:     definirVelocidad();
  3757  00267A  ECAD  F012         	call	_definirVelocidad	;wreg free
  3758                           
  3759                           ;./../LIBRERIAS/funciones_auto.h: 41:     motor = 1;
  3760  00267E  0E01               	movlw	1
  3761  002680  6E41               	movwf	_motor,c
  3762  002682  0012               	return		;funcret
  3763  002684                     __end_of_encenderMotor:
  3764                           	opt callstack 0
  3765                           
  3766 ;; *************** function _rutinaArranque *****************
  3767 ;; Defined at:
  3768 ;;		line 24 in file "./../LIBRERIAS/funciones_auto.h"
  3769 ;; Parameters:    Size  Location     Type
  3770 ;;		None
  3771 ;; Auto vars:     Size  Location     Type
  3772 ;;		None
  3773 ;; Return value:  Size  Location     Type
  3774 ;;                  1    wreg      void 
  3775 ;; Registers used:
  3776 ;;		wreg, status,2
  3777 ;; Tracked objects:
  3778 ;;		On entry : 0/0
  3779 ;;		On exit  : 0/0
  3780 ;;		Unchanged: 0/0
  3781 ;; Data sizes:     COMRAM   BANK0   BANK1   BANK2   BANK3   BANK4   BANK5   BANK6   BANK7   BANK8   BANK9  BANK10  BANK1
      +1  BANK12  BANK13  BANK14
  3782 ;;      Params:         0       0       0       0       0       0       0       0       0       0       0       0       
      +0       0       0       0
  3783 ;;      Locals:         0       0       0       0       0       0       0       0       0       0       0       0       
      +0       0       0       0
  3784 ;;      Temps:          0       2       0       0       0       0       0       0       0       0       0       0       
      +0       0       0       0
  3785 ;;      Totals:         0       2       0       0       0       0       0       0       0       0       0       0       
      +0       0       0       0
  3786 ;;Total ram usage:        2 bytes
  3787 ;; Hardware stack levels used:    1
  3788 ;; Hardware stack levels required when called:    2
  3789 ;; This function calls:
  3790 ;;		Nothing
  3791 ;; This function is called by:
  3792 ;;		_encenderMotor
  3793 ;; This function uses a non-reentrant model
  3794 ;;
  3795                           
  3796                           	psect	text12
  3797  002594                     __ptext12:
  3798                           	opt callstack 0
  3799  002594                     _rutinaArranque:
  3800                           	opt callstack 26
  3801                           
  3802                           ;./../LIBRERIAS/funciones_auto.h: 25:     CCP7CONbits.DC7B = cicle_90 & 0x0003;
  3803                           
  3804                           ;incstack = 0
  3805  002594  010F               	movlb	15	; () banked
  3806  002596  5109               	movf	9,w,b	;volatile
  3807  002598  0BCF               	andlw	-49
  3808  00259A  0920               	iorlw	32
  3809  00259C  6F09               	movwf	9,b	;volatile
  3810                           
  3811                           ;./../LIBRERIAS/funciones_auto.h: 26:     CCPR7L = cicle_90>>2;
  3812  00259E  0E16               	movlw	22
  3813  0025A0  6F0A               	movwf	10,b	;volatile
  3814                           
  3815                           ; BSR set to: 15
  3816                           ;./../LIBRERIAS/funciones_auto.h: 27:     T2CONbits.TMR2ON = 1;
  3817  0025A2  84CA               	bsf	4042,2,c	;volatile
  3818                           
  3819                           ; BSR set to: 15
  3820                           ;./../LIBRERIAS/funciones_auto.h: 28:     _delay((unsigned long)((50)*(48000000/4000.0))
      +                          );
  3821  0025A4  0E04               	movlw	4
  3822  0025A6  0100               	movlb	0	; () banked
  3823  0025A8  6F61               	movwf	(??_rutinaArranque+1)& (0+255),b
  3824  0025AA  0E0C               	movlw	12
  3825  0025AC  6F60               	movwf	??_rutinaArranque& (0+255),b
  3826  0025AE  0E33               	movlw	51
  3827  0025B0                     u4027:
  3828  0025B0  2EE8               	decfsz	wreg,f,c
  3829  0025B2  D7FE               	bra	u4027
  3830  0025B4  2F60               	decfsz	??_rutinaArranque& (0+255),f,b
  3831  0025B6  D7FC               	bra	u4027
  3832  0025B8  2F61               	decfsz	(??_rutinaArranque+1)& (0+255),f,b
  3833  0025BA  D7FA               	bra	u4027
  3834  0025BC  D000               	nop2	
  3835  0025BE  0012               	return		;funcret
  3836  0025C0                     __end_of_rutinaArranque:
  3837                           	opt callstack 0
  3838                           
  3839 ;; *************** function _definirVelocidad *****************
  3840 ;; Defined at:
  3841 ;;		line 44 in file "./../LIBRERIAS/funciones_auto.h"
  3842 ;; Parameters:    Size  Location     Type
  3843 ;;		None
  3844 ;; Auto vars:     Size  Location     Type
  3845 ;;		None
  3846 ;; Return value:  Size  Location     Type
  3847 ;;                  1    wreg      void 
  3848 ;; Registers used:
  3849 ;;		wreg, status,2, status,0
  3850 ;; Tracked objects:
  3851 ;;		On entry : 0/0
  3852 ;;		On exit  : 0/0
  3853 ;;		Unchanged: 0/0
  3854 ;; Data sizes:     COMRAM   BANK0   BANK1   BANK2   BANK3   BANK4   BANK5   BANK6   BANK7   BANK8   BANK9  BANK10  BANK1
      +1  BANK12  BANK13  BANK14
  3855 ;;      Params:         0       0       0       0       0       0       0       0       0       0       0       0       
      +0       0       0       0
  3856 ;;      Locals:         0       0       0       0       0       0       0       0       0       0       0       0       
      +0       0       0       0
  3857 ;;      Temps:          0       2       0       0       0       0       0       0       0       0       0       0       
      +0       0       0       0
  3858 ;;      Totals:         0       2       0       0       0       0       0       0       0       0       0       0       
      +0       0       0       0
  3859 ;;Total ram usage:        2 bytes
  3860 ;; Hardware stack levels used:    1
  3861 ;; Hardware stack levels required when called:    2
  3862 ;; This function calls:
  3863 ;;		Nothing
  3864 ;; This function is called by:
  3865 ;;		_encenderMotor
  3866 ;;		_cambiarPWM
  3867 ;; This function uses a non-reentrant model
  3868 ;;
  3869                           
  3870                           	psect	text13
  3871  00255A                     __ptext13:
  3872                           	opt callstack 0
  3873  00255A                     _definirVelocidad:
  3874                           	opt callstack 26
  3875                           
  3876                           ;./../LIBRERIAS/funciones_auto.h: 45:     CCP7CONbits.DC7B = velocidad & 0x0003;
  3877                           
  3878                           ;incstack = 0
  3879  00255A  C0DF  F060         	movff	_velocidad,??_definirVelocidad
  3880  00255E  0E03               	movlw	3
  3881  002560  0100               	movlb	0	; () banked
  3882  002562  1760               	andwf	??_definirVelocidad& (0+255),f,b
  3883  002564  3B60               	swapf	??_definirVelocidad& (0+255),f,b
  3884  002566  010F               	movlb	15	; () banked
  3885  002568  5109               	movf	9,w,b	;volatile
  3886  00256A  0100               	movlb	0	; () banked
  3887  00256C  1960               	xorwf	??_definirVelocidad& (0+255),w,b
  3888  00256E  0BCF               	andlw	-49
  3889  002570  1960               	xorwf	??_definirVelocidad& (0+255),w,b
  3890  002572  010F               	movlb	15	; () banked
  3891  002574  6F09               	movwf	9,b	;volatile
  3892                           
  3893                           ;./../LIBRERIAS/funciones_auto.h: 46:     CCPR7L = velocidad>>2;
  3894  002576  C0DF  F060         	movff	_velocidad,??_definirVelocidad
  3895  00257A  C0E0  F061         	movff	_velocidad+1,??_definirVelocidad+1
  3896  00257E  0100               	movlb	0	; () banked
  3897  002580  90D8               	bcf	status,0,c
  3898  002582  3361               	rrcf	(??_definirVelocidad+1)& (0+255),f,b
  3899  002584  3360               	rrcf	??_definirVelocidad& (0+255),f,b
  3900  002586  90D8               	bcf	status,0,c
  3901  002588  3361               	rrcf	(??_definirVelocidad+1)& (0+255),f,b
  3902  00258A  3360               	rrcf	??_definirVelocidad& (0+255),f,b
  3903  00258C  5160               	movf	??_definirVelocidad& (0+255),w,b
  3904  00258E  010F               	movlb	15	; () banked
  3905  002590  6F0A               	movwf	10,b	;volatile
  3906                           
  3907                           ; BSR set to: 15
  3908  002592  0012               	return		;funcret
  3909  002594                     __end_of_definirVelocidad:
  3910                           	opt callstack 0
  3911                           
  3912 ;; *************** function _atras *****************
  3913 ;; Defined at:
  3914 ;;		line 340 in file "auto.c"
  3915 ;; Parameters:    Size  Location     Type
  3916 ;;		None
  3917 ;; Auto vars:     Size  Location     Type
  3918 ;;		None
  3919 ;; Return value:  Size  Location     Type
  3920 ;;                  1    wreg      void 
  3921 ;; Registers used:
  3922 ;;		wreg, status,2
  3923 ;; Tracked objects:
  3924 ;;		On entry : 0/0
  3925 ;;		On exit  : 0/0
  3926 ;;		Unchanged: 0/0
  3927 ;; Data sizes:     COMRAM   BANK0   BANK1   BANK2   BANK3   BANK4   BANK5   BANK6   BANK7   BANK8   BANK9  BANK10  BANK1
      +1  BANK12  BANK13  BANK14
  3928 ;;      Params:         0       0       0       0       0       0       0       0       0       0       0       0       
      +0       0       0       0
  3929 ;;      Locals:         0       0       0       0       0       0       0       0       0       0       0       0       
      +0       0       0       0
  3930 ;;      Temps:          0       0       0       0       0       0       0       0       0       0       0       0       
      +0       0       0       0
  3931 ;;      Totals:         0       0       0       0       0       0       0       0       0       0       0       0       
      +0       0       0       0
  3932 ;;Total ram usage:        0 bytes
  3933 ;; Hardware stack levels used:    1
  3934 ;; Hardware stack levels required when called:    2
  3935 ;; This function calls:
  3936 ;;		Nothing
  3937 ;; This function is called by:
  3938 ;;		_terminal
  3939 ;;		_rutinaEscape
  3940 ;; This function uses a non-reentrant model
  3941 ;;
  3942                           
  3943                           	psect	text14
  3944  0026B4                     __ptext14:
  3945                           	opt callstack 0
  3946  0026B4                     _atras:
  3947                           	opt callstack 27
  3948                           
  3949                           ;auto.c: 341:     estado = 's';
  3950                           
  3951                           ; BSR set to: 15
  3952                           ;incstack = 0
  3953  0026B4  0E73               	movlw	115
  3954  0026B6  6E3C               	movwf	_estado,c
  3955                           
  3956                           ;auto.c: 342:     PORTAbits.RA0 = 0;
  3957  0026B8  9080               	bcf	3968,0,c	;volatile
  3958                           
  3959                           ;auto.c: 343:     PORTAbits.RA1 = 0;
  3960  0026BA  9280               	bcf	3968,1,c	;volatile
  3961                           
  3962                           ;auto.c: 344:     PORTAbits.RA0 = 0;
  3963  0026BC  9080               	bcf	3968,0,c	;volatile
  3964                           
  3965                           ;auto.c: 345:     PORTAbits.RA1 = 1;
  3966  0026BE  8280               	bsf	3968,1,c	;volatile
  3967  0026C0  0012               	return		;funcret
  3968  0026C2                     __end_of_atras:
  3969                           	opt callstack 0
  3970                           
  3971 ;; *************** function _adelante *****************
  3972 ;; Defined at:
  3973 ;;		line 332 in file "auto.c"
  3974 ;; Parameters:    Size  Location     Type
  3975 ;;		None
  3976 ;; Auto vars:     Size  Location     Type
  3977 ;;		None
  3978 ;; Return value:  Size  Location     Type
  3979 ;;                  1    wreg      void 
  3980 ;; Registers used:
  3981 ;;		wreg, status,2
  3982 ;; Tracked objects:
  3983 ;;		On entry : 0/0
  3984 ;;		On exit  : 0/0
  3985 ;;		Unchanged: 0/0
  3986 ;; Data sizes:     COMRAM   BANK0   BANK1   BANK2   BANK3   BANK4   BANK5   BANK6   BANK7   BANK8   BANK9  BANK10  BANK1
      +1  BANK12  BANK13  BANK14
  3987 ;;      Params:         0       0       0       0       0       0       0       0       0       0       0       0       
      +0       0       0       0
  3988 ;;      Locals:         0       0       0       0       0       0       0       0       0       0       0       0       
      +0       0       0       0
  3989 ;;      Temps:          0       0       0       0       0       0       0       0       0       0       0       0       
      +0       0       0       0
  3990 ;;      Totals:         0       0       0       0       0       0       0       0       0       0       0       0       
      +0       0       0       0
  3991 ;;Total ram usage:        0 bytes
  3992 ;; Hardware stack levels used:    1
  3993 ;; Hardware stack levels required when called:    2
  3994 ;; This function calls:
  3995 ;;		Nothing
  3996 ;; This function is called by:
  3997 ;;		_terminal
  3998 ;;		_rutinaEscape
  3999 ;; This function uses a non-reentrant model
  4000 ;;
  4001                           
  4002                           	psect	text15
  4003  0026C2                     __ptext15:
  4004                           	opt callstack 0
  4005  0026C2                     _adelante:
  4006                           	opt callstack 27
  4007                           
  4008                           ;auto.c: 333:     estado = 'w';
  4009                           
  4010                           ;incstack = 0
  4011  0026C2  0E77               	movlw	119
  4012  0026C4  6E3C               	movwf	_estado,c
  4013                           
  4014                           ;auto.c: 334:     PORTAbits.RA0 = 0;
  4015  0026C6  9080               	bcf	3968,0,c	;volatile
  4016                           
  4017                           ;auto.c: 335:     PORTAbits.RA1 = 0;
  4018  0026C8  9280               	bcf	3968,1,c	;volatile
  4019                           
  4020                           ;auto.c: 336:     PORTAbits.RA0 = 1;
  4021  0026CA  8080               	bsf	3968,0,c	;volatile
  4022                           
  4023                           ;auto.c: 337:     PORTAbits.RA1 = 0;
  4024  0026CC  9280               	bcf	3968,1,c	;volatile
  4025  0026CE  0012               	return		;funcret
  4026  0026D0                     __end_of_adelante:
  4027                           	opt callstack 0
  4028                           
  4029 ;; *************** function _configuracionInicial *****************
  4030 ;; Defined at:
  4031 ;;		line 183 in file "auto.c"
  4032 ;; Parameters:    Size  Location     Type
  4033 ;;		None
  4034 ;; Auto vars:     Size  Location     Type
  4035 ;;		None
  4036 ;; Return value:  Size  Location     Type
  4037 ;;                  1    wreg      void 
  4038 ;; Registers used:
  4039 ;;		wreg, status,2, cstack
  4040 ;; Tracked objects:
  4041 ;;		On entry : 0/0
  4042 ;;		On exit  : 0/0
  4043 ;;		Unchanged: 0/0
  4044 ;; Data sizes:     COMRAM   BANK0   BANK1   BANK2   BANK3   BANK4   BANK5   BANK6   BANK7   BANK8   BANK9  BANK10  BANK1
      +1  BANK12  BANK13  BANK14
  4045 ;;      Params:         0       0       0       0       0       0       0       0       0       0       0       0       
      +0       0       0       0
  4046 ;;      Locals:         0       0       0       0       0       0       0       0       0       0       0       0       
      +0       0       0       0
  4047 ;;      Temps:          0       0       0       0       0       0       0       0       0       0       0       0       
      +0       0       0       0
  4048 ;;      Totals:         0       0       0       0       0       0       0       0       0       0       0       0       
      +0       0       0       0
  4049 ;;Total ram usage:        0 bytes
  4050 ;; Hardware stack levels used:    1
  4051 ;; Hardware stack levels required when called:    3
  4052 ;; This function calls:
  4053 ;;		_configurarInterrupciones
  4054 ;;		_configurarPWM7
  4055 ;;		_configurarPuertos
  4056 ;;		_configurarRS232
  4057 ;;		_configurarRS232US100
  4058 ;;		_configurarTMR4
  4059 ;;		_configurarTMR5
  4060 ;;		_configurarTMR8
  4061 ;; This function is called by:
  4062 ;;		_main
  4063 ;; This function uses a non-reentrant model
  4064 ;;
  4065                           
  4066                           	psect	text16
  4067  0025C0                     __ptext16:
  4068                           	opt callstack 0
  4069  0025C0                     _configuracionInicial:
  4070                           	opt callstack 27
  4071                           
  4072                           ;auto.c: 184:     configurarPuertos();
  4073                           
  4074                           ;incstack = 0
  4075  0025C0  EC4A  F013         	call	_configurarPuertos	;wreg free
  4076                           
  4077                           ;auto.c: 185:     configurarPWM7();
  4078  0025C4  EC02  F013         	call	_configurarPWM7	;wreg free
  4079                           
  4080                           ;auto.c: 186:     configurarInterrupciones();
  4081  0025C8  EC12  F013         	call	_configurarInterrupciones	;wreg free
  4082                           
  4083                           ;auto.c: 187:     configurarRS232();
  4084  0025CC  EC22  F013         	call	_configurarRS232	;wreg free
  4085                           
  4086                           ;auto.c: 188:     configurarTMR4();
  4087  0025D0  EC68  F013         	call	_configurarTMR4	;wreg free
  4088                           
  4089                           ;auto.c: 189:     configurarTMR5();
  4090  0025D4  EC2E  F013         	call	_configurarTMR5	;wreg free
  4091                           
  4092                           ;auto.c: 190:     configurarTMR8();
  4093  0025D8  EC42  F013         	call	_configurarTMR8	;wreg free
  4094                           
  4095                           ;auto.c: 191:     configurarRS232US100();
  4096  0025DC  ECF1  F012         	call	_configurarRS232US100	;wreg free
  4097  0025E0  0012               	return		;funcret
  4098  0025E2                     __end_of_configuracionInicial:
  4099                           	opt callstack 0
  4100                           
  4101 ;; *************** function _configurarTMR8 *****************
  4102 ;; Defined at:
  4103 ;;		line 65 in file "./../LIBRERIAS/configuracion_auto.h"
  4104 ;; Parameters:    Size  Location     Type
  4105 ;;		None
  4106 ;; Auto vars:     Size  Location     Type
  4107 ;;		None
  4108 ;; Return value:  Size  Location     Type
  4109 ;;                  1    wreg      void 
  4110 ;; Registers used:
  4111 ;;		wreg, status,2
  4112 ;; Tracked objects:
  4113 ;;		On entry : 0/0
  4114 ;;		On exit  : 0/0
  4115 ;;		Unchanged: 0/0
  4116 ;; Data sizes:     COMRAM   BANK0   BANK1   BANK2   BANK3   BANK4   BANK5   BANK6   BANK7   BANK8   BANK9  BANK10  BANK1
      +1  BANK12  BANK13  BANK14
  4117 ;;      Params:         0       0       0       0       0       0       0       0       0       0       0       0       
      +0       0       0       0
  4118 ;;      Locals:         0       0       0       0       0       0       0       0       0       0       0       0       
      +0       0       0       0
  4119 ;;      Temps:          0       0       0       0       0       0       0       0       0       0       0       0       
      +0       0       0       0
  4120 ;;      Totals:         0       0       0       0       0       0       0       0       0       0       0       0       
      +0       0       0       0
  4121 ;;Total ram usage:        0 bytes
  4122 ;; Hardware stack levels used:    1
  4123 ;; Hardware stack levels required when called:    2
  4124 ;; This function calls:
  4125 ;;		Nothing
  4126 ;; This function is called by:
  4127 ;;		_configuracionInicial
  4128 ;; This function uses a non-reentrant model
  4129 ;;
  4130                           
  4131                           	psect	text17
  4132  002684                     __ptext17:
  4133                           	opt callstack 0
  4134  002684                     _configurarTMR8:
  4135                           	opt callstack 27
  4136                           
  4137                           ;./../LIBRERIAS/configuracion_auto.h: 66:     T8CONbits.T8CKPS = 0b11 ;
  4138                           
  4139                           ;incstack = 0
  4140  002684  0E03               	movlw	3
  4141  002686  010F               	movlb	15	; () banked
  4142  002688  131B               	iorwf	27,f,b	;volatile
  4143                           
  4144                           ;./../LIBRERIAS/configuracion_auto.h: 67:     TMR8 = 31;
  4145  00268A  0E1F               	movlw	31
  4146  00268C  6F1D               	movwf	29,b	;volatile
  4147                           
  4148                           ; BSR set to: 15
  4149                           ;./../LIBRERIAS/configuracion_auto.h: 68:     PIR5bits.TMR8IF = 0;
  4150  00268E  9898               	bcf	3992,4,c	;volatile
  4151                           
  4152                           ; BSR set to: 15
  4153                           ;./../LIBRERIAS/configuracion_auto.h: 69:     PIE5bits.TMR8IE = 1;
  4154  002690  8891               	bsf	3985,4,c	;volatile
  4155                           
  4156                           ; BSR set to: 15
  4157  002692  0012               	return		;funcret
  4158  002694                     __end_of_configurarTMR8:
  4159                           	opt callstack 0
  4160                           
  4161 ;; *************** function _configurarTMR5 *****************
  4162 ;; Defined at:
  4163 ;;		line 48 in file "./../LIBRERIAS/configuracion_auto.h"
  4164 ;; Parameters:    Size  Location     Type
  4165 ;;		None
  4166 ;; Auto vars:     Size  Location     Type
  4167 ;;		None
  4168 ;; Return value:  Size  Location     Type
  4169 ;;                  1    wreg      void 
  4170 ;; Registers used:
  4171 ;;		wreg, status,2
  4172 ;; Tracked objects:
  4173 ;;		On entry : 0/0
  4174 ;;		On exit  : 0/0
  4175 ;;		Unchanged: 0/0
  4176 ;; Data sizes:     COMRAM   BANK0   BANK1   BANK2   BANK3   BANK4   BANK5   BANK6   BANK7   BANK8   BANK9  BANK10  BANK1
      +1  BANK12  BANK13  BANK14
  4177 ;;      Params:         0       0       0       0       0       0       0       0       0       0       0       0       
      +0       0       0       0
  4178 ;;      Locals:         0       0       0       0       0       0       0       0       0       0       0       0       
      +0       0       0       0
  4179 ;;      Temps:          0       0       0       0       0       0       0       0       0       0       0       0       
      +0       0       0       0
  4180 ;;      Totals:         0       0       0       0       0       0       0       0       0       0       0       0       
      +0       0       0       0
  4181 ;;Total ram usage:        0 bytes
  4182 ;; Hardware stack levels used:    1
  4183 ;; Hardware stack levels required when called:    2
  4184 ;; This function calls:
  4185 ;;		Nothing
  4186 ;; This function is called by:
  4187 ;;		_configuracionInicial
  4188 ;; This function uses a non-reentrant model
  4189 ;;
  4190                           
  4191                           	psect	text18
  4192  00265C                     __ptext18:
  4193                           	opt callstack 0
  4194  00265C                     _configurarTMR5:
  4195                           	opt callstack 27
  4196                           
  4197                           ;./../LIBRERIAS/configuracion_auto.h: 49:     TRISDbits.TRISD4 = 0;
  4198                           
  4199                           ; BSR set to: 15
  4200                           ;incstack = 0
  4201  00265C  9895               	bcf	3989,4,c	;volatile
  4202                           
  4203                           ;./../LIBRERIAS/configuracion_auto.h: 50:     PORTDbits.RD4 = 0;
  4204  00265E  9883               	bcf	3971,4,c	;volatile
  4205                           
  4206                           ;./../LIBRERIAS/configuracion_auto.h: 51:     T5CON = 0x32;
  4207  002660  0E32               	movlw	50
  4208  002662  010F               	movlb	15	; () banked
  4209  002664  6F22               	movwf	34,b	;volatile
  4210                           
  4211                           ; BSR set to: 15
  4212                           ;./../LIBRERIAS/configuracion_auto.h: 52:     TMR5H = 0xFF;
  4213  002666  6924               	setf	36,b	;volatile
  4214                           
  4215                           ;./../LIBRERIAS/configuracion_auto.h: 53:     TMR5L = 0xE2;
  4216  002668  0EE2               	movlw	226
  4217  00266A  6F23               	movwf	35,b	;volatile
  4218                           
  4219                           ; BSR set to: 15
  4220                           ;./../LIBRERIAS/configuracion_auto.h: 54:     PIE5bits.TMR5IE = 1;
  4221  00266C  8491               	bsf	3985,2,c	;volatile
  4222                           
  4223                           ; BSR set to: 15
  4224                           ;./../LIBRERIAS/configuracion_auto.h: 55:     PIR5bits.TMR5IF = 0;
  4225  00266E  9498               	bcf	3992,2,c	;volatile
  4226                           
  4227                           ; BSR set to: 15
  4228  002670  0012               	return		;funcret
  4229  002672                     __end_of_configurarTMR5:
  4230                           	opt callstack 0
  4231                           
  4232 ;; *************** function _configurarTMR4 *****************
  4233 ;; Defined at:
  4234 ;;		line 58 in file "./../LIBRERIAS/configuracion_auto.h"
  4235 ;; Parameters:    Size  Location     Type
  4236 ;;		None
  4237 ;; Auto vars:     Size  Location     Type
  4238 ;;		None
  4239 ;; Return value:  Size  Location     Type
  4240 ;;                  1    wreg      void 
  4241 ;; Registers used:
  4242 ;;		wreg, status,2
  4243 ;; Tracked objects:
  4244 ;;		On entry : 0/0
  4245 ;;		On exit  : 0/0
  4246 ;;		Unchanged: 0/0
  4247 ;; Data sizes:     COMRAM   BANK0   BANK1   BANK2   BANK3   BANK4   BANK5   BANK6   BANK7   BANK8   BANK9  BANK10  BANK1
      +1  BANK12  BANK13  BANK14
  4248 ;;      Params:         0       0       0       0       0       0       0       0       0       0       0       0       
      +0       0       0       0
  4249 ;;      Locals:         0       0       0       0       0       0       0       0       0       0       0       0       
      +0       0       0       0
  4250 ;;      Temps:          0       0       0       0       0       0       0       0       0       0       0       0       
      +0       0       0       0
  4251 ;;      Totals:         0       0       0       0       0       0       0       0       0       0       0       0       
      +0       0       0       0
  4252 ;;Total ram usage:        0 bytes
  4253 ;; Hardware stack levels used:    1
  4254 ;; Hardware stack levels required when called:    2
  4255 ;; This function calls:
  4256 ;;		Nothing
  4257 ;; This function is called by:
  4258 ;;		_configuracionInicial
  4259 ;; This function uses a non-reentrant model
  4260 ;;
  4261                           
  4262                           	psect	text19
  4263  0026D0                     __ptext19:
  4264                           	opt callstack 0
  4265  0026D0                     _configurarTMR4:
  4266                           	opt callstack 27
  4267                           
  4268                           ;./../LIBRERIAS/configuracion_auto.h: 59:     T4CONbits.T4CKPS = 0b11;
  4269                           
  4270                           ; BSR set to: 15
  4271                           ;incstack = 0
  4272  0026D0  0E03               	movlw	3
  4273  0026D2  1276               	iorwf	3958,f,c	;volatile
  4274                           
  4275                           ;./../LIBRERIAS/configuracion_auto.h: 60:     TMR4 = 181;
  4276  0026D4  0EB5               	movlw	181
  4277  0026D6  6E78               	movwf	3960,c	;volatile
  4278                           
  4279                           ;./../LIBRERIAS/configuracion_auto.h: 61:     PIR3bits.TMR4IF = 0;
  4280  0026D8  96A4               	bcf	4004,3,c	;volatile
  4281                           
  4282                           ;./../LIBRERIAS/configuracion_auto.h: 62:     PIE3bits.TMR4IE= 1;
  4283  0026DA  86A3               	bsf	4003,3,c	;volatile
  4284  0026DC  0012               	return		;funcret
  4285  0026DE                     __end_of_configurarTMR4:
  4286                           	opt callstack 0
  4287                           
  4288 ;; *************** function _configurarRS232US100 *****************
  4289 ;; Defined at:
  4290 ;;		line 72 in file "./../LIBRERIAS/configuracion_auto.h"
  4291 ;; Parameters:    Size  Location     Type
  4292 ;;		None
  4293 ;; Auto vars:     Size  Location     Type
  4294 ;;		None
  4295 ;; Return value:  Size  Location     Type
  4296 ;;                  1    wreg      void 
  4297 ;; Registers used:
  4298 ;;		wreg, status,2
  4299 ;; Tracked objects:
  4300 ;;		On entry : 0/0
  4301 ;;		On exit  : 0/0
  4302 ;;		Unchanged: 0/0
  4303 ;; Data sizes:     COMRAM   BANK0   BANK1   BANK2   BANK3   BANK4   BANK5   BANK6   BANK7   BANK8   BANK9  BANK10  BANK1
      +1  BANK12  BANK13  BANK14
  4304 ;;      Params:         0       0       0       0       0       0       0       0       0       0       0       0       
      +0       0       0       0
  4305 ;;      Locals:         0       0       0       0       0       0       0       0       0       0       0       0       
      +0       0       0       0
  4306 ;;      Temps:          0       0       0       0       0       0       0       0       0       0       0       0       
      +0       0       0       0
  4307 ;;      Totals:         0       0       0       0       0       0       0       0       0       0       0       0       
      +0       0       0       0
  4308 ;;Total ram usage:        0 bytes
  4309 ;; Hardware stack levels used:    1
  4310 ;; Hardware stack levels required when called:    2
  4311 ;; This function calls:
  4312 ;;		Nothing
  4313 ;; This function is called by:
  4314 ;;		_configuracionInicial
  4315 ;; This function uses a non-reentrant model
  4316 ;;
  4317                           
  4318                           	psect	text20
  4319  0025E2                     __ptext20:
  4320                           	opt callstack 0
  4321  0025E2                     _configurarRS232US100:
  4322                           	opt callstack 27
  4323                           
  4324                           ;./../LIBRERIAS/configuracion_auto.h: 73:     TRISDbits.TRISD6 = 0;
  4325                           
  4326                           ;incstack = 0
  4327  0025E2  9C95               	bcf	3989,6,c	;volatile
  4328                           
  4329                           ;./../LIBRERIAS/configuracion_auto.h: 74:     TRISDbits.TRISD7 = 1;
  4330  0025E4  8E95               	bsf	3989,7,c	;volatile
  4331                           
  4332                           ;./../LIBRERIAS/configuracion_auto.h: 75:     RPOR23 = 6;
  4333  0025E6  0E06               	movlw	6
  4334  0025E8  010E               	movlb	14	; () banked
  4335  0025EA  6FD7               	movwf	215,b	;volatile
  4336                           
  4337                           ;./../LIBRERIAS/configuracion_auto.h: 76:     RPINR16 = 24;
  4338  0025EC  0E18               	movlw	24
  4339  0025EE  6FF7               	movwf	247,b	;volatile
  4340                           
  4341                           ;./../LIBRERIAS/configuracion_auto.h: 77:     TXSTA2 = 0x22;
  4342  0025F0  0E22               	movlw	34
  4343  0025F2  6EA8               	movwf	4008,c	;volatile
  4344                           
  4345                           ;./../LIBRERIAS/configuracion_auto.h: 78:     RCSTA2 = 0x90;
  4346  0025F4  0E90               	movlw	144
  4347  0025F6  6E9C               	movwf	3996,c	;volatile
  4348                           
  4349                           ; BSR set to: 14
  4350                           ;./../LIBRERIAS/configuracion_auto.h: 79:     BAUDCON2bits.BRG16 = 0;
  4351  0025F8  967C               	bcf	3964,3,c	;volatile
  4352                           
  4353                           ;./../LIBRERIAS/configuracion_auto.h: 80:     SPBRG2 = 77;
  4354  0025FA  0E4D               	movlw	77
  4355  0025FC  6EAB               	movwf	4011,c	;volatile
  4356                           
  4357                           ; BSR set to: 14
  4358                           ;./../LIBRERIAS/configuracion_auto.h: 81:     PIR3bits.RC2IF = 0;
  4359  0025FE  9AA4               	bcf	4004,5,c	;volatile
  4360                           
  4361                           ; BSR set to: 14
  4362                           ;./../LIBRERIAS/configuracion_auto.h: 82:     PIE3bits.RC2IE = 1;
  4363  002600  8AA3               	bsf	4003,5,c	;volatile
  4364                           
  4365                           ; BSR set to: 14
  4366  002602  0012               	return		;funcret
  4367  002604                     __end_of_configurarRS232US100:
  4368                           	opt callstack 0
  4369                           
  4370 ;; *************** function _configurarRS232 *****************
  4371 ;; Defined at:
  4372 ;;		line 37 in file "./../LIBRERIAS/configuracion_auto.h"
  4373 ;; Parameters:    Size  Location     Type
  4374 ;;		None
  4375 ;; Auto vars:     Size  Location     Type
  4376 ;;		None
  4377 ;; Return value:  Size  Location     Type
  4378 ;;                  1    wreg      void 
  4379 ;; Registers used:
  4380 ;;		wreg, status,2
  4381 ;; Tracked objects:
  4382 ;;		On entry : 0/0
  4383 ;;		On exit  : 0/0
  4384 ;;		Unchanged: 0/0
  4385 ;; Data sizes:     COMRAM   BANK0   BANK1   BANK2   BANK3   BANK4   BANK5   BANK6   BANK7   BANK8   BANK9  BANK10  BANK1
      +1  BANK12  BANK13  BANK14
  4386 ;;      Params:         0       0       0       0       0       0       0       0       0       0       0       0       
      +0       0       0       0
  4387 ;;      Locals:         0       0       0       0       0       0       0       0       0       0       0       0       
      +0       0       0       0
  4388 ;;      Temps:          0       0       0       0       0       0       0       0       0       0       0       0       
      +0       0       0       0
  4389 ;;      Totals:         0       0       0       0       0       0       0       0       0       0       0       0       
      +0       0       0       0
  4390 ;;Total ram usage:        0 bytes
  4391 ;; Hardware stack levels used:    1
  4392 ;; Hardware stack levels required when called:    2
  4393 ;; This function calls:
  4394 ;;		Nothing
  4395 ;; This function is called by:
  4396 ;;		_configuracionInicial
  4397 ;; This function uses a non-reentrant model
  4398 ;;
  4399                           
  4400                           	psect	text21
  4401  002644                     __ptext21:
  4402                           	opt callstack 0
  4403  002644                     _configurarRS232:
  4404                           	opt callstack 27
  4405                           
  4406                           ;./../LIBRERIAS/configuracion_auto.h: 38:     TRISCbits.TRISC7 = 1;
  4407                           
  4408                           ; BSR set to: 14
  4409                           ;incstack = 0
  4410  002644  8E94               	bsf	3988,7,c	;volatile
  4411                           
  4412                           ;./../LIBRERIAS/configuracion_auto.h: 39:     TRISCbits.TRISC6 = 0;
  4413  002646  9C94               	bcf	3988,6,c	;volatile
  4414                           
  4415                           ;./../LIBRERIAS/configuracion_auto.h: 40:     TXSTA1 = 0x22;
  4416  002648  0E22               	movlw	34
  4417  00264A  6EAD               	movwf	4013,c	;volatile
  4418                           
  4419                           ;./../LIBRERIAS/configuracion_auto.h: 41:     RCSTA1 = 0x90;
  4420  00264C  0E90               	movlw	144
  4421  00264E  6EAC               	movwf	4012,c	;volatile
  4422                           
  4423                           ;./../LIBRERIAS/configuracion_auto.h: 42:     BAUDCON1bits.BRG16 = 0;
  4424  002650  967E               	bcf	3966,3,c	;volatile
  4425                           
  4426                           ;./../LIBRERIAS/configuracion_auto.h: 43:     SPBRG1 = 77;
  4427  002652  0E4D               	movlw	77
  4428  002654  6EB0               	movwf	4016,c	;volatile
  4429                           
  4430                           ;./../LIBRERIAS/configuracion_auto.h: 44:     PIR1bits.RC1IF = 0;
  4431  002656  9A9E               	bcf	3998,5,c	;volatile
  4432                           
  4433                           ;./../LIBRERIAS/configuracion_auto.h: 45:     PIE1bits.RC1IE = 1;
  4434  002658  8A9D               	bsf	3997,5,c	;volatile
  4435  00265A  0012               	return		;funcret
  4436  00265C                     __end_of_configurarRS232:
  4437                           	opt callstack 0
  4438                           
  4439 ;; *************** function _configurarPuertos *****************
  4440 ;; Defined at:
  4441 ;;		line 3 in file "./../LIBRERIAS/configuracion_auto.h"
  4442 ;; Parameters:    Size  Location     Type
  4443 ;;		None
  4444 ;; Auto vars:     Size  Location     Type
  4445 ;;		None
  4446 ;; Return value:  Size  Location     Type
  4447 ;;                  1    wreg      void 
  4448 ;; Registers used:
  4449 ;;		wreg, status,2
  4450 ;; Tracked objects:
  4451 ;;		On entry : 0/0
  4452 ;;		On exit  : 0/0
  4453 ;;		Unchanged: 0/0
  4454 ;; Data sizes:     COMRAM   BANK0   BANK1   BANK2   BANK3   BANK4   BANK5   BANK6   BANK7   BANK8   BANK9  BANK10  BANK1
      +1  BANK12  BANK13  BANK14
  4455 ;;      Params:         0       0       0       0       0       0       0       0       0       0       0       0       
      +0       0       0       0
  4456 ;;      Locals:         0       0       0       0       0       0       0       0       0       0       0       0       
      +0       0       0       0
  4457 ;;      Temps:          0       0       0       0       0       0       0       0       0       0       0       0       
      +0       0       0       0
  4458 ;;      Totals:         0       0       0       0       0       0       0       0       0       0       0       0       
      +0       0       0       0
  4459 ;;Total ram usage:        0 bytes
  4460 ;; Hardware stack levels used:    1
  4461 ;; Hardware stack levels required when called:    2
  4462 ;; This function calls:
  4463 ;;		Nothing
  4464 ;; This function is called by:
  4465 ;;		_configuracionInicial
  4466 ;; This function uses a non-reentrant model
  4467 ;;
  4468                           
  4469                           	psect	text22
  4470  002694                     __ptext22:
  4471                           	opt callstack 0
  4472  002694                     _configurarPuertos:
  4473                           	opt callstack 27
  4474                           
  4475                           ;./../LIBRERIAS/configuracion_auto.h: 4:     ANCON0 = 0x7F;
  4476                           
  4477                           ;incstack = 0
  4478  002694  0E7F               	movlw	127
  4479  002696  010F               	movlb	15	; () banked
  4480  002698  6F48               	movwf	72,b	;volatile
  4481                           
  4482                           ;./../LIBRERIAS/configuracion_auto.h: 5:     ANCON1 = 0x1F;
  4483  00269A  0E1F               	movlw	31
  4484  00269C  6F49               	movwf	73,b	;volatile
  4485                           
  4486                           ; BSR set to: 15
  4487                           ;./../LIBRERIAS/configuracion_auto.h: 6:     TRISAbits.TRISA0 = 0;
  4488  00269E  9092               	bcf	3986,0,c	;volatile
  4489                           
  4490                           ; BSR set to: 15
  4491                           ;./../LIBRERIAS/configuracion_auto.h: 7:     TRISAbits.TRISA1 = 0;
  4492  0026A0  9292               	bcf	3986,1,c	;volatile
  4493                           
  4494                           ; BSR set to: 15
  4495  0026A2  0012               	return		;funcret
  4496  0026A4                     __end_of_configurarPuertos:
  4497                           	opt callstack 0
  4498                           
  4499 ;; *************** function _configurarPWM7 *****************
  4500 ;; Defined at:
  4501 ;;		line 25 in file "./../LIBRERIAS/configuracion_auto.h"
  4502 ;; Parameters:    Size  Location     Type
  4503 ;;		None
  4504 ;; Auto vars:     Size  Location     Type
  4505 ;;		None
  4506 ;; Return value:  Size  Location     Type
  4507 ;;                  1    wreg      void 
  4508 ;; Registers used:
  4509 ;;		wreg, status,2
  4510 ;; Tracked objects:
  4511 ;;		On entry : 0/0
  4512 ;;		On exit  : 0/0
  4513 ;;		Unchanged: 0/0
  4514 ;; Data sizes:     COMRAM   BANK0   BANK1   BANK2   BANK3   BANK4   BANK5   BANK6   BANK7   BANK8   BANK9  BANK10  BANK1
      +1  BANK12  BANK13  BANK14
  4515 ;;      Params:         0       0       0       0       0       0       0       0       0       0       0       0       
      +0       0       0       0
  4516 ;;      Locals:         0       0       0       0       0       0       0       0       0       0       0       0       
      +0       0       0       0
  4517 ;;      Temps:          0       0       0       0       0       0       0       0       0       0       0       0       
      +0       0       0       0
  4518 ;;      Totals:         0       0       0       0       0       0       0       0       0       0       0       0       
      +0       0       0       0
  4519 ;;Total ram usage:        0 bytes
  4520 ;; Hardware stack levels used:    1
  4521 ;; Hardware stack levels required when called:    2
  4522 ;; This function calls:
  4523 ;;		Nothing
  4524 ;; This function is called by:
  4525 ;;		_configuracionInicial
  4526 ;; This function uses a non-reentrant model
  4527 ;;
  4528                           
  4529                           	psect	text23
  4530  002604                     __ptext23:
  4531                           	opt callstack 0
  4532  002604                     _configurarPWM7:
  4533                           	opt callstack 27
  4534                           
  4535                           ;./../LIBRERIAS/configuracion_auto.h: 26:     TRISBbits.TRISB4 = 0;
  4536                           
  4537                           ; BSR set to: 15
  4538                           ;incstack = 0
  4539  002604  9893               	bcf	3987,4,c	;volatile
  4540                           
  4541                           ;./../LIBRERIAS/configuracion_auto.h: 27:     TRISBbits.TRISB7 = 0;
  4542  002606  9E93               	bcf	3987,7,c	;volatile
  4543                           
  4544                           ;./../LIBRERIAS/configuracion_auto.h: 28:     CCP7CONbits.CCP7M = 0xC;
  4545  002608  010F               	movlb	15	; () banked
  4546  00260A  5109               	movf	9,w,b	;volatile
  4547  00260C  0BF0               	andlw	-16
  4548  00260E  090C               	iorlw	12
  4549  002610  6F09               	movwf	9,b	;volatile
  4550                           
  4551                           ;./../LIBRERIAS/configuracion_auto.h: 29:     CCPTMRS1bits.C7TSEL = 0b00;
  4552  002612  0E3F               	movlw	-193
  4553  002614  1751               	andwf	81,f,b	;volatile
  4554                           
  4555                           ;./../LIBRERIAS/configuracion_auto.h: 31:     T2CON = 0x02;
  4556  002616  0E02               	movlw	2
  4557  002618  6ECA               	movwf	4042,c	;volatile
  4558                           
  4559                           ;./../LIBRERIAS/configuracion_auto.h: 32:     PR2 = 24;
  4560  00261A  0E18               	movlw	24
  4561  00261C  6ECB               	movwf	4043,c	;volatile
  4562                           
  4563                           ;./../LIBRERIAS/configuracion_auto.h: 34:     TMR2 = 0x00;
  4564  00261E  0E00               	movlw	0
  4565  002620  6ECC               	movwf	4044,c	;volatile
  4566                           
  4567                           ; BSR set to: 15
  4568  002622  0012               	return		;funcret
  4569  002624                     __end_of_configurarPWM7:
  4570                           	opt callstack 0
  4571                           
  4572 ;; *************** function _configurarInterrupciones *****************
  4573 ;; Defined at:
  4574 ;;		line 10 in file "./../LIBRERIAS/configuracion_auto.h"
  4575 ;; Parameters:    Size  Location     Type
  4576 ;;		None
  4577 ;; Auto vars:     Size  Location     Type
  4578 ;;		None
  4579 ;; Return value:  Size  Location     Type
  4580 ;;                  1    wreg      void 
  4581 ;; Registers used:
  4582 ;;		wreg, status,2
  4583 ;; Tracked objects:
  4584 ;;		On entry : 0/0
  4585 ;;		On exit  : 0/0
  4586 ;;		Unchanged: 0/0
  4587 ;; Data sizes:     COMRAM   BANK0   BANK1   BANK2   BANK3   BANK4   BANK5   BANK6   BANK7   BANK8   BANK9  BANK10  BANK1
      +1  BANK12  BANK13  BANK14
  4588 ;;      Params:         0       0       0       0       0       0       0       0       0       0       0       0       
      +0       0       0       0
  4589 ;;      Locals:         0       0       0       0       0       0       0       0       0       0       0       0       
      +0       0       0       0
  4590 ;;      Temps:          0       0       0       0       0       0       0       0       0       0       0       0       
      +0       0       0       0
  4591 ;;      Totals:         0       0       0       0       0       0       0       0       0       0       0       0       
      +0       0       0       0
  4592 ;;Total ram usage:        0 bytes
  4593 ;; Hardware stack levels used:    1
  4594 ;; Hardware stack levels required when called:    2
  4595 ;; This function calls:
  4596 ;;		Nothing
  4597 ;; This function is called by:
  4598 ;;		_configuracionInicial
  4599 ;; This function uses a non-reentrant model
  4600 ;;
  4601                           
  4602                           	psect	text24
  4603  002624                     __ptext24:
  4604                           	opt callstack 0
  4605  002624                     _configurarInterrupciones:
  4606                           	opt callstack 27
  4607                           
  4608                           ;./../LIBRERIAS/configuracion_auto.h: 11:     PPSCON = 0;
  4609                           
  4610                           ; BSR set to: 15
  4611                           ;incstack = 0
  4612  002624  0E00               	movlw	0
  4613  002626  010E               	movlb	14	; () banked
  4614  002628  6FBF               	movwf	191,b	;volatile
  4615                           
  4616                           ;./../LIBRERIAS/configuracion_auto.h: 12:     RPINR1 = 4;
  4617  00262A  0E04               	movlw	4
  4618  00262C  6FE1               	movwf	225,b	;volatile
  4619                           
  4620                           ; BSR set to: 14
  4621                           ;./../LIBRERIAS/configuracion_auto.h: 13:     TRISBbits.TRISB1 = 1;
  4622  00262E  8293               	bsf	3987,1,c	;volatile
  4623                           
  4624                           ; BSR set to: 14
  4625                           ;./../LIBRERIAS/configuracion_auto.h: 14:     TRISBbits.TRISB0 = 1;
  4626  002630  8093               	bsf	3987,0,c	;volatile
  4627                           
  4628                           ; BSR set to: 14
  4629                           ;./../LIBRERIAS/configuracion_auto.h: 15:     INTCONbits.GIE = 1;
  4630  002632  8EF2               	bsf	4082,7,c	;volatile
  4631                           
  4632                           ; BSR set to: 14
  4633                           ;./../LIBRERIAS/configuracion_auto.h: 16:     INTCONbits.PEIE = 1;
  4634  002634  8CF2               	bsf	4082,6,c	;volatile
  4635                           
  4636                           ; BSR set to: 14
  4637                           ;./../LIBRERIAS/configuracion_auto.h: 17:     INTCON2bits.INTEDG0=0;
  4638  002636  9CF1               	bcf	4081,6,c	;volatile
  4639                           
  4640                           ; BSR set to: 14
  4641                           ;./../LIBRERIAS/configuracion_auto.h: 18:     INTCON2bits.INTEDG1 = 0;
  4642  002638  9AF1               	bcf	4081,5,c	;volatile
  4643                           
  4644                           ; BSR set to: 14
  4645                           ;./../LIBRERIAS/configuracion_auto.h: 19:     INTCONbits.INT0F = 0;
  4646  00263A  92F2               	bcf	4082,1,c	;volatile
  4647                           
  4648                           ; BSR set to: 14
  4649                           ;./../LIBRERIAS/configuracion_auto.h: 20:     INTCONbits.INT0E = 1;
  4650  00263C  88F2               	bsf	4082,4,c	;volatile
  4651                           
  4652                           ; BSR set to: 14
  4653                           ;./../LIBRERIAS/configuracion_auto.h: 21:     INTCON3bits.INT1E = 1;
  4654  00263E  86F0               	bsf	4080,3,c	;volatile
  4655                           
  4656                           ; BSR set to: 14
  4657                           ;./../LIBRERIAS/configuracion_auto.h: 22:     INTCON3bits.INT1F = 0;
  4658  002640  90F0               	bcf	4080,0,c	;volatile
  4659                           
  4660                           ; BSR set to: 14
  4661  002642  0012               	return		;funcret
  4662  002644                     __end_of_configurarInterrupciones:
  4663                           	opt callstack 0
  4664                           
  4665 ;; *************** function _cambiarEstadoFuego *****************
  4666 ;; Defined at:
  4667 ;;		line 375 in file "auto.c"
  4668 ;; Parameters:    Size  Location     Type
  4669 ;;		None
  4670 ;; Auto vars:     Size  Location     Type
  4671 ;;  angulo          2    9[BANK0 ] unsigned int 
  4672 ;; Return value:  Size  Location     Type
  4673 ;;                  1    wreg      void 
  4674 ;; Registers used:
  4675 ;;		wreg, status,2, status,0, cstack
  4676 ;; Tracked objects:
  4677 ;;		On entry : 0/0
  4678 ;;		On exit  : 0/0
  4679 ;;		Unchanged: 0/0
  4680 ;; Data sizes:     COMRAM   BANK0   BANK1   BANK2   BANK3   BANK4   BANK5   BANK6   BANK7   BANK8   BANK9  BANK10  BANK1
      +1  BANK12  BANK13  BANK14
  4681 ;;      Params:         0       0       0       0       0       0       0       0       0       0       0       0       
      +0       0       0       0
  4682 ;;      Locals:         0       2       0       0       0       0       0       0       0       0       0       0       
      +0       0       0       0
  4683 ;;      Temps:          0       2       0       0       0       0       0       0       0       0       0       0       
      +0       0       0       0
  4684 ;;      Totals:         0       4       0       0       0       0       0       0       0       0       0       0       
      +0       0       0       0
  4685 ;;Total ram usage:        4 bytes
  4686 ;; Hardware stack levels used:    1
  4687 ;; Hardware stack levels required when called:    3
  4688 ;; This function calls:
  4689 ;;		_dirreccion
  4690 ;;		_estadoDirreccion
  4691 ;;		_frenarMotor
  4692 ;; This function is called by:
  4693 ;;		_main
  4694 ;; This function uses a non-reentrant model
  4695 ;;
  4696                           
  4697                           	psect	text25
  4698  0021BC                     __ptext25:
  4699                           	opt callstack 0
  4700  0021BC                     _cambiarEstadoFuego:
  4701                           	opt callstack 27
  4702                           
  4703                           ;auto.c: 377:     bandera_fuego = 0;
  4704                           
  4705                           ; BSR set to: 14
  4706                           ;incstack = 0
  4707  0021BC  0E00               	movlw	0
  4708  0021BE  0100               	movlb	0	; () banked
  4709  0021C0  6FDA               	movwf	_bandera_fuego& (0+255),b
  4710                           
  4711                           ;auto.c: 378:     switch(estadoFuego){
  4712  0021C2  D039               	goto	l4149
  4713  0021C4                     l4125:
  4714                           
  4715                           ; BSR set to: 0
  4716                           ;auto.c: 380:             TIME_FUEGO = 8000;
  4717  0021C4  0E40               	movlw	64
  4718  0021C6  6E2A               	movwf	_TIME_FUEGO,c
  4719  0021C8  0E1F               	movlw	31
  4720  0021CA  6E2B               	movwf	_TIME_FUEGO+1,c
  4721  0021CC  0E00               	movlw	0
  4722  0021CE  6E2C               	movwf	_TIME_FUEGO+2,c
  4723  0021D0  0E00               	movlw	0
  4724  0021D2  6E2D               	movwf	_TIME_FUEGO+3,c
  4725                           
  4726                           ; BSR set to: 0
  4727                           ;auto.c: 381:             angulo = estadoDirreccion(1);
  4728  0021D4  0E01               	movlw	1
  4729  0021D6  ECB6  F011         	call	_estadoDirreccion
  4730  0021DA  C060  F069         	movff	?_estadoDirreccion,cambiarEstadoFuego@angulo
  4731  0021DE  C061  F06A         	movff	?_estadoDirreccion+1,cambiarEstadoFuego@angulo+1
  4732                           
  4733                           ;auto.c: 382:             dirreccion(angulo);
  4734  0021E2  C069  F060         	movff	cambiarEstadoFuego@angulo,dirreccion@degree
  4735  0021E6  C06A  F061         	movff	cambiarEstadoFuego@angulo+1,dirreccion@degree+1
  4736  0021EA  EC2D  F011         	call	_dirreccion	;wreg free
  4737                           
  4738                           ;auto.c: 383:             estadoFuego = 'w';
  4739  0021EE  0E77               	movlw	119
  4740  0021F0  6E3D               	movwf	_estadoFuego,c
  4741                           
  4742                           ;auto.c: 384:             T8CONbits.TMR8ON = 1;
  4743  0021F2  010F               	movlb	15	; () banked
  4744  0021F4  851B               	bsf	27,2,b	;volatile
  4745                           
  4746                           ;auto.c: 385:             break;
  4747  0021F6  0012               	return	
  4748  0021F8                     l4133:
  4749                           
  4750                           ; BSR set to: 0
  4751                           ;auto.c: 387:             TIME_FUEGO = 6000;
  4752  0021F8  0E70               	movlw	112
  4753  0021FA  6E2A               	movwf	_TIME_FUEGO,c
  4754  0021FC  0E17               	movlw	23
  4755  0021FE  6E2B               	movwf	_TIME_FUEGO+1,c
  4756  002200  0E00               	movlw	0
  4757  002202  6E2C               	movwf	_TIME_FUEGO+2,c
  4758  002204  0E00               	movlw	0
  4759  002206  6E2D               	movwf	_TIME_FUEGO+3,c
  4760                           
  4761                           ; BSR set to: 0
  4762                           ;auto.c: 388:             dirreccion(0);
  4763  002208  0E00               	movlw	0
  4764  00220A  6F61               	movwf	(dirreccion@degree+1)& (0+255),b
  4765  00220C  0E00               	movlw	0
  4766  00220E  6F60               	movwf	dirreccion@degree& (0+255),b
  4767  002210  EC2D  F011         	call	_dirreccion	;wreg free
  4768                           
  4769                           ;auto.c: 389:             estadoFuego = 'a';
  4770  002214  0E61               	movlw	97
  4771  002216  6E3D               	movwf	_estadoFuego,c
  4772                           
  4773                           ;auto.c: 390:             T8CONbits.TMR8ON = 1;
  4774  002218  010F               	movlb	15	; () banked
  4775  00221A  851B               	bsf	27,2,b	;volatile
  4776                           
  4777                           ;auto.c: 391:             break;
  4778  00221C  0012               	return	
  4779  00221E                     l4141:
  4780                           
  4781                           ; BSR set to: 0
  4782                           ;auto.c: 393:             estado = 'c';
  4783  00221E  0E63               	movlw	99
  4784  002220  6E3C               	movwf	_estado,c
  4785                           
  4786                           ; BSR set to: 0
  4787                           ;auto.c: 394:             frenarMotor();
  4788  002222  EC52  F013         	call	_frenarMotor	;wreg free
  4789                           
  4790                           ;auto.c: 395:             dirreccion(90);
  4791  002226  0E00               	movlw	0
  4792  002228  0100               	movlb	0	; () banked
  4793  00222A  6F61               	movwf	(dirreccion@degree+1)& (0+255),b
  4794  00222C  0E5A               	movlw	90
  4795  00222E  6F60               	movwf	dirreccion@degree& (0+255),b
  4796  002230  EC2D  F011         	call	_dirreccion	;wreg free
  4797                           
  4798                           ;auto.c: 396:             break;
  4799  002234  0012               	return	
  4800  002236                     l4149:
  4801                           
  4802                           ; BSR set to: 0
  4803  002236  503D               	movf	_estadoFuego,w,c
  4804  002238  6F67               	movwf	??_cambiarEstadoFuego& (0+255),b
  4805  00223A  6B68               	clrf	(??_cambiarEstadoFuego+1)& (0+255),b
  4806                           
  4807                           ; Switch on 2 bytes has been partitioned into a top level switch of size 1, and 1 sub-sw
      +                          itches
  4808                           ; Switch size 1, requested type "simple"
  4809                           ; Number of cases is 1, Range of values is 0 to 0
  4810                           ; switch strategies available:
  4811                           ; Name         Instructions Cycles
  4812                           ; simple_byte            4     3 (average)
  4813                           ;	Chosen strategy is simple_byte
  4814  00223C  5168               	movf	(??_cambiarEstadoFuego+1)& (0+255),w,b
  4815  00223E  0A00               	xorlw	0	; case 0
  4816  002240  A4D8               	btfss	status,2,c
  4817  002242  0012               	return	
  4818                           
  4819                           ; BSR set to: 0
  4820                           ; Switch size 1, requested type "simple"
  4821                           ; Number of cases is 3, Range of values is 0 to 119
  4822                           ; switch strategies available:
  4823                           ; Name         Instructions Cycles
  4824                           ; simple_byte           10     6 (average)
  4825                           ;	Chosen strategy is simple_byte
  4826  002244  5167               	movf	??_cambiarEstadoFuego& (0+255),w,b
  4827  002246  0A00               	xorlw	0	; case 0
  4828  002248  B4D8               	btfsc	status,2,c
  4829  00224A  D7BC               	goto	l4125
  4830  00224C  0A61               	xorlw	97	; case 97
  4831  00224E  B4D8               	btfsc	status,2,c
  4832  002250  D7E6               	goto	l4141
  4833  002252  0A16               	xorlw	22	; case 119
  4834  002254  A4D8               	btfss	status,2,c
  4835  002256  0012               	return	
  4836  002258  D7CF               	goto	l4133
  4837  00225A                     __end_of_cambiarEstadoFuego:
  4838                           	opt callstack 0
  4839                           
  4840 ;; *************** function _frenarMotor *****************
  4841 ;; Defined at:
  4842 ;;		line 49 in file "./../LIBRERIAS/funciones_auto.h"
  4843 ;; Parameters:    Size  Location     Type
  4844 ;;		None
  4845 ;; Auto vars:     Size  Location     Type
  4846 ;;		None
  4847 ;; Return value:  Size  Location     Type
  4848 ;;                  1    wreg      void 
  4849 ;; Registers used:
  4850 ;;		wreg, status,2
  4851 ;; Tracked objects:
  4852 ;;		On entry : 0/0
  4853 ;;		On exit  : 0/0
  4854 ;;		Unchanged: 0/0
  4855 ;; Data sizes:     COMRAM   BANK0   BANK1   BANK2   BANK3   BANK4   BANK5   BANK6   BANK7   BANK8   BANK9  BANK10  BANK1
      +1  BANK12  BANK13  BANK14
  4856 ;;      Params:         0       0       0       0       0       0       0       0       0       0       0       0       
      +0       0       0       0
  4857 ;;      Locals:         0       0       0       0       0       0       0       0       0       0       0       0       
      +0       0       0       0
  4858 ;;      Temps:          0       0       0       0       0       0       0       0       0       0       0       0       
      +0       0       0       0
  4859 ;;      Totals:         0       0       0       0       0       0       0       0       0       0       0       0       
      +0       0       0       0
  4860 ;;Total ram usage:        0 bytes
  4861 ;; Hardware stack levels used:    1
  4862 ;; Hardware stack levels required when called:    2
  4863 ;; This function calls:
  4864 ;;		Nothing
  4865 ;; This function is called by:
  4866 ;;		_main
  4867 ;;		_terminal
  4868 ;;		_rutinaEscape
  4869 ;;		_cambiarEstadoFuego
  4870 ;; This function uses a non-reentrant model
  4871 ;;
  4872                           
  4873                           	psect	text26
  4874  0026A4                     __ptext26:
  4875                           	opt callstack 0
  4876  0026A4                     _frenarMotor:
  4877                           	opt callstack 27
  4878                           
  4879                           ;./../LIBRERIAS/funciones_auto.h: 50:     CCP7CONbits.DC7B = 0b00;
  4880                           
  4881                           ;incstack = 0
  4882  0026A4  0ECF               	movlw	-49
  4883  0026A6  010F               	movlb	15	; () banked
  4884  0026A8  1709               	andwf	9,f,b	;volatile
  4885                           
  4886                           ;./../LIBRERIAS/funciones_auto.h: 51:     CCPR7L = 0x00;
  4887  0026AA  0E00               	movlw	0
  4888  0026AC  6F0A               	movwf	10,b	;volatile
  4889                           
  4890                           ;./../LIBRERIAS/funciones_auto.h: 52:     motor = 0;
  4891  0026AE  0E00               	movlw	0
  4892  0026B0  6E41               	movwf	_motor,c
  4893                           
  4894                           ; BSR set to: 15
  4895  0026B2  0012               	return		;funcret
  4896  0026B4                     __end_of_frenarMotor:
  4897                           	opt callstack 0
  4898                           
  4899 ;; *************** function _estadoDirreccion *****************
  4900 ;; Defined at:
  4901 ;;		line 243 in file "auto.c"
  4902 ;; Parameters:    Size  Location     Type
  4903 ;;  valor           1    wreg     unsigned char 
  4904 ;; Auto vars:     Size  Location     Type
  4905 ;;  valor           1    6[BANK0 ] unsigned char 
  4906 ;;  angulo          2    4[BANK0 ] unsigned int 
  4907 ;; Return value:  Size  Location     Type
  4908 ;;                  2    0[BANK0 ] unsigned int 
  4909 ;; Registers used:
  4910 ;;		wreg, status,2, status,0
  4911 ;; Tracked objects:
  4912 ;;		On entry : 0/0
  4913 ;;		On exit  : 0/0
  4914 ;;		Unchanged: 0/0
  4915 ;; Data sizes:     COMRAM   BANK0   BANK1   BANK2   BANK3   BANK4   BANK5   BANK6   BANK7   BANK8   BANK9  BANK10  BANK1
      +1  BANK12  BANK13  BANK14
  4916 ;;      Params:         0       2       0       0       0       0       0       0       0       0       0       0       
      +0       0       0       0
  4917 ;;      Locals:         0       3       0       0       0       0       0       0       0       0       0       0       
      +0       0       0       0
  4918 ;;      Temps:          0       2       0       0       0       0       0       0       0       0       0       0       
      +0       0       0       0
  4919 ;;      Totals:         0       7       0       0       0       0       0       0       0       0       0       0       
      +0       0       0       0
  4920 ;;Total ram usage:        7 bytes
  4921 ;; Hardware stack levels used:    1
  4922 ;; Hardware stack levels required when called:    2
  4923 ;; This function calls:
  4924 ;;		Nothing
  4925 ;; This function is called by:
  4926 ;;		_terminal
  4927 ;;		_cambiarEstadoFuego
  4928 ;; This function uses a non-reentrant model
  4929 ;;
  4930                           
  4931                           	psect	text27
  4932  00236C                     __ptext27:
  4933                           	opt callstack 0
  4934  00236C                     _estadoDirreccion:
  4935                           	opt callstack 27
  4936                           
  4937                           ; BSR set to: 15
  4938                           ;incstack = 0
  4939                           ;estadoDirreccion@valor stored from wreg
  4940  00236C  0100               	movlb	0	; () banked
  4941  00236E  6F66               	movwf	estadoDirreccion@valor& (0+255),b
  4942                           
  4943                           ;auto.c: 244:     unsigned int angulo = 90;
  4944  002370  0E00               	movlw	0
  4945  002372  0100               	movlb	0	; () banked
  4946  002374  6F65               	movwf	(estadoDirreccion@angulo+1)& (0+255),b
  4947  002376  0E5A               	movlw	90
  4948  002378  6F64               	movwf	estadoDirreccion@angulo& (0+255),b
  4949                           
  4950                           ;auto.c: 245:     switch(servo_dirreccion){
  4951  00237A  D023               	goto	l4039
  4952  00237C                     l4019:
  4953                           
  4954                           ; BSR set to: 0
  4955                           ;auto.c: 247:             if(valor == 1){
  4956  00237C  0566               	decf	estadoDirreccion@valor& (0+255),w,b
  4957  00237E  A4D8               	btfss	status,2,c
  4958  002380  D006               	goto	l4023
  4959                           
  4960                           ; BSR set to: 0
  4961                           ;auto.c: 248:                 servo_dirreccion = 1;
  4962  002382  0E01               	movlw	1
  4963  002384  6E3F               	movwf	_servo_dirreccion,c
  4964  002386                     
  4965                           ;auto.c: 249:                 angulo = 0;
  4966  002386  0E00               	movlw	0
  4967  002388  6F65               	movwf	(estadoDirreccion@angulo+1)& (0+255),b
  4968  00238A  0E00               	movlw	0
  4969  00238C  D018               	goto	L9
  4970  00238E                     l4023:
  4971                           
  4972                           ; BSR set to: 0
  4973                           ;auto.c: 252:                 servo_dirreccion = 2;
  4974  00238E  0E02               	movlw	2
  4975  002390  6E3F               	movwf	_servo_dirreccion,c
  4976  002392  D012               	goto	l4035
  4977  002394                     l4025:
  4978                           
  4979                           ; BSR set to: 0
  4980                           ;auto.c: 257:             if(valor != 1){
  4981  002394  0566               	decf	estadoDirreccion@valor& (0+255),w,b
  4982  002396  B4D8               	btfsc	status,2,c
  4983  002398  D7F6               	goto	L10
  4984                           
  4985                           ; BSR set to: 0
  4986                           ;auto.c: 258:                 servo_dirreccion = 0;
  4987  00239A  0E00               	movlw	0
  4988  00239C  6E3F               	movwf	_servo_dirreccion,c
  4989                           
  4990                           ;auto.c: 259:                 angulo = 90;
  4991  00239E  0E00               	movlw	0
  4992  0023A0  6F65               	movwf	(estadoDirreccion@angulo+1)& (0+255),b
  4993  0023A2  0E5A               	movlw	90
  4994  0023A4  D00C               	goto	L9
  4995  0023A6                     l4031:
  4996                           
  4997                           ; BSR set to: 0
  4998                           ;auto.c: 266:             if(valor == 1){
  4999  0023A6  0566               	decf	estadoDirreccion@valor& (0+255),w,b
  5000  0023A8  A4D8               	btfss	status,2,c
  5001  0023AA  D006               	goto	l4035
  5002                           
  5003                           ; BSR set to: 0
  5004                           ;auto.c: 267:                 servo_dirreccion = 0;
  5005  0023AC  0E00               	movlw	0
  5006  0023AE  6E3F               	movwf	_servo_dirreccion,c
  5007                           
  5008                           ;auto.c: 268:                 angulo = 85;
  5009  0023B0  0E00               	movlw	0
  5010  0023B2  6F65               	movwf	(estadoDirreccion@angulo+1)& (0+255),b
  5011  0023B4  0E55               	movlw	85
  5012  0023B6  D003               	goto	L9
  5013  0023B8                     l4035:
  5014                           
  5015                           ; BSR set to: 0
  5016                           ;auto.c: 271:                 angulo = 180;
  5017  0023B8  0E00               	movlw	0
  5018  0023BA  6F65               	movwf	(estadoDirreccion@angulo+1)& (0+255),b
  5019  0023BC  0EB4               	movlw	180
  5020  0023BE                     L9:
  5021  0023BE  6F64               	movwf	estadoDirreccion@angulo& (0+255),b
  5022  0023C0  D011               	goto	l299
  5023  0023C2                     l4039:
  5024                           
  5025                           ; BSR set to: 0
  5026  0023C2  503F               	movf	_servo_dirreccion,w,c
  5027  0023C4  6F62               	movwf	??_estadoDirreccion& (0+255),b
  5028  0023C6  6B63               	clrf	(??_estadoDirreccion+1)& (0+255),b
  5029                           
  5030                           ; Switch on 2 bytes has been partitioned into a top level switch of size 1, and 1 sub-sw
      +                          itches
  5031                           ; Switch size 1, requested type "simple"
  5032                           ; Number of cases is 1, Range of values is 0 to 0
  5033                           ; switch strategies available:
  5034                           ; Name         Instructions Cycles
  5035                           ; simple_byte            4     3 (average)
  5036                           ;	Chosen strategy is simple_byte
  5037  0023C8  5163               	movf	(??_estadoDirreccion+1)& (0+255),w,b
  5038  0023CA  0A00               	xorlw	0	; case 0
  5039  0023CC  A4D8               	btfss	status,2,c
  5040  0023CE  D00A               	goto	l299
  5041                           
  5042                           ; BSR set to: 0
  5043                           ; Switch size 1, requested type "simple"
  5044                           ; Number of cases is 3, Range of values is 0 to 2
  5045                           ; switch strategies available:
  5046                           ; Name         Instructions Cycles
  5047                           ; simple_byte           10     6 (average)
  5048                           ;	Chosen strategy is simple_byte
  5049  0023D0  5162               	movf	??_estadoDirreccion& (0+255),w,b
  5050  0023D2  0A00               	xorlw	0	; case 0
  5051  0023D4  B4D8               	btfsc	status,2,c
  5052  0023D6  D7D2               	goto	l4019
  5053  0023D8  0A01               	xorlw	1	; case 1
  5054  0023DA  B4D8               	btfsc	status,2,c
  5055  0023DC  D7DB               	goto	l4025
  5056  0023DE  0A03               	xorlw	3	; case 2
  5057  0023E0  B4D8               	btfsc	status,2,c
  5058  0023E2  D7E1               	goto	l4031
  5059  0023E4                     l299:
  5060                           
  5061                           ; BSR set to: 0
  5062                           ;auto.c: 275:     return angulo;
  5063  0023E4  C064  F060         	movff	estadoDirreccion@angulo,?_estadoDirreccion
  5064  0023E8  C065  F061         	movff	estadoDirreccion@angulo+1,?_estadoDirreccion+1
  5065                           
  5066                           ; BSR set to: 0
  5067  0023EC  0012               	return		;funcret
  5068  0023EE                     __end_of_estadoDirreccion:
  5069                           	opt callstack 0
  5070                           
  5071 ;; *************** function _dirreccion *****************
  5072 ;; Defined at:
  5073 ;;		line 278 in file "auto.c"
  5074 ;; Parameters:    Size  Location     Type
  5075 ;;  degree          2    0[BANK0 ] unsigned int 
  5076 ;; Auto vars:     Size  Location     Type
  5077 ;;  tiempo_1        1    4[BANK0 ] unsigned char 
  5078 ;; Return value:  Size  Location     Type
  5079 ;;                  1    wreg      void 
  5080 ;; Registers used:
  5081 ;;		wreg, status,2, status,0
  5082 ;; Tracked objects:
  5083 ;;		On entry : 0/0
  5084 ;;		On exit  : 0/0
  5085 ;;		Unchanged: 0/0
  5086 ;; Data sizes:     COMRAM   BANK0   BANK1   BANK2   BANK3   BANK4   BANK5   BANK6   BANK7   BANK8   BANK9  BANK10  BANK1
      +1  BANK12  BANK13  BANK14
  5087 ;;      Params:         0       2       0       0       0       0       0       0       0       0       0       0       
      +0       0       0       0
  5088 ;;      Locals:         0       1       0       0       0       0       0       0       0       0       0       0       
      +0       0       0       0
  5089 ;;      Temps:          0       2       0       0       0       0       0       0       0       0       0       0       
      +0       0       0       0
  5090 ;;      Totals:         0       5       0       0       0       0       0       0       0       0       0       0       
      +0       0       0       0
  5091 ;;Total ram usage:        5 bytes
  5092 ;; Hardware stack levels used:    1
  5093 ;; Hardware stack levels required when called:    2
  5094 ;; This function calls:
  5095 ;;		Nothing
  5096 ;; This function is called by:
  5097 ;;		_terminal
  5098 ;;		_rutinaEscape
  5099 ;;		_cambiarEstadoFuego
  5100 ;; This function uses a non-reentrant model
  5101 ;;
  5102                           
  5103                           	psect	text28
  5104  00225A                     __ptext28:
  5105                           	opt callstack 0
  5106  00225A                     _dirreccion:
  5107                           	opt callstack 27
  5108                           
  5109                           ;auto.c: 279:     unsigned char tiempo_1 = 61;
  5110                           
  5111                           ; BSR set to: 0
  5112                           ;incstack = 0
  5113  00225A  0E3D               	movlw	61
  5114  00225C  0100               	movlb	0	; () banked
  5115  00225E  6F64               	movwf	dirreccion@tiempo_1& (0+255),b
  5116                           
  5117                           ;auto.c: 280:     contador_timer_5 = 0;
  5118  002260  0E00               	movlw	0
  5119  002262  6E39               	movwf	_contador_timer_5+1,c
  5120  002264  0E00               	movlw	0
  5121  002266  6E38               	movwf	_contador_timer_5,c
  5122                           
  5123                           ;auto.c: 281:     parar = 0;
  5124  002268  0E00               	movlw	0
  5125  00226A  6E3B               	movwf	_parar+1,c
  5126  00226C  0E00               	movlw	0
  5127  00226E  6E3A               	movwf	_parar,c
  5128                           
  5129                           ;auto.c: 282:     switch(degree){
  5130  002270  D00D               	goto	l4057
  5131  002272                     l4047:
  5132                           
  5133                           ; BSR set to: 0
  5134                           ;auto.c: 284:             tiempo_1 = 57;
  5135  002272  0E39               	movlw	57
  5136  002274  6F64               	movwf	dirreccion@tiempo_1& (0+255),b
  5137                           
  5138                           ;auto.c: 285:             servo_dirreccion = 0;
  5139  002276  0E00               	movlw	0
  5140  002278  D007               	goto	L12
  5141  00227A                     l4051:
  5142                           
  5143                           ; BSR set to: 0
  5144                           ;auto.c: 292:             tiempo_1 = 65;
  5145  00227A  0E41               	movlw	65
  5146  00227C  6F64               	movwf	dirreccion@tiempo_1& (0+255),b
  5147                           
  5148                           ;auto.c: 293:             servo_dirreccion = 1;
  5149  00227E  0E01               	movlw	1
  5150  002280  D003               	goto	L12
  5151  002282                     l4053:
  5152                           
  5153                           ; BSR set to: 0
  5154                           ;auto.c: 296:             tiempo_1 = 50;
  5155  002282  0E32               	movlw	50
  5156  002284  6F64               	movwf	dirreccion@tiempo_1& (0+255),b
  5157                           
  5158                           ;auto.c: 297:             servo_dirreccion = 2;
  5159  002286  0E02               	movlw	2
  5160  002288                     L12:
  5161  002288  6E3F               	movwf	_servo_dirreccion,c
  5162                           
  5163                           ;auto.c: 298:             break;
  5164  00228A  D015               	goto	l311
  5165  00228C                     l4057:
  5166                           
  5167                           ; BSR set to: 0
  5168  00228C  C060  F062         	movff	dirreccion@degree,??_dirreccion
  5169  002290  C061  F063         	movff	dirreccion@degree+1,??_dirreccion+1
  5170                           
  5171                           ; Switch on 2 bytes has been partitioned into a top level switch of size 1, and 1 sub-sw
      +                          itches
  5172                           ; Switch size 1, requested type "simple"
  5173                           ; Number of cases is 1, Range of values is 0 to 0
  5174                           ; switch strategies available:
  5175                           ; Name         Instructions Cycles
  5176                           ; simple_byte            4     3 (average)
  5177                           ;	Chosen strategy is simple_byte
  5178  002294  5163               	movf	(??_dirreccion+1)& (0+255),w,b
  5179  002296  0A00               	xorlw	0	; case 0
  5180  002298  A4D8               	btfss	status,2,c
  5181  00229A  D00D               	goto	l311
  5182                           
  5183                           ; BSR set to: 0
  5184                           ; Switch size 1, requested type "simple"
  5185                           ; Number of cases is 4, Range of values is 0 to 180
  5186                           ; switch strategies available:
  5187                           ; Name         Instructions Cycles
  5188                           ; simple_byte           13     7 (average)
  5189                           ;	Chosen strategy is simple_byte
  5190  00229C  5162               	movf	??_dirreccion& (0+255),w,b
  5191  00229E  0A00               	xorlw	0	; case 0
  5192  0022A0  B4D8               	btfsc	status,2,c
  5193  0022A2  D7EB               	goto	l4051
  5194  0022A4  0A55               	xorlw	85	; case 85
  5195  0022A6  B4D8               	btfsc	status,2,c
  5196  0022A8  D7E4               	goto	l4047
  5197  0022AA  0A0F               	xorlw	15	; case 90
  5198  0022AC  B4D8               	btfsc	status,2,c
  5199  0022AE  D7E1               	goto	l4047
  5200  0022B0  0AEE               	xorlw	238	; case 180
  5201  0022B2  B4D8               	btfsc	status,2,c
  5202  0022B4  D7E6               	goto	l4053
  5203  0022B6                     l311:
  5204                           
  5205                           ; BSR set to: 0
  5206                           ;auto.c: 300:     if(PORTDbits.RD4 != 1){
  5207  0022B6  B883               	btfsc	3971,4,c	;volatile
  5208  0022B8  D005               	goto	l4061
  5209                           
  5210                           ; BSR set to: 0
  5211                           ;auto.c: 301:         TIME_MAX = tiempo_1;
  5212  0022BA  C064  F04E         	movff	dirreccion@tiempo_1,_TIME_MAX
  5213  0022BE  6A4F               	clrf	_TIME_MAX+1,c
  5214                           
  5215                           ;auto.c: 302:         PORTDbits.RD4 = 1;
  5216  0022C0  8883               	bsf	3971,4,c	;volatile
  5217                           
  5218                           ;auto.c: 303:     }
  5219  0022C2  D009               	goto	l4065
  5220  0022C4                     l4061:
  5221                           
  5222                           ; BSR set to: 0
  5223                           ;auto.c: 305:         TIME_MAX = 1000 - tiempo_1;
  5224  0022C4  5164               	movf	dirreccion@tiempo_1& (0+255),w,b
  5225  0022C6  08E8               	sublw	232
  5226  0022C8  6E4E               	movwf	_TIME_MAX,c
  5227  0022CA  0E00               	movlw	0
  5228  0022CC  A0D8               	btfss	status,0,c
  5229  0022CE  2AE8               	incf	wreg,f,c
  5230  0022D0  0803               	sublw	3
  5231  0022D2  6E4F               	movwf	_TIME_MAX+1,c
  5232                           
  5233                           ; BSR set to: 0
  5234                           ;auto.c: 306:         PORTDbits.RD4 = 0;
  5235  0022D4  9883               	bcf	3971,4,c	;volatile
  5236  0022D6                     l4065:
  5237                           
  5238                           ; BSR set to: 0
  5239                           ;auto.c: 308:     contador_timer_5 = 0;
  5240  0022D6  0E00               	movlw	0
  5241  0022D8  6E39               	movwf	_contador_timer_5+1,c
  5242  0022DA  0E00               	movlw	0
  5243  0022DC  6E38               	movwf	_contador_timer_5,c
  5244                           
  5245                           ; BSR set to: 0
  5246                           ;auto.c: 309:     bandera_servo = 0;
  5247  0022DE  0E00               	movlw	0
  5248  0022E0  6FD8               	movwf	_bandera_servo& (0+255),b
  5249                           
  5250                           ; BSR set to: 0
  5251                           ;auto.c: 310:     T5CONbits.TMR5ON = 1;
  5252  0022E2  010F               	movlb	15	; () banked
  5253  0022E4  8122               	bsf	34,0,b	;volatile
  5254                           
  5255                           ; BSR set to: 15
  5256  0022E6  0012               	return		;funcret
  5257  0022E8                     __end_of_dirreccion:
  5258                           	opt callstack 0
  5259                           
  5260 ;; *************** function ___flge *****************
  5261 ;; Defined at:
  5262 ;;		line 4 in file "C:\Program Files (x86)\Microchip\xc8\v2.05\pic\sources\c99\common\flge.c"
  5263 ;; Parameters:    Size  Location     Type
  5264 ;;  ff1             4    0[BANK0 ] void 
  5265 ;;  ff2             4    4[BANK0 ] void 
  5266 ;; Auto vars:     Size  Location     Type
  5267 ;;		None
  5268 ;; Return value:  Size  Location     Type
  5269 ;;		None               void
  5270 ;; Registers used:
  5271 ;;		wreg, status,2, status,0
  5272 ;; Tracked objects:
  5273 ;;		On entry : 0/0
  5274 ;;		On exit  : 0/0
  5275 ;;		Unchanged: 0/0
  5276 ;; Data sizes:     COMRAM   BANK0   BANK1   BANK2   BANK3   BANK4   BANK5   BANK6   BANK7   BANK8   BANK9  BANK10  BANK1
      +1  BANK12  BANK13  BANK14
  5277 ;;      Params:         0       8       0       0       0       0       0       0       0       0       0       0       
      +0       0       0       0
  5278 ;;      Locals:         0       0       0       0       0       0       0       0       0       0       0       0       
      +0       0       0       0
  5279 ;;      Temps:          0       4       0       0       0       0       0       0       0       0       0       0       
      +0       0       0       0
  5280 ;;      Totals:         0      12       0       0       0       0       0       0       0       0       0       0       
      +0       0       0       0
  5281 ;;Total ram usage:       12 bytes
  5282 ;; Hardware stack levels used:    1
  5283 ;; Hardware stack levels required when called:    2
  5284 ;; This function calls:
  5285 ;;		Nothing
  5286 ;; This function is called by:
  5287 ;;		_main
  5288 ;; This function uses a non-reentrant model
  5289 ;;
  5290                           
  5291                           	psect	text29
  5292  001F8E                     __ptext29:
  5293                           	opt callstack 0
  5294  001F8E                     ___flge:
  5295                           	opt callstack 28
  5296                           
  5297                           ; BSR set to: 15
  5298                           ;incstack = 0
  5299  001F8E  0E00               	movlw	0
  5300  001F90  0100               	movlb	0	; () banked
  5301  001F92  1560               	andwf	___flge@ff1& (0+255),w,b
  5302  001F94  6F68               	movwf	??___flge& (0+255),b
  5303  001F96  0E00               	movlw	0
  5304  001F98  1561               	andwf	(___flge@ff1+1)& (0+255),w,b
  5305  001F9A  6F69               	movwf	(??___flge+1)& (0+255),b
  5306  001F9C  0E80               	movlw	128
  5307  001F9E  1562               	andwf	(___flge@ff1+2)& (0+255),w,b
  5308  001FA0  6F6A               	movwf	(??___flge+2)& (0+255),b
  5309  001FA2  0E7F               	movlw	127
  5310  001FA4  1563               	andwf	(___flge@ff1+3)& (0+255),w,b
  5311  001FA6  6F6B               	movwf	(??___flge+3)& (0+255),b
  5312  001FA8  5168               	movf	??___flge& (0+255),w,b
  5313  001FAA  1169               	iorwf	(??___flge+1)& (0+255),w,b
  5314  001FAC  116A               	iorwf	(??___flge+2)& (0+255),w,b
  5315  001FAE  116B               	iorwf	(??___flge+3)& (0+255),w,b
  5316  001FB0  A4D8               	btfss	status,2,c
  5317  001FB2  D008               	goto	l4225
  5318                           
  5319                           ; BSR set to: 0
  5320  001FB4  0E00               	movlw	0
  5321  001FB6  6F60               	movwf	___flge@ff1& (0+255),b
  5322  001FB8  0E00               	movlw	0
  5323  001FBA  6F61               	movwf	(___flge@ff1+1)& (0+255),b
  5324  001FBC  0E00               	movlw	0
  5325  001FBE  6F62               	movwf	(___flge@ff1+2)& (0+255),b
  5326  001FC0  0E00               	movlw	0
  5327  001FC2  6F63               	movwf	(___flge@ff1+3)& (0+255),b
  5328  001FC4                     l4225:
  5329                           
  5330                           ; BSR set to: 0
  5331  001FC4  0E00               	movlw	0
  5332  001FC6  1564               	andwf	___flge@ff2& (0+255),w,b
  5333  001FC8  6F68               	movwf	??___flge& (0+255),b
  5334  001FCA  0E00               	movlw	0
  5335  001FCC  1565               	andwf	(___flge@ff2+1)& (0+255),w,b
  5336  001FCE  6F69               	movwf	(??___flge+1)& (0+255),b
  5337  001FD0  0E80               	movlw	128
  5338  001FD2  1566               	andwf	(___flge@ff2+2)& (0+255),w,b
  5339  001FD4  6F6A               	movwf	(??___flge+2)& (0+255),b
  5340  001FD6  0E7F               	movlw	127
  5341  001FD8  1567               	andwf	(___flge@ff2+3)& (0+255),w,b
  5342  001FDA  6F6B               	movwf	(??___flge+3)& (0+255),b
  5343  001FDC  5168               	movf	??___flge& (0+255),w,b
  5344  001FDE  1169               	iorwf	(??___flge+1)& (0+255),w,b
  5345  001FE0  116A               	iorwf	(??___flge+2)& (0+255),w,b
  5346  001FE2  116B               	iorwf	(??___flge+3)& (0+255),w,b
  5347  001FE4  A4D8               	btfss	status,2,c
  5348  001FE6  D008               	goto	l4229
  5349                           
  5350                           ; BSR set to: 0
  5351  001FE8  0E00               	movlw	0
  5352  001FEA  6F64               	movwf	___flge@ff2& (0+255),b
  5353  001FEC  0E00               	movlw	0
  5354  001FEE  6F65               	movwf	(___flge@ff2+1)& (0+255),b
  5355  001FF0  0E00               	movlw	0
  5356  001FF2  6F66               	movwf	(___flge@ff2+2)& (0+255),b
  5357  001FF4  0E00               	movlw	0
  5358  001FF6  6F67               	movwf	(___flge@ff2+3)& (0+255),b
  5359  001FF8                     l4229:
  5360                           
  5361                           ; BSR set to: 0
  5362  001FF8  AF63               	btfss	(___flge@ff1+3)& (0+255),7,b
  5363  001FFA  D009               	goto	l4233
  5364                           
  5365                           ; BSR set to: 0
  5366  001FFC  6D60               	negf	___flge@ff1& (0+255),b
  5367  001FFE  1F61               	comf	(___flge@ff1+1)& (0+255),f,b
  5368  002000  B0D8               	btfsc	status,0,c
  5369  002002  2B61               	incf	(___flge@ff1+1)& (0+255),f,b
  5370  002004  1F62               	comf	(___flge@ff1+2)& (0+255),f,b
  5371  002006  B0D8               	btfsc	status,0,c
  5372  002008  2B62               	incf	(___flge@ff1+2)& (0+255),f,b
  5373  00200A  0E80               	movlw	128
  5374  00200C  5763               	subfwb	(___flge@ff1+3)& (0+255),f,b
  5375  00200E                     l4233:
  5376                           
  5377                           ; BSR set to: 0
  5378  00200E  AF67               	btfss	(___flge@ff2+3)& (0+255),7,b
  5379  002010  D009               	goto	l613
  5380                           
  5381                           ; BSR set to: 0
  5382  002012  6D64               	negf	___flge@ff2& (0+255),b
  5383  002014  1F65               	comf	(___flge@ff2+1)& (0+255),f,b
  5384  002016  B0D8               	btfsc	status,0,c
  5385  002018  2B65               	incf	(___flge@ff2+1)& (0+255),f,b
  5386  00201A  1F66               	comf	(___flge@ff2+2)& (0+255),f,b
  5387  00201C  B0D8               	btfsc	status,0,c
  5388  00201E  2B66               	incf	(___flge@ff2+2)& (0+255),f,b
  5389  002020  0E80               	movlw	128
  5390  002022  5767               	subfwb	(___flge@ff2+3)& (0+255),f,b
  5391  002024                     l613:
  5392                           
  5393                           ; BSR set to: 0
  5394  002024  0E00               	movlw	0
  5395  002026  1B60               	xorwf	___flge@ff1& (0+255),f,b
  5396  002028  0E00               	movlw	0
  5397  00202A  1B61               	xorwf	(___flge@ff1+1)& (0+255),f,b
  5398  00202C  0E00               	movlw	0
  5399  00202E  1B62               	xorwf	(___flge@ff1+2)& (0+255),f,b
  5400  002030  0E80               	movlw	128
  5401  002032  1B63               	xorwf	(___flge@ff1+3)& (0+255),f,b
  5402  002034  0E00               	movlw	0
  5403  002036  1B64               	xorwf	___flge@ff2& (0+255),f,b
  5404  002038  0E00               	movlw	0
  5405  00203A  1B65               	xorwf	(___flge@ff2+1)& (0+255),f,b
  5406  00203C  0E00               	movlw	0
  5407  00203E  1B66               	xorwf	(___flge@ff2+2)& (0+255),f,b
  5408  002040  0E80               	movlw	128
  5409  002042  1B67               	xorwf	(___flge@ff2+3)& (0+255),f,b
  5410  002044  5164               	movf	___flge@ff2& (0+255),w,b
  5411  002046  5D60               	subwf	___flge@ff1& (0+255),w,b
  5412  002048  5165               	movf	(___flge@ff2+1)& (0+255),w,b
  5413  00204A  5961               	subwfb	(___flge@ff1+1)& (0+255),w,b
  5414  00204C  5166               	movf	(___flge@ff2+2)& (0+255),w,b
  5415  00204E  5962               	subwfb	(___flge@ff1+2)& (0+255),w,b
  5416  002050  5167               	movf	(___flge@ff2+3)& (0+255),w,b
  5417  002052  5963               	subwfb	(___flge@ff1+3)& (0+255),w,b
  5418  002054  B0D8               	btfsc	status,0,c
  5419  002056  D002               	goto	l4239
  5420                           
  5421                           ; BSR set to: 0
  5422  002058  90D8               	bcf	status,0,c
  5423  00205A  0012               	return	
  5424  00205C                     l4239:
  5425                           
  5426                           ; BSR set to: 0
  5427  00205C  80D8               	bsf	status,0,c
  5428                           
  5429                           ; BSR set to: 0
  5430  00205E  0012               	return		;funcret
  5431  002060                     __end_of___flge:
  5432                           	opt callstack 0
  5433                           
  5434 ;; *************** function _PWMServo *****************
  5435 ;; Defined at:
  5436 ;;		line 313 in file "auto.c"
  5437 ;; Parameters:    Size  Location     Type
  5438 ;;		None
  5439 ;; Auto vars:     Size  Location     Type
  5440 ;;		None
  5441 ;; Return value:  Size  Location     Type
  5442 ;;                  1    wreg      void 
  5443 ;; Registers used:
  5444 ;;		wreg, status,2, status,0
  5445 ;; Tracked objects:
  5446 ;;		On entry : 0/0
  5447 ;;		On exit  : 0/0
  5448 ;;		Unchanged: 0/0
  5449 ;; Data sizes:     COMRAM   BANK0   BANK1   BANK2   BANK3   BANK4   BANK5   BANK6   BANK7   BANK8   BANK9  BANK10  BANK1
      +1  BANK12  BANK13  BANK14
  5450 ;;      Params:         0       0       0       0       0       0       0       0       0       0       0       0       
      +0       0       0       0
  5451 ;;      Locals:         0       0       0       0       0       0       0       0       0       0       0       0       
      +0       0       0       0
  5452 ;;      Temps:          0       0       0       0       0       0       0       0       0       0       0       0       
      +0       0       0       0
  5453 ;;      Totals:         0       0       0       0       0       0       0       0       0       0       0       0       
      +0       0       0       0
  5454 ;;Total ram usage:        0 bytes
  5455 ;; Hardware stack levels used:    1
  5456 ;; Hardware stack levels required when called:    2
  5457 ;; This function calls:
  5458 ;;		Nothing
  5459 ;; This function is called by:
  5460 ;;		_main
  5461 ;; This function uses a non-reentrant model
  5462 ;;
  5463                           
  5464                           	psect	text30
  5465  00250A                     __ptext30:
  5466                           	opt callstack 0
  5467  00250A                     _PWMServo:
  5468                           	opt callstack 28
  5469                           
  5470                           ;auto.c: 314:     contador_timer_5 = 0;
  5471                           
  5472                           ; BSR set to: 0
  5473                           ;incstack = 0
  5474  00250A  0E00               	movlw	0
  5475  00250C  6E39               	movwf	_contador_timer_5+1,c
  5476  00250E  0E00               	movlw	0
  5477  002510  6E38               	movwf	_contador_timer_5,c
  5478                           
  5479                           ;auto.c: 315:     if(PORTDbits.RD4 == 1){
  5480  002512  A883               	btfss	3971,4,c	;volatile
  5481  002514  D010               	goto	l320
  5482                           
  5483                           ;auto.c: 316:         parar++;
  5484  002516  4A3A               	infsnz	_parar,f,c
  5485  002518  2A3B               	incf	_parar+1,f,c
  5486                           
  5487                           ;auto.c: 317:         PORTDbits.RD4 = 0;
  5488  00251A  9883               	bcf	3971,4,c	;volatile
  5489                           
  5490                           ;auto.c: 318:         tiempo_anterior_1 = TIME_MAX;
  5491  00251C  C04E  F04C         	movff	_TIME_MAX,_tiempo_anterior_1
  5492  002520  C04F  F04D         	movff	_TIME_MAX+1,_tiempo_anterior_1+1
  5493                           
  5494                           ;auto.c: 319:         TIME_MAX = 1000 - tiempo_anterior_1;
  5495  002524  504C               	movf	_tiempo_anterior_1,w,c
  5496  002526  08E8               	sublw	232
  5497  002528  6E4E               	movwf	_TIME_MAX,c
  5498  00252A  504D               	movf	_tiempo_anterior_1+1,w,c
  5499  00252C  A0D8               	btfss	status,0,c
  5500  00252E  2AE8               	incf	wreg,f,c
  5501  002530  0803               	sublw	3
  5502  002532  6E4F               	movwf	_TIME_MAX+1,c
  5503                           
  5504                           ;auto.c: 320:     }
  5505  002534  D005               	goto	l4215
  5506  002536                     l320:
  5507                           
  5508                           ;auto.c: 322:         PORTDbits.RD4 = 1;
  5509  002536  8883               	bsf	3971,4,c	;volatile
  5510                           
  5511                           ;auto.c: 323:         TIME_MAX = tiempo_anterior_1;
  5512  002538  C04C  F04E         	movff	_tiempo_anterior_1,_TIME_MAX
  5513  00253C  C04D  F04F         	movff	_tiempo_anterior_1+1,_TIME_MAX+1
  5514  002540                     l4215:
  5515                           
  5516                           ;auto.c: 325:     if(parar == 30){
  5517  002540  0E1E               	movlw	30
  5518  002542  183A               	xorwf	_parar,w,c
  5519  002544  103B               	iorwf	_parar+1,w,c
  5520  002546  A4D8               	btfss	status,2,c
  5521  002548  0012               	return	
  5522                           
  5523                           ;auto.c: 326:         T5CONbits.TMR5ON = 0;
  5524  00254A  010F               	movlb	15	; () banked
  5525  00254C  9122               	bcf	34,0,b	;volatile
  5526                           
  5527                           ;auto.c: 327:         PORTDbits.RD4 = 0;
  5528  00254E  9883               	bcf	3971,4,c	;volatile
  5529                           
  5530                           ; BSR set to: 15
  5531                           ;auto.c: 328:         parar = 0;
  5532  002550  0E00               	movlw	0
  5533  002552  6E3B               	movwf	_parar+1,c
  5534  002554  0E00               	movlw	0
  5535  002556  6E3A               	movwf	_parar,c
  5536  002558  0012               	return		;funcret
  5537  00255A                     __end_of_PWMServo:
  5538                           	opt callstack 0
  5539                           
  5540 ;; *************** function _rutina *****************
  5541 ;; Defined at:
  5542 ;;		line 59 in file "auto.c"
  5543 ;; Parameters:    Size  Location     Type
  5544 ;;		None
  5545 ;; Auto vars:     Size  Location     Type
  5546 ;;  dato            1   40[COMRAM] unsigned char 
  5547 ;; Return value:  Size  Location     Type
  5548 ;;                  1    wreg      void 
  5549 ;; Registers used:
  5550 ;;		wreg, fsr2l, fsr2h, status,2, status,0, cstack
  5551 ;; Tracked objects:
  5552 ;;		On entry : 0/0
  5553 ;;		On exit  : 0/0
  5554 ;;		Unchanged: 0/0
  5555 ;; Data sizes:     COMRAM   BANK0   BANK1   BANK2   BANK3   BANK4   BANK5   BANK6   BANK7   BANK8   BANK9  BANK10  BANK1
      +1  BANK12  BANK13  BANK14
  5556 ;;      Params:         0       0       0       0       0       0       0       0       0       0       0       0       
      +0       0       0       0
  5557 ;;      Locals:         1       0       0       0       0       0       0       0       0       0       0       0       
      +0       0       0       0
  5558 ;;      Temps:          2       0       0       0       0       0       0       0       0       0       0       0       
      +0       0       0       0
  5559 ;;      Totals:         3       0       0       0       0       0       0       0       0       0       0       0       
      +0       0       0       0
  5560 ;;Total ram usage:        3 bytes
  5561 ;; Hardware stack levels used:    1
  5562 ;; Hardware stack levels required when called:    1
  5563 ;; This function calls:
  5564 ;;		___awdiv
  5565 ;;		i2___fladd
  5566 ;;		i2___xxtofl
  5567 ;; This function is called by:
  5568 ;;		Interrupt level 2
  5569 ;; This function uses a non-reentrant model
  5570 ;;
  5571                           
  5572                           	psect	intcode
  5573  000008                     __pintcode:
  5574                           	opt callstack 0
  5575  000008                     _rutina:
  5576                           	opt callstack 26
  5577                           
  5578                           ;incstack = 0
  5579  000008  8252               	bsf	btemp,1,c	;set compiler interrupt flag (level 2)
  5580  00000A  CFD9 F027          	movff	fsr2l,??_rutina
  5581  00000E  CFDA F028          	movff	fsr2h,??_rutina+1
  5582                           
  5583                           ;auto.c: 60:     if(PIR1bits.RC1IF == 1){
  5584  000012  AA9E               	btfss	3998,5,c	;volatile
  5585  000014  D016               	goto	i2l227
  5586                           
  5587                           ;auto.c: 61:         unsigned char dato = RCREG1;
  5588  000016  CFAF F029          	movff	4015,rutina@dato	;volatile
  5589                           
  5590                           ;auto.c: 62:         if(dato == 'P'){
  5591  00001A  0E50               	movlw	80
  5592  00001C  1829               	xorwf	rutina@dato,w,c
  5593  00001E  A4D8               	btfss	status,2,c
  5594  000020  D006               	goto	i2l3431
  5595                           
  5596                           ;auto.c: 63:             bandera = 1;
  5597  000022  0E01               	movlw	1
  5598  000024  0100               	movlb	0	; () banked
  5599  000026  6FD9               	movwf	_bandera& (0+255),b
  5600                           
  5601                           ;auto.c: 64:             indicador = 0;
  5602  000028  0E00               	movlw	0
  5603  00002A  6E40               	movwf	_indicador,c
  5604                           
  5605                           ;auto.c: 65:         }
  5606  00002C  D0CC               	goto	i2l249
  5607  00002E                     i2l3431:
  5608                           
  5609                           ;auto.c: 67:             datos[indicador] = dato;
  5610  00002E  0E42               	movlw	low _datos
  5611  000030  2440               	addwf	_indicador,w,c
  5612  000032  6ED9               	movwf	fsr2l,c
  5613  000034  6ADA               	clrf	fsr2h,c
  5614  000036  0E00               	movlw	high _datos
  5615  000038  22DA               	addwfc	fsr2h,f,c
  5616  00003A  C029  FFDF         	movff	rutina@dato,indf2
  5617                           
  5618                           ;auto.c: 68:             indicador++;
  5619  00003E  2A40               	incf	_indicador,f,c
  5620  000040  D0C2               	goto	i2l249
  5621  000042                     i2l227:
  5622  000042  A498               	btfss	3992,2,c	;volatile
  5623  000044  D016               	goto	i2l231
  5624                           
  5625                           ;auto.c: 72:         PIR5bits.TMR5IF = 0;
  5626  000046  9498               	bcf	3992,2,c	;volatile
  5627                           
  5628                           ;auto.c: 73:         contador_timer_5++;
  5629  000048  4A38               	infsnz	_contador_timer_5,f,c
  5630  00004A  2A39               	incf	_contador_timer_5+1,f,c
  5631                           
  5632                           ;auto.c: 74:         TMR5H = 0xFF;
  5633  00004C  010F               	movlb	15	; () banked
  5634  00004E  6924               	setf	36,b	;volatile
  5635                           
  5636                           ; BSR set to: 15
  5637                           ;auto.c: 75:         TMR5L = 0xE2;
  5638  000050  0EE2               	movlw	226
  5639  000052  6F23               	movwf	35,b	;volatile
  5640                           
  5641                           ; BSR set to: 15
  5642                           ;auto.c: 76:         if(contador_timer_5 == TIME_MAX){
  5643  000054  504E               	movf	_TIME_MAX,w,c
  5644  000056  1838               	xorwf	_contador_timer_5,w,c
  5645  000058  E103               	bnz	i2u321_41
  5646  00005A  504F               	movf	_TIME_MAX+1,w,c
  5647  00005C  1839               	xorwf	_contador_timer_5+1,w,c
  5648  00005E  A4D8               	btfss	status,2,c
  5649  000060                     i2u321_41:
  5650  000060  D0B2               	goto	i2l249
  5651                           
  5652                           ; BSR set to: 15
  5653                           ;auto.c: 77:             contador_timer_5 = 0;
  5654  000062  0E00               	movlw	0
  5655  000064  6E39               	movwf	_contador_timer_5+1,c
  5656  000066  0E00               	movlw	0
  5657  000068  6E38               	movwf	_contador_timer_5,c
  5658                           
  5659                           ;auto.c: 78:             bandera_servo = 1;
  5660  00006A  0E01               	movlw	1
  5661  00006C  0100               	movlb	0	; () banked
  5662  00006E  6FD8               	movwf	_bandera_servo& (0+255),b
  5663  000070  D0AA               	goto	i2l249
  5664  000072                     i2l231:
  5665  000072  A6A4               	btfss	4004,3,c	;volatile
  5666  000074  D017               	goto	i2l234
  5667                           
  5668                           ;auto.c: 82:         PIR3bits.TMR4IF = 0;
  5669  000076  96A4               	bcf	4004,3,c	;volatile
  5670                           
  5671                           ;auto.c: 83:         contador_distancia++;
  5672  000078  4A36               	infsnz	_contador_distancia,f,c
  5673  00007A  2A37               	incf	_contador_distancia+1,f,c
  5674                           
  5675                           ;auto.c: 84:         TMR4 = 181;
  5676  00007C  0EB5               	movlw	181
  5677  00007E  6E78               	movwf	3960,c	;volatile
  5678                           
  5679                           ;auto.c: 85:         if(contador_distancia == 1000){
  5680  000080  0EE8               	movlw	232
  5681  000082  1836               	xorwf	_contador_distancia,w,c
  5682  000084  E103               	bnz	i2u323_41
  5683  000086  0E03               	movlw	3
  5684  000088  1837               	xorwf	_contador_distancia+1,w,c
  5685  00008A  A4D8               	btfss	status,2,c
  5686  00008C                     i2u323_41:
  5687  00008C  D09C               	goto	i2l249
  5688                           
  5689                           ;auto.c: 86:             contador_distancia = 0;
  5690  00008E  0E00               	movlw	0
  5691  000090  6E37               	movwf	_contador_distancia+1,c
  5692  000092  0E00               	movlw	0
  5693  000094  6E36               	movwf	_contador_distancia,c
  5694                           
  5695                           ;auto.c: 87:             if(estado == 'w'){
  5696  000096  0E77               	movlw	119
  5697  000098  183C               	xorwf	_estado,w,c
  5698  00009A  A4D8               	btfss	status,2,c
  5699  00009C  D094               	goto	i2l249
  5700                           
  5701                           ;auto.c: 88:                 TXREG2 = 0x55;
  5702  00009E  0E55               	movlw	85
  5703  0000A0  6EA9               	movwf	4009,c	;volatile
  5704  0000A2  D091               	goto	i2l249
  5705  0000A4                     i2l234:
  5706  0000A4  A898               	btfss	3992,4,c	;volatile
  5707  0000A6  D023               	goto	i2l238
  5708                           
  5709                           ;auto.c: 93:         TMR8 = 31;
  5710  0000A8  0E1F               	movlw	31
  5711  0000AA  010F               	movlb	15	; () banked
  5712  0000AC  6F1D               	movwf	29,b	;volatile
  5713                           
  5714                           ; BSR set to: 15
  5715                           ;auto.c: 94:         PIR5bits.TMR8IF = 0;
  5716  0000AE  9898               	bcf	3992,4,c	;volatile
  5717                           
  5718                           ; BSR set to: 15
  5719                           ;auto.c: 95:         fuego_interrupcion++;
  5720  0000B0  0E01               	movlw	1
  5721  0000B2  262E               	addwf	_fuego_interrupcion,f,c
  5722  0000B4  0E00               	movlw	0
  5723  0000B6  222F               	addwfc	_fuego_interrupcion+1,f,c
  5724  0000B8  2230               	addwfc	_fuego_interrupcion+2,f,c
  5725  0000BA  2231               	addwfc	_fuego_interrupcion+3,f,c
  5726                           
  5727                           ; BSR set to: 15
  5728                           ;auto.c: 96:         if(fuego_interrupcion == TIME_FUEGO ){
  5729  0000BC  502A               	movf	_TIME_FUEGO,w,c
  5730  0000BE  182E               	xorwf	_fuego_interrupcion,w,c
  5731  0000C0  E109               	bnz	i2u326_41
  5732  0000C2  502B               	movf	_TIME_FUEGO+1,w,c
  5733  0000C4  182F               	xorwf	_fuego_interrupcion+1,w,c
  5734  0000C6  E17F               	bnz	i2l249
  5735  0000C8  502C               	movf	_TIME_FUEGO+2,w,c
  5736  0000CA  1830               	xorwf	_fuego_interrupcion+2,w,c
  5737  0000CC  E17C               	bnz	i2l249
  5738  0000CE  502D               	movf	_TIME_FUEGO+3,w,c
  5739  0000D0  1831               	xorwf	_fuego_interrupcion+3,w,c
  5740  0000D2  A4D8               	btfss	status,2,c
  5741  0000D4                     i2u326_41:
  5742  0000D4  D078               	goto	i2l249
  5743                           
  5744                           ; BSR set to: 15
  5745                           ;auto.c: 97:             fuego_interrupcion = 0;
  5746  0000D6  0E00               	movlw	0
  5747  0000D8  6E2E               	movwf	_fuego_interrupcion,c
  5748  0000DA  0E00               	movlw	0
  5749  0000DC  6E2F               	movwf	_fuego_interrupcion+1,c
  5750  0000DE  0E00               	movlw	0
  5751  0000E0  6E30               	movwf	_fuego_interrupcion+2,c
  5752  0000E2  0E00               	movlw	0
  5753  0000E4  6E31               	movwf	_fuego_interrupcion+3,c
  5754                           
  5755                           ;auto.c: 98:             cambiar_estado_rutina_escape = 1;
  5756  0000E6  0E01               	movlw	1
  5757  0000E8  0100               	movlb	0	; () banked
  5758  0000EA  6FD5               	movwf	_cambiar_estado_rutina_escape& (0+255),b
  5759                           
  5760                           ;auto.c: 100:     }
  5761                           
  5762                           ;auto.c: 99:         }
  5763  0000EC  D06C               	goto	i2l249
  5764  0000EE                     i2l238:
  5765  0000EE  A2F2               	btfss	4082,1,c	;volatile
  5766  0000F0  D005               	goto	i2l241
  5767                           
  5768                           ;auto.c: 102:         INTCONbits.INT0F = 0;
  5769  0000F2  92F2               	bcf	4082,1,c	;volatile
  5770                           
  5771                           ;auto.c: 103:         obstaculo = 1;
  5772  0000F4  0E01               	movlw	1
  5773  0000F6  0100               	movlb	0	; () banked
  5774  0000F8  6FD7               	movwf	_obstaculo& (0+255),b
  5775                           
  5776                           ;auto.c: 104:     }
  5777  0000FA  D065               	goto	i2l249
  5778  0000FC                     i2l241:
  5779  0000FC  AAA4               	btfss	4004,5,c	;volatile
  5780  0000FE  D057               	goto	i2l243
  5781                           
  5782                           ;auto.c: 106:         if(contador_datos == 1){
  5783  000100  043E               	decf	_contador_datos,w,c
  5784  000102  A4D8               	btfss	status,2,c
  5785  000104  D035               	goto	i2l3483
  5786                           
  5787                           ;auto.c: 107:             bandera_distancia = 1;
  5788  000106  0E01               	movlw	1
  5789  000108  0100               	movlb	0	; () banked
  5790  00010A  6FD6               	movwf	_bandera_distancia& (0+255),b
  5791                           
  5792                           ; BSR set to: 0
  5793                           ;auto.c: 108:             distancia += (RCREG2)/10;
  5794  00010C  C032  F017         	movff	_distancia,i2___fladd@b
  5795  000110  C033  F018         	movff	_distancia+1,i2___fladd@b+1
  5796  000114  C034  F019         	movff	_distancia+2,i2___fladd@b+2
  5797  000118  C035  F01A         	movff	_distancia+3,i2___fladd@b+3
  5798  00011C  0E00               	movlw	0
  5799  00011E  6E04               	movwf	___awdiv@divisor+1,c
  5800  000120  0E0A               	movlw	10
  5801  000122  6E03               	movwf	___awdiv@divisor,c
  5802  000124  CFAA F001          	movff	4010,___awdiv@dividend	;volatile
  5803  000128  6A02               	clrf	___awdiv@dividend+1,c
  5804  00012A  EC74  F011         	call	___awdiv	;wreg free
  5805  00012E  C001  F009         	movff	?___awdiv,i2___xxtofl@val
  5806  000132  C002  F00A         	movff	?___awdiv+1,i2___xxtofl@val+1
  5807  000136  0E00               	movlw	0
  5808  000138  BE0A               	btfsc	i2___xxtofl@val+1,7,c
  5809  00013A  0EFF               	movlw	-1
  5810  00013C  6E0B               	movwf	i2___xxtofl@val+2,c
  5811  00013E  6E0C               	movwf	i2___xxtofl@val+3,c
  5812  000140  0E01               	movlw	1
  5813  000142  ECB2  F00E         	call	i2___xxtofl
  5814  000146  C009  F01B         	movff	?i2___xxtofl,i2___fladd@a
  5815  00014A  C00A  F01C         	movff	?i2___xxtofl+1,i2___fladd@a+1
  5816  00014E  C00B  F01D         	movff	?i2___xxtofl+2,i2___fladd@a+2
  5817  000152  C00C  F01E         	movff	?i2___xxtofl+3,i2___fladd@a+3
  5818  000156  EC18  F00B         	call	i2___fladd	;wreg free
  5819  00015A  C017  F032         	movff	?i2___fladd,_distancia
  5820  00015E  C018  F033         	movff	?i2___fladd+1,_distancia+1
  5821  000162  C019  F034         	movff	?i2___fladd+2,_distancia+2
  5822  000166  C01A  F035         	movff	?i2___fladd+3,_distancia+3
  5823                           
  5824                           ;auto.c: 109:             contador_datos = 0;
  5825  00016A  0E00               	movlw	0
  5826  00016C  6E3E               	movwf	_contador_datos,c
  5827                           
  5828                           ;auto.c: 110:         }
  5829  00016E  D02B               	goto	i2l249
  5830  000170                     i2l3483:
  5831                           
  5832                           ;auto.c: 112:             distancia = 256*(RCREG2)/10;
  5833  000170  0E00               	movlw	0
  5834  000172  6E04               	movwf	___awdiv@divisor+1,c
  5835  000174  0E0A               	movlw	10
  5836  000176  6E03               	movwf	___awdiv@divisor,c
  5837  000178  50AA               	movf	4010,w,c	;volatile
  5838  00017A  6E02               	movwf	___awdiv@dividend+1,c
  5839  00017C  6A01               	clrf	___awdiv@dividend,c
  5840  00017E  EC74  F011         	call	___awdiv	;wreg free
  5841  000182  C001  F009         	movff	?___awdiv,i2___xxtofl@val
  5842  000186  C002  F00A         	movff	?___awdiv+1,i2___xxtofl@val+1
  5843  00018A  0E00               	movlw	0
  5844  00018C  BE0A               	btfsc	i2___xxtofl@val+1,7,c
  5845  00018E  0EFF               	movlw	-1
  5846  000190  6E0B               	movwf	i2___xxtofl@val+2,c
  5847  000192  6E0C               	movwf	i2___xxtofl@val+3,c
  5848  000194  0E01               	movlw	1
  5849  000196  ECB2  F00E         	call	i2___xxtofl
  5850  00019A  C009  F032         	movff	?i2___xxtofl,_distancia
  5851  00019E  C00A  F033         	movff	?i2___xxtofl+1,_distancia+1
  5852  0001A2  C00B  F034         	movff	?i2___xxtofl+2,_distancia+2
  5853  0001A6  C00C  F035         	movff	?i2___xxtofl+3,_distancia+3
  5854                           
  5855                           ;auto.c: 113:             contador_datos ++;
  5856  0001AA  2A3E               	incf	_contador_datos,f,c
  5857  0001AC  D00C               	goto	i2l249
  5858  0001AE                     i2l243:
  5859  0001AE  B0F0               	btfsc	4080,0,c	;volatile
  5860  0001B0  A6F0               	btfss	4080,3,c	;volatile
  5861  0001B2  D009               	goto	i2l249
  5862                           
  5863                           ;auto.c: 117:         INTCON3bits.INT1F = 0;
  5864  0001B4  90F0               	bcf	4080,0,c	;volatile
  5865                           
  5866                           ;auto.c: 118:         if (estado == 'w'){
  5867  0001B6  0E77               	movlw	119
  5868  0001B8  183C               	xorwf	_estado,w,c
  5869  0001BA  A4D8               	btfss	status,2,c
  5870  0001BC  D004               	goto	i2l249
  5871                           
  5872                           ;auto.c: 119:             INTCON3bits.INT1E = 0;
  5873  0001BE  96F0               	bcf	4080,3,c	;volatile
  5874                           
  5875                           ;auto.c: 120:             bandera_fuego = 1;
  5876  0001C0  0E01               	movlw	1
  5877  0001C2  0100               	movlb	0	; () banked
  5878  0001C4  6FDA               	movwf	_bandera_fuego& (0+255),b
  5879  0001C6                     i2l249:
  5880  0001C6  C028  FFDA         	movff	??_rutina+1,fsr2h
  5881  0001CA  C027  FFD9         	movff	??_rutina,fsr2l
  5882  0001CE  9252               	bcf	btemp,1,c	;clear compiler interrupt flag (level 2)
  5883  0001D0  0011               	retfie		f
  5884  0001D2                     __end_of_rutina:
  5885                           	opt callstack 0
  5886                           
  5887 ;; *************** function i2___xxtofl *****************
  5888 ;; Defined at:
  5889 ;;		line 10 in file "C:\Program Files (x86)\Microchip\xc8\v2.05\pic\sources\c99\common\xxtofl.c"
  5890 ;; Parameters:    Size  Location     Type
  5891 ;;  sign            1    wreg     unsigned char 
  5892 ;;  val             4    8[COMRAM] long 
  5893 ;; Auto vars:     Size  Location     Type
  5894 ;;  sign            1   16[COMRAM] unsigned char 
  5895 ;;  __xxtofl        4   18[COMRAM] unsigned long 
  5896 ;;  __xxtofl        1   17[COMRAM] unsigned char 
  5897 ;; Return value:  Size  Location     Type
  5898 ;;                  4    8[COMRAM] unsigned char 
  5899 ;; Registers used:
  5900 ;;		wreg, status,2, status,0
  5901 ;; Tracked objects:
  5902 ;;		On entry : 0/0
  5903 ;;		On exit  : 0/0
  5904 ;;		Unchanged: 0/0
  5905 ;; Data sizes:     COMRAM   BANK0   BANK1   BANK2   BANK3   BANK4   BANK5   BANK6   BANK7   BANK8   BANK9  BANK10  BANK1
      +1  BANK12  BANK13  BANK14
  5906 ;;      Params:         4       0       0       0       0       0       0       0       0       0       0       0       
      +0       0       0       0
  5907 ;;      Locals:         6       0       0       0       0       0       0       0       0       0       0       0       
      +0       0       0       0
  5908 ;;      Temps:          4       0       0       0       0       0       0       0       0       0       0       0       
      +0       0       0       0
  5909 ;;      Totals:        14       0       0       0       0       0       0       0       0       0       0       0       
      +0       0       0       0
  5910 ;;Total ram usage:       14 bytes
  5911 ;; Hardware stack levels used:    1
  5912 ;; This function calls:
  5913 ;;		Nothing
  5914 ;; This function is called by:
  5915 ;;		_rutina
  5916 ;; This function uses a non-reentrant model
  5917 ;;
  5918                           
  5919                           	psect	text32
  5920  001D64                     __ptext32:
  5921                           	opt callstack 0
  5922  001D64                     i2___xxtofl:
  5923                           	opt callstack 26
  5924                           
  5925                           ;incstack = 0
  5926                           ;i2___xxtofl@sign stored from wreg
  5927  001D64  6E11               	movwf	i2___xxtofl@sign,c
  5928  001D66  5011               	movf	i2___xxtofl@sign,w,c
  5929  001D68  A4D8               	btfss	status,2,c
  5930  001D6A  AE0C               	btfss	i2___xxtofl@val+3,7,c
  5931  001D6C  D01A               	goto	i2l1003
  5932  001D6E  C009  F00D         	movff	i2___xxtofl@val,??i2___xxtofl
  5933  001D72  C00A  F00E         	movff	i2___xxtofl@val+1,??i2___xxtofl+1
  5934  001D76  C00B  F00F         	movff	i2___xxtofl@val+2,??i2___xxtofl+2
  5935  001D7A  C00C  F010         	movff	i2___xxtofl@val+3,??i2___xxtofl+3
  5936  001D7E  1E0D               	comf	??i2___xxtofl,f,c
  5937  001D80  1E0E               	comf	??i2___xxtofl+1,f,c
  5938  001D82  1E0F               	comf	??i2___xxtofl+2,f,c
  5939  001D84  1E10               	comf	??i2___xxtofl+3,f,c
  5940  001D86  2A0D               	incf	??i2___xxtofl,f,c
  5941  001D88  0E00               	movlw	0
  5942  001D8A  220E               	addwfc	??i2___xxtofl+1,f,c
  5943  001D8C  220F               	addwfc	??i2___xxtofl+2,f,c
  5944  001D8E  2210               	addwfc	??i2___xxtofl+3,f,c
  5945  001D90  C00D  F013         	movff	??i2___xxtofl,i2___xxtofl@arg
  5946  001D94  C00E  F014         	movff	??i2___xxtofl+1,i2___xxtofl@arg+1
  5947  001D98  C00F  F015         	movff	??i2___xxtofl+2,i2___xxtofl@arg+2
  5948  001D9C  C010  F016         	movff	??i2___xxtofl+3,i2___xxtofl@arg+3
  5949  001DA0  D008               	goto	i2l3383
  5950  001DA2                     i2l1003:
  5951  001DA2  C009  F013         	movff	i2___xxtofl@val,i2___xxtofl@arg
  5952  001DA6  C00A  F014         	movff	i2___xxtofl@val+1,i2___xxtofl@arg+1
  5953  001DAA  C00B  F015         	movff	i2___xxtofl@val+2,i2___xxtofl@arg+2
  5954  001DAE  C00C  F016         	movff	i2___xxtofl@val+3,i2___xxtofl@arg+3
  5955  001DB2                     i2l3383:
  5956  001DB2  5009               	movf	i2___xxtofl@val,w,c
  5957  001DB4  100A               	iorwf	i2___xxtofl@val+1,w,c
  5958  001DB6  100B               	iorwf	i2___xxtofl@val+2,w,c
  5959  001DB8  100C               	iorwf	i2___xxtofl@val+3,w,c
  5960  001DBA  A4D8               	btfss	status,2,c
  5961  001DBC  D009               	goto	i2l3389
  5962  001DBE  0E00               	movlw	0
  5963  001DC0  6E09               	movwf	?i2___xxtofl,c
  5964  001DC2  0E00               	movlw	0
  5965  001DC4  6E0A               	movwf	?i2___xxtofl+1,c
  5966  001DC6  0E00               	movlw	0
  5967  001DC8  6E0B               	movwf	?i2___xxtofl+2,c
  5968  001DCA  0E00               	movlw	0
  5969  001DCC  6E0C               	movwf	?i2___xxtofl+3,c
  5970  001DCE  0012               	return	
  5971  001DD0                     i2l3389:
  5972  001DD0  0E96               	movlw	150
  5973  001DD2  6E12               	movwf	i2___xxtofl@exp,c
  5974  001DD4  D006               	goto	i2l3393
  5975  001DD6                     i2l3391:
  5976  001DD6  2A12               	incf	i2___xxtofl@exp,f,c
  5977  001DD8  90D8               	bcf	status,0,c
  5978  001DDA  3216               	rrcf	i2___xxtofl@arg+3,f,c
  5979  001DDC  3215               	rrcf	i2___xxtofl@arg+2,f,c
  5980  001DDE  3214               	rrcf	i2___xxtofl@arg+1,f,c
  5981  001DE0  3213               	rrcf	i2___xxtofl@arg,f,c
  5982  001DE2                     i2l3393:
  5983  001DE2  0E00               	movlw	0
  5984  001DE4  1413               	andwf	i2___xxtofl@arg,w,c
  5985  001DE6  6E0D               	movwf	??i2___xxtofl& (0+255),c
  5986  001DE8  0E00               	movlw	0
  5987  001DEA  1414               	andwf	i2___xxtofl@arg+1,w,c
  5988  001DEC  6E0E               	movwf	(??i2___xxtofl+1)& (0+255),c
  5989  001DEE  0E00               	movlw	0
  5990  001DF0  1415               	andwf	i2___xxtofl@arg+2,w,c
  5991  001DF2  6E0F               	movwf	(??i2___xxtofl+2)& (0+255),c
  5992  001DF4  0EFE               	movlw	254
  5993  001DF6  1416               	andwf	i2___xxtofl@arg+3,w,c
  5994  001DF8  6E10               	movwf	(??i2___xxtofl+3)& (0+255),c
  5995  001DFA  500D               	movf	??i2___xxtofl,w,c
  5996  001DFC  100E               	iorwf	??i2___xxtofl+1,w,c
  5997  001DFE  100F               	iorwf	??i2___xxtofl+2,w,c
  5998  001E00  1010               	iorwf	??i2___xxtofl+3,w,c
  5999  001E02  B4D8               	btfsc	status,2,c
  6000  001E04  D00D               	goto	i2l1010
  6001  001E06  D7E7               	goto	i2l3391
  6002  001E08                     i2l3395:
  6003  001E08  2A12               	incf	i2___xxtofl@exp,f,c
  6004  001E0A  0E01               	movlw	1
  6005  001E0C  2613               	addwf	i2___xxtofl@arg,f,c
  6006  001E0E  0E00               	movlw	0
  6007  001E10  2214               	addwfc	i2___xxtofl@arg+1,f,c
  6008  001E12  2215               	addwfc	i2___xxtofl@arg+2,f,c
  6009  001E14  2216               	addwfc	i2___xxtofl@arg+3,f,c
  6010  001E16  90D8               	bcf	status,0,c
  6011  001E18  3216               	rrcf	i2___xxtofl@arg+3,f,c
  6012  001E1A  3215               	rrcf	i2___xxtofl@arg+2,f,c
  6013  001E1C  3214               	rrcf	i2___xxtofl@arg+1,f,c
  6014  001E1E  3213               	rrcf	i2___xxtofl@arg,f,c
  6015  001E20                     i2l1010:
  6016  001E20  0E00               	movlw	0
  6017  001E22  1413               	andwf	i2___xxtofl@arg,w,c
  6018  001E24  6E0D               	movwf	??i2___xxtofl& (0+255),c
  6019  001E26  0E00               	movlw	0
  6020  001E28  1414               	andwf	i2___xxtofl@arg+1,w,c
  6021  001E2A  6E0E               	movwf	(??i2___xxtofl+1)& (0+255),c
  6022  001E2C  0E00               	movlw	0
  6023  001E2E  1415               	andwf	i2___xxtofl@arg+2,w,c
  6024  001E30  6E0F               	movwf	(??i2___xxtofl+2)& (0+255),c
  6025  001E32  0EFF               	movlw	255
  6026  001E34  1416               	andwf	i2___xxtofl@arg+3,w,c
  6027  001E36  6E10               	movwf	(??i2___xxtofl+3)& (0+255),c
  6028  001E38  500D               	movf	??i2___xxtofl,w,c
  6029  001E3A  100E               	iorwf	??i2___xxtofl+1,w,c
  6030  001E3C  100F               	iorwf	??i2___xxtofl+2,w,c
  6031  001E3E  1010               	iorwf	??i2___xxtofl+3,w,c
  6032  001E40  B4D8               	btfsc	status,2,c
  6033  001E42  D007               	goto	i2l3403
  6034  001E44  D7E1               	goto	i2l3395
  6035  001E46                     i2l3401:
  6036  001E46  0612               	decf	i2___xxtofl@exp,f,c
  6037  001E48  90D8               	bcf	status,0,c
  6038  001E4A  3613               	rlcf	i2___xxtofl@arg,f,c
  6039  001E4C  3614               	rlcf	i2___xxtofl@arg+1,f,c
  6040  001E4E  3615               	rlcf	i2___xxtofl@arg+2,f,c
  6041  001E50  3616               	rlcf	i2___xxtofl@arg+3,f,c
  6042  001E52                     i2l3403:
  6043  001E52  BE15               	btfsc	i2___xxtofl@arg+2,7,c
  6044  001E54  D003               	goto	i2u314_40
  6045  001E56  0E02               	movlw	2
  6046  001E58  6012               	cpfslt	i2___xxtofl@exp,c
  6047  001E5A  D7F5               	goto	i2l3401
  6048  001E5C                     i2u314_40:
  6049  001E5C  A012               	btfss	i2___xxtofl@exp,0,c
  6050  001E5E  9E15               	bcf	i2___xxtofl@arg+2,7,c
  6051  001E60  90D8               	bcf	status,0,c
  6052  001E62  3212               	rrcf	i2___xxtofl@exp,f,c
  6053  001E64  C012  F00D         	movff	i2___xxtofl@exp,??i2___xxtofl
  6054  001E68  6A0E               	clrf	(??i2___xxtofl+1)& (0+255),c
  6055  001E6A  6A0F               	clrf	(??i2___xxtofl+2)& (0+255),c
  6056  001E6C  6A10               	clrf	(??i2___xxtofl+3)& (0+255),c
  6057  001E6E  C00D  F010         	movff	??i2___xxtofl,??i2___xxtofl+3
  6058  001E72  6A0F               	clrf	??i2___xxtofl+2,c
  6059  001E74  6A0E               	clrf	??i2___xxtofl+1,c
  6060  001E76  6A0D               	clrf	??i2___xxtofl,c
  6061  001E78  500D               	movf	??i2___xxtofl,w,c
  6062  001E7A  1213               	iorwf	i2___xxtofl@arg,f,c
  6063  001E7C  500E               	movf	??i2___xxtofl+1,w,c
  6064  001E7E  1214               	iorwf	i2___xxtofl@arg+1,f,c
  6065  001E80  500F               	movf	??i2___xxtofl+2,w,c
  6066  001E82  1215               	iorwf	i2___xxtofl@arg+2,f,c
  6067  001E84  5010               	movf	??i2___xxtofl+3,w,c
  6068  001E86  1216               	iorwf	i2___xxtofl@arg+3,f,c
  6069  001E88  5011               	movf	i2___xxtofl@sign,w,c
  6070  001E8A  A4D8               	btfss	status,2,c
  6071  001E8C  AE0C               	btfss	i2___xxtofl@val+3,7,c
  6072  001E8E  D001               	goto	i2l3419
  6073  001E90  8E16               	bsf	i2___xxtofl@arg+3,7,c
  6074  001E92                     i2l3419:
  6075  001E92  C013  F009         	movff	i2___xxtofl@arg,?i2___xxtofl
  6076  001E96  C014  F00A         	movff	i2___xxtofl@arg+1,?i2___xxtofl+1
  6077  001E9A  C015  F00B         	movff	i2___xxtofl@arg+2,?i2___xxtofl+2
  6078  001E9E  C016  F00C         	movff	i2___xxtofl@arg+3,?i2___xxtofl+3
  6079  001EA2  0012               	return		;funcret
  6080  001EA4                     __end_ofi2___xxtofl:
  6081                           	opt callstack 0
  6082                           
  6083 ;; *************** function i2___fladd *****************
  6084 ;; Defined at:
  6085 ;;		line 10 in file "C:\Program Files (x86)\Microchip\xc8\v2.05\pic\sources\c99\common\sprcadd.c"
  6086 ;; Parameters:    Size  Location     Type
  6087 ;;  b               4   22[COMRAM] unsigned char 
  6088 ;;  a               4   26[COMRAM] unsigned char 
  6089 ;; Auto vars:     Size  Location     Type
  6090 ;;  __fladd         1   37[COMRAM] unsigned char 
  6091 ;;  __fladd         1   36[COMRAM] unsigned char 
  6092 ;;  __fladd         1   35[COMRAM] unsigned char 
  6093 ;;  __fladd         1   34[COMRAM] unsigned char 
  6094 ;; Return value:  Size  Location     Type
  6095 ;;                  4   22[COMRAM] unsigned char 
  6096 ;; Registers used:
  6097 ;;		wreg, status,2, status,0
  6098 ;; Tracked objects:
  6099 ;;		On entry : 0/0
  6100 ;;		On exit  : 0/0
  6101 ;;		Unchanged: 0/0
  6102 ;; Data sizes:     COMRAM   BANK0   BANK1   BANK2   BANK3   BANK4   BANK5   BANK6   BANK7   BANK8   BANK9  BANK10  BANK1
      +1  BANK12  BANK13  BANK14
  6103 ;;      Params:         8       0       0       0       0       0       0       0       0       0       0       0       
      +0       0       0       0
  6104 ;;      Locals:         4       0       0       0       0       0       0       0       0       0       0       0       
      +0       0       0       0
  6105 ;;      Temps:          4       0       0       0       0       0       0       0       0       0       0       0       
      +0       0       0       0
  6106 ;;      Totals:        16       0       0       0       0       0       0       0       0       0       0       0       
      +0       0       0       0
  6107 ;;Total ram usage:       16 bytes
  6108 ;; Hardware stack levels used:    1
  6109 ;; This function calls:
  6110 ;;		Nothing
  6111 ;; This function is called by:
  6112 ;;		_rutina
  6113 ;; This function uses a non-reentrant model
  6114 ;;
  6115                           
  6116                           	psect	text33
  6117  001630                     __ptext33:
  6118                           	opt callstack 0
  6119  001630                     i2___fladd:
  6120                           	opt callstack 26
  6121                           
  6122                           ;incstack = 0
  6123  001630  501A               	movf	i2___fladd@b+3,w,c
  6124  001632  0B80               	andlw	128
  6125  001634  6E23               	movwf	i2___fladd@signs,c
  6126  001636  501A               	movf	i2___fladd@b+3,w,c
  6127  001638  241A               	addwf	i2___fladd@b+3,w,c
  6128  00163A  6E25               	movwf	i2___fladd@bexp,c
  6129  00163C  BE19               	btfsc	i2___fladd@b+2,7,c
  6130  00163E  8025               	bsf	i2___fladd@bexp,0,c
  6131  001640  5025               	movf	i2___fladd@bexp,w,c
  6132  001642  B4D8               	btfsc	status,2,c
  6133  001644  D00D               	goto	i2l3191
  6134  001646  2825               	incf	i2___fladd@bexp,w,c
  6135  001648  A4D8               	btfss	status,2,c
  6136  00164A  D008               	goto	i2l3187
  6137  00164C  0E00               	movlw	0
  6138  00164E  6E17               	movwf	i2___fladd@b,c
  6139  001650  0E00               	movlw	0
  6140  001652  6E18               	movwf	i2___fladd@b+1,c
  6141  001654  0E00               	movlw	0
  6142  001656  6E19               	movwf	i2___fladd@b+2,c
  6143  001658  0E00               	movlw	0
  6144  00165A  6E1A               	movwf	i2___fladd@b+3,c
  6145  00165C                     i2l3187:
  6146  00165C  8E19               	bsf	i2___fladd@b+2,7,c
  6147  00165E  D006               	goto	L13
  6148  001660                     i2l3191:
  6149  001660  0E00               	movlw	0
  6150  001662  6E17               	movwf	i2___fladd@b,c
  6151  001664  0E00               	movlw	0
  6152  001666  6E18               	movwf	i2___fladd@b+1,c
  6153  001668  0E00               	movlw	0
  6154  00166A  6E19               	movwf	i2___fladd@b+2,c
  6155  00166C                     L13:
  6156  00166C  0E00               	movlw	0
  6157  00166E  6E1A               	movwf	i2___fladd@b+3,c
  6158  001670  501E               	movf	i2___fladd@a+3,w,c
  6159  001672  0B80               	andlw	128
  6160  001674  6E24               	movwf	i2___fladd@aexp,c
  6161  001676  5023               	movf	i2___fladd@signs,w,c
  6162  001678  1824               	xorwf	i2___fladd@aexp,w,c
  6163  00167A  A4D8               	btfss	status,2,c
  6164  00167C  8C23               	bsf	i2___fladd@signs,6,c
  6165  00167E  501E               	movf	i2___fladd@a+3,w,c
  6166  001680  241E               	addwf	i2___fladd@a+3,w,c
  6167  001682  6E24               	movwf	i2___fladd@aexp,c
  6168  001684  BE1D               	btfsc	i2___fladd@a+2,7,c
  6169  001686  8024               	bsf	i2___fladd@aexp,0,c
  6170  001688  5024               	movf	i2___fladd@aexp,w,c
  6171  00168A  B4D8               	btfsc	status,2,c
  6172  00168C  D00D               	goto	i2l3215
  6173  00168E  2824               	incf	i2___fladd@aexp,w,c
  6174  001690  A4D8               	btfss	status,2,c
  6175  001692  D008               	goto	i2l3211
  6176  001694  0E00               	movlw	0
  6177  001696  6E1B               	movwf	i2___fladd@a,c
  6178  001698  0E00               	movlw	0
  6179  00169A  6E1C               	movwf	i2___fladd@a+1,c
  6180  00169C  0E00               	movlw	0
  6181  00169E  6E1D               	movwf	i2___fladd@a+2,c
  6182  0016A0  0E00               	movlw	0
  6183  0016A2  6E1E               	movwf	i2___fladd@a+3,c
  6184  0016A4                     i2l3211:
  6185  0016A4  8E1D               	bsf	i2___fladd@a+2,7,c
  6186  0016A6  D006               	goto	L14
  6187  0016A8                     i2l3215:
  6188  0016A8  0E00               	movlw	0
  6189  0016AA  6E1B               	movwf	i2___fladd@a,c
  6190  0016AC  0E00               	movlw	0
  6191  0016AE  6E1C               	movwf	i2___fladd@a+1,c
  6192  0016B0  0E00               	movlw	0
  6193  0016B2  6E1D               	movwf	i2___fladd@a+2,c
  6194  0016B4                     L14:
  6195  0016B4  0E00               	movlw	0
  6196  0016B6  6E1E               	movwf	i2___fladd@a+3,c
  6197  0016B8  5025               	movf	i2___fladd@bexp,w,c
  6198  0016BA  5C24               	subwf	i2___fladd@aexp,w,c
  6199  0016BC  B0D8               	btfsc	status,0,c
  6200  0016BE  D022               	goto	i2l3253
  6201  0016C0  AC23               	btfss	i2___fladd@signs,6,c
  6202  0016C2  D002               	goto	i2l3223
  6203  0016C4  0E80               	movlw	128
  6204  0016C6  1A23               	xorwf	i2___fladd@signs,f,c
  6205  0016C8                     i2l3223:
  6206  0016C8  C025  F026         	movff	i2___fladd@bexp,i2___fladd@grs
  6207  0016CC  C024  F025         	movff	i2___fladd@aexp,i2___fladd@bexp
  6208  0016D0  C026  F024         	movff	i2___fladd@grs,i2___fladd@aexp
  6209  0016D4  C017  F026         	movff	i2___fladd@b,i2___fladd@grs
  6210  0016D8  C01B  F017         	movff	i2___fladd@a,i2___fladd@b
  6211  0016DC  C026  F01B         	movff	i2___fladd@grs,i2___fladd@a
  6212  0016E0  C018  F026         	movff	i2___fladd@b+1,i2___fladd@grs
  6213  0016E4  C01C  F018         	movff	i2___fladd@a+1,i2___fladd@b+1
  6214  0016E8  C026  F01C         	movff	i2___fladd@grs,i2___fladd@a+1
  6215  0016EC  C019  F026         	movff	i2___fladd@b+2,i2___fladd@grs
  6216  0016F0  C01D  F019         	movff	i2___fladd@a+2,i2___fladd@b+2
  6217  0016F4  C026  F01D         	movff	i2___fladd@grs,i2___fladd@a+2
  6218  0016F8  C01A  F026         	movff	i2___fladd@b+3,i2___fladd@grs
  6219  0016FC  C01E  F01A         	movff	i2___fladd@a+3,i2___fladd@b+3
  6220  001700  C026  F01E         	movff	i2___fladd@grs,i2___fladd@a+3
  6221  001704                     i2l3253:
  6222  001704  0E00               	movlw	0
  6223  001706  6E26               	movwf	i2___fladd@grs,c
  6224  001708  5025               	movf	i2___fladd@bexp,w,c
  6225  00170A  C024  F01F         	movff	i2___fladd@aexp,??i2___fladd
  6226  00170E  6A20               	clrf	(??i2___fladd+1)& (0+255),c
  6227  001710  5E1F               	subwf	??i2___fladd,f,c
  6228  001712  0E00               	movlw	0
  6229  001714  5A20               	subwfb	??i2___fladd+1,f,c
  6230  001716  BE20               	btfsc	??i2___fladd+1,7,c
  6231  001718  D02C               	goto	i2l877
  6232  00171A  5020               	movf	??i2___fladd+1,w,c
  6233  00171C  E104               	bnz	i2u278_40
  6234  00171E  0E1A               	movlw	26
  6235  001720  5C1F               	subwf	??i2___fladd,w,c
  6236  001722  A0D8               	btfss	status,0,c
  6237  001724  D026               	goto	i2l877
  6238  001726                     i2u278_40:
  6239  001726  5017               	movf	i2___fladd@b,w,c
  6240  001728  1018               	iorwf	i2___fladd@b+1,w,c
  6241  00172A  1019               	iorwf	i2___fladd@b+2,w,c
  6242  00172C  101A               	iorwf	i2___fladd@b+3,w,c
  6243  00172E  B4D8               	btfsc	status,2,c
  6244  001730  D002               	goto	i2u279_40
  6245  001732  0E01               	movlw	1
  6246  001734  D001               	goto	i2u280_40
  6247  001736                     i2u279_40:
  6248  001736  0E00               	movlw	0
  6249  001738                     i2u280_40:
  6250  001738  6E26               	movwf	i2___fladd@grs,c
  6251  00173A  0E00               	movlw	0
  6252  00173C  6E17               	movwf	i2___fladd@b,c
  6253  00173E  0E00               	movlw	0
  6254  001740  6E18               	movwf	i2___fladd@b+1,c
  6255  001742  0E00               	movlw	0
  6256  001744  6E19               	movwf	i2___fladd@b+2,c
  6257  001746  0E00               	movlw	0
  6258  001748  6E1A               	movwf	i2___fladd@b+3,c
  6259  00174A  C024  F025         	movff	i2___fladd@aexp,i2___fladd@bexp
  6260  00174E  D015               	goto	i2u283_40
  6261  001750                     i2l878:
  6262  001750  A026               	btfss	i2___fladd@grs,0,c
  6263  001752  D005               	goto	i2l3265
  6264  001754  90D8               	bcf	status,0,c
  6265  001756  3026               	rrcf	i2___fladd@grs,w,c
  6266  001758  0901               	iorlw	1
  6267  00175A  6E26               	movwf	i2___fladd@grs,c
  6268  00175C  D002               	goto	i2l3267
  6269  00175E                     i2l3265:
  6270  00175E  90D8               	bcf	status,0,c
  6271  001760  3226               	rrcf	i2___fladd@grs,f,c
  6272  001762                     i2l3267:
  6273  001762  B017               	btfsc	i2___fladd@b,0,c
  6274  001764  8E26               	bsf	i2___fladd@grs,7,c
  6275  001766  341A               	rlcf	i2___fladd@b+3,w,c
  6276  001768  321A               	rrcf	i2___fladd@b+3,f,c
  6277  00176A  3219               	rrcf	i2___fladd@b+2,f,c
  6278  00176C  3218               	rrcf	i2___fladd@b+1,f,c
  6279  00176E  3217               	rrcf	i2___fladd@b,f,c
  6280  001770  2A25               	incf	i2___fladd@bexp,f,c
  6281  001772                     i2l877:
  6282  001772  5024               	movf	i2___fladd@aexp,w,c
  6283  001774  5C25               	subwf	i2___fladd@bexp,w,c
  6284  001776  A0D8               	btfss	status,0,c
  6285  001778  D7EB               	goto	i2l878
  6286  00177A                     i2u283_40:
  6287  00177A  BC23               	btfsc	i2___fladd@signs,6,c
  6288  00177C  D028               	goto	i2l3299
  6289  00177E  5025               	movf	i2___fladd@bexp,w,c
  6290  001780  A4D8               	btfss	status,2,c
  6291  001782  D009               	goto	i2l3281
  6292  001784  0E00               	movlw	0
  6293  001786  6E17               	movwf	?i2___fladd,c
  6294  001788  0E00               	movlw	0
  6295  00178A  6E18               	movwf	?i2___fladd+1,c
  6296  00178C  0E00               	movlw	0
  6297  00178E  6E19               	movwf	?i2___fladd+2,c
  6298  001790  0E00               	movlw	0
  6299  001792  6E1A               	movwf	?i2___fladd+3,c
  6300  001794  0012               	return	
  6301  001796                     i2l3281:
  6302  001796  501B               	movf	i2___fladd@a,w,c
  6303  001798  2617               	addwf	i2___fladd@b,f,c
  6304  00179A  501C               	movf	i2___fladd@a+1,w,c
  6305  00179C  2218               	addwfc	i2___fladd@b+1,f,c
  6306  00179E  501D               	movf	i2___fladd@a+2,w,c
  6307  0017A0  2219               	addwfc	i2___fladd@b+2,f,c
  6308  0017A2  501E               	movf	i2___fladd@a+3,w,c
  6309  0017A4  221A               	addwfc	i2___fladd@b+3,f,c
  6310  0017A6  A01A               	btfss	i2___fladd@b+3,0,c
  6311  0017A8  D071               	goto	i2u296_40
  6312  0017AA  A026               	btfss	i2___fladd@grs,0,c
  6313  0017AC  D005               	goto	i2l3289
  6314  0017AE  90D8               	bcf	status,0,c
  6315  0017B0  3026               	rrcf	i2___fladd@grs,w,c
  6316  0017B2  0901               	iorlw	1
  6317  0017B4  6E26               	movwf	i2___fladd@grs,c
  6318  0017B6  D002               	goto	i2l3291
  6319  0017B8                     i2l3289:
  6320  0017B8  90D8               	bcf	status,0,c
  6321  0017BA  3226               	rrcf	i2___fladd@grs,f,c
  6322  0017BC                     i2l3291:
  6323  0017BC  B017               	btfsc	i2___fladd@b,0,c
  6324  0017BE  8E26               	bsf	i2___fladd@grs,7,c
  6325  0017C0  341A               	rlcf	i2___fladd@b+3,w,c
  6326  0017C2  321A               	rrcf	i2___fladd@b+3,f,c
  6327  0017C4  3219               	rrcf	i2___fladd@b+2,f,c
  6328  0017C6  3218               	rrcf	i2___fladd@b+1,f,c
  6329  0017C8  3217               	rrcf	i2___fladd@b,f,c
  6330  0017CA  2A25               	incf	i2___fladd@bexp,f,c
  6331  0017CC  D05F               	goto	i2u296_40
  6332  0017CE                     i2l3299:
  6333  0017CE  501B               	movf	i2___fladd@a,w,c
  6334  0017D0  5C17               	subwf	i2___fladd@b,w,c
  6335  0017D2  501C               	movf	i2___fladd@a+1,w,c
  6336  0017D4  5818               	subwfb	i2___fladd@b+1,w,c
  6337  0017D6  501D               	movf	i2___fladd@a+2,w,c
  6338  0017D8  5819               	subwfb	i2___fladd@b+2,w,c
  6339  0017DA  501A               	movf	i2___fladd@b+3,w,c
  6340  0017DC  0A80               	xorlw	128
  6341  0017DE  6E1F               	movwf	??i2___fladd& (0+255),c
  6342  0017E0  501E               	movf	i2___fladd@a+3,w,c
  6343  0017E2  0A80               	xorlw	128
  6344  0017E4  581F               	subwfb	??i2___fladd& (0+255),w,c
  6345  0017E6  B0D8               	btfsc	status,0,c
  6346  0017E8  D025               	goto	i2l3309
  6347  0017EA  5017               	movf	i2___fladd@b,w,c
  6348  0017EC  5C1B               	subwf	i2___fladd@a,w,c
  6349  0017EE  6E1F               	movwf	??i2___fladd& (0+255),c
  6350  0017F0  5018               	movf	i2___fladd@b+1,w,c
  6351  0017F2  581C               	subwfb	i2___fladd@a+1,w,c
  6352  0017F4  6E20               	movwf	(??i2___fladd+1)& (0+255),c
  6353  0017F6  5019               	movf	i2___fladd@b+2,w,c
  6354  0017F8  581D               	subwfb	i2___fladd@a+2,w,c
  6355  0017FA  6E21               	movwf	(??i2___fladd+2)& (0+255),c
  6356  0017FC  501A               	movf	i2___fladd@b+3,w,c
  6357  0017FE  581E               	subwfb	i2___fladd@a+3,w,c
  6358  001800  6E22               	movwf	(??i2___fladd+3)& (0+255),c
  6359  001802  0EFF               	movlw	255
  6360  001804  241F               	addwf	??i2___fladd,w,c
  6361  001806  6E17               	movwf	i2___fladd@b,c
  6362  001808  0EFF               	movlw	255
  6363  00180A  2020               	addwfc	??i2___fladd+1,w,c
  6364  00180C  6E18               	movwf	i2___fladd@b+1,c
  6365  00180E  0EFF               	movlw	255
  6366  001810  2021               	addwfc	??i2___fladd+2,w,c
  6367  001812  6E19               	movwf	i2___fladd@b+2,c
  6368  001814  0EFF               	movlw	255
  6369  001816  2022               	addwfc	??i2___fladd+3,w,c
  6370  001818  6E1A               	movwf	i2___fladd@b+3,c
  6371  00181A  0E80               	movlw	128
  6372  00181C  1A23               	xorwf	i2___fladd@signs,f,c
  6373  00181E  6C26               	negf	i2___fladd@grs,c
  6374  001820  5026               	movf	i2___fladd@grs,w,c
  6375  001822  A4D8               	btfss	status,2,c
  6376  001824  D00F               	goto	i2l893
  6377  001826  0E01               	movlw	1
  6378  001828  2617               	addwf	i2___fladd@b,f,c
  6379  00182A  0E00               	movlw	0
  6380  00182C  2218               	addwfc	i2___fladd@b+1,f,c
  6381  00182E  2219               	addwfc	i2___fladd@b+2,f,c
  6382  001830  221A               	addwfc	i2___fladd@b+3,f,c
  6383  001832  D008               	goto	i2l893
  6384  001834                     i2l3309:
  6385  001834  501B               	movf	i2___fladd@a,w,c
  6386  001836  5E17               	subwf	i2___fladd@b,f,c
  6387  001838  501C               	movf	i2___fladd@a+1,w,c
  6388  00183A  5A18               	subwfb	i2___fladd@b+1,f,c
  6389  00183C  501D               	movf	i2___fladd@a+2,w,c
  6390  00183E  5A19               	subwfb	i2___fladd@b+2,f,c
  6391  001840  501E               	movf	i2___fladd@a+3,w,c
  6392  001842  5A1A               	subwfb	i2___fladd@b+3,f,c
  6393  001844                     i2l893:
  6394  001844  5017               	movf	i2___fladd@b,w,c
  6395  001846  1018               	iorwf	i2___fladd@b+1,w,c
  6396  001848  1019               	iorwf	i2___fladd@b+2,w,c
  6397  00184A  101A               	iorwf	i2___fladd@b+3,w,c
  6398  00184C  A4D8               	btfss	status,2,c
  6399  00184E  D01C               	goto	i2l3333
  6400  001850  5026               	movf	i2___fladd@grs,w,c
  6401  001852  A4D8               	btfss	status,2,c
  6402  001854  D019               	goto	i2l3333
  6403  001856  0E00               	movlw	0
  6404  001858  6E17               	movwf	?i2___fladd,c
  6405  00185A  0E00               	movlw	0
  6406  00185C  6E18               	movwf	?i2___fladd+1,c
  6407  00185E  0E00               	movlw	0
  6408  001860  6E19               	movwf	?i2___fladd+2,c
  6409  001862  0E00               	movlw	0
  6410  001864  6E1A               	movwf	?i2___fladd+3,c
  6411  001866  0012               	return	
  6412  001868                     i2l3317:
  6413  001868  90D8               	bcf	status,0,c
  6414  00186A  3617               	rlcf	i2___fladd@b,f,c
  6415  00186C  3618               	rlcf	i2___fladd@b+1,f,c
  6416  00186E  3619               	rlcf	i2___fladd@b+2,f,c
  6417  001870  361A               	rlcf	i2___fladd@b+3,f,c
  6418  001872  BE26               	btfsc	i2___fladd@grs,7,c
  6419  001874  8017               	bsf	i2___fladd@b,0,c
  6420  001876  A026               	btfss	i2___fladd@grs,0,c
  6421  001878  D002               	goto	i2l3327
  6422  00187A  80D8               	bsf	status,0,c
  6423  00187C  D001               	goto	L15
  6424  00187E                     i2l3327:
  6425  00187E  90D8               	bcf	status,0,c
  6426  001880                     L15:
  6427  001880  3626               	rlcf	i2___fladd@grs,f,c
  6428  001882  5025               	movf	i2___fladd@bexp,w,c
  6429  001884  A4D8               	btfss	status,2,c
  6430  001886  0625               	decf	i2___fladd@bexp,f,c
  6431  001888                     i2l3333:
  6432  001888  AE19               	btfss	i2___fladd@b+2,7,c
  6433  00188A  D7EE               	goto	i2l3317
  6434  00188C                     i2u296_40:
  6435  00188C  0E00               	movlw	0
  6436  00188E  6E24               	movwf	i2___fladd@aexp,c
  6437  001890  AE26               	btfss	i2___fladd@grs,7,c
  6438  001892  D00B               	goto	i2l902
  6439  001894  C026  F01F         	movff	i2___fladd@grs,??i2___fladd
  6440  001898  0E7F               	movlw	127
  6441  00189A  161F               	andwf	??i2___fladd,f,c
  6442  00189C  B4D8               	btfsc	status,2,c
  6443  00189E  D003               	goto	i2l903
  6444  0018A0                     i2u298_40:
  6445  0018A0  0E01               	movlw	1
  6446  0018A2  6E24               	movwf	i2___fladd@aexp,c
  6447  0018A4  D002               	goto	i2l902
  6448  0018A6                     i2l903:
  6449  0018A6  B017               	btfsc	i2___fladd@b,0,c
  6450  0018A8  D7FB               	goto	i2u298_40
  6451  0018AA                     i2l902:
  6452  0018AA  5024               	movf	i2___fladd@aexp,w,c
  6453  0018AC  B4D8               	btfsc	status,2,c
  6454  0018AE  D020               	goto	i2l3353
  6455  0018B0  0E01               	movlw	1
  6456  0018B2  2617               	addwf	i2___fladd@b,f,c
  6457  0018B4  0E00               	movlw	0
  6458  0018B6  2218               	addwfc	i2___fladd@b+1,f,c
  6459  0018B8  2219               	addwfc	i2___fladd@b+2,f,c
  6460  0018BA  221A               	addwfc	i2___fladd@b+3,f,c
  6461  0018BC  A01A               	btfss	i2___fladd@b+3,0,c
  6462  0018BE  D018               	goto	i2l3353
  6463  0018C0  C017  F01F         	movff	i2___fladd@b,??i2___fladd
  6464  0018C4  C018  F020         	movff	i2___fladd@b+1,??i2___fladd+1
  6465  0018C8  C019  F021         	movff	i2___fladd@b+2,??i2___fladd+2
  6466  0018CC  C01A  F022         	movff	i2___fladd@b+3,??i2___fladd+3
  6467  0018D0  3422               	rlcf	??i2___fladd+3,w,c
  6468  0018D2  3222               	rrcf	??i2___fladd+3,f,c
  6469  0018D4  3221               	rrcf	??i2___fladd+2,f,c
  6470  0018D6  3220               	rrcf	??i2___fladd+1,f,c
  6471  0018D8  321F               	rrcf	??i2___fladd,f,c
  6472  0018DA  C01F  F017         	movff	??i2___fladd,i2___fladd@b
  6473  0018DE  C020  F018         	movff	??i2___fladd+1,i2___fladd@b+1
  6474  0018E2  C021  F019         	movff	??i2___fladd+2,i2___fladd@b+2
  6475  0018E6  C022  F01A         	movff	??i2___fladd+3,i2___fladd@b+3
  6476  0018EA  2825               	incf	i2___fladd@bexp,w,c
  6477  0018EC  A4D8               	btfss	status,2,c
  6478  0018EE  2A25               	incf	i2___fladd@bexp,f,c
  6479  0018F0                     i2l3353:
  6480  0018F0  2825               	incf	i2___fladd@bexp,w,c
  6481  0018F2  B4D8               	btfsc	status,2,c
  6482  0018F4  D003               	goto	i2u304_40
  6483  0018F6  5025               	movf	i2___fladd@bexp,w,c
  6484  0018F8  A4D8               	btfss	status,2,c
  6485  0018FA  D00D               	goto	i2l3361
  6486  0018FC                     i2u304_40:
  6487  0018FC  0E00               	movlw	0
  6488  0018FE  6E17               	movwf	i2___fladd@b,c
  6489  001900  0E00               	movlw	0
  6490  001902  6E18               	movwf	i2___fladd@b+1,c
  6491  001904  0E00               	movlw	0
  6492  001906  6E19               	movwf	i2___fladd@b+2,c
  6493  001908  0E00               	movlw	0
  6494  00190A  6E1A               	movwf	i2___fladd@b+3,c
  6495  00190C  5025               	movf	i2___fladd@bexp,w,c
  6496  00190E  A4D8               	btfss	status,2,c
  6497  001910  D002               	goto	i2l3361
  6498  001912  0E00               	movlw	0
  6499  001914  6E23               	movwf	i2___fladd@signs,c
  6500  001916                     i2l3361:
  6501  001916  A025               	btfss	i2___fladd@bexp,0,c
  6502  001918  D002               	goto	i2l3365
  6503  00191A  8E19               	bsf	i2___fladd@b+2,7,c
  6504  00191C  D001               	goto	i2l3367
  6505  00191E                     i2l3365:
  6506  00191E  9E19               	bcf	i2___fladd@b+2,7,c
  6507  001920                     i2l3367:
  6508  001920  90D8               	bcf	status,0,c
  6509  001922  3025               	rrcf	i2___fladd@bexp,w,c
  6510  001924  6E1A               	movwf	i2___fladd@b+3,c
  6511  001926  BE23               	btfsc	i2___fladd@signs,7,c
  6512  001928  8E1A               	bsf	i2___fladd@b+3,7,c
  6513  00192A  C017  F017         	movff	i2___fladd@b,?i2___fladd
  6514  00192E  C018  F018         	movff	i2___fladd@b+1,?i2___fladd+1
  6515  001932  C019  F019         	movff	i2___fladd@b+2,?i2___fladd+2
  6516  001936  C01A  F01A         	movff	i2___fladd@b+3,?i2___fladd+3
  6517  00193A  0012               	return		;funcret
  6518  00193C                     __end_ofi2___fladd:
  6519                           	opt callstack 0
  6520                           
  6521 ;; *************** function ___awdiv *****************
  6522 ;; Defined at:
  6523 ;;		line 7 in file "C:\Program Files (x86)\Microchip\xc8\v2.05\pic\sources\c99\common\awdiv.c"
  6524 ;; Parameters:    Size  Location     Type
  6525 ;;  dividend        2    0[COMRAM] int 
  6526 ;;  divisor         2    2[COMRAM] int 
  6527 ;; Auto vars:     Size  Location     Type
  6528 ;;  quotient        2    6[COMRAM] int 
  6529 ;;  sign            1    5[COMRAM] unsigned char 
  6530 ;;  counter         1    4[COMRAM] unsigned char 
  6531 ;; Return value:  Size  Location     Type
  6532 ;;                  2    0[COMRAM] int 
  6533 ;; Registers used:
  6534 ;;		wreg, status,2, status,0
  6535 ;; Tracked objects:
  6536 ;;		On entry : 0/0
  6537 ;;		On exit  : 0/0
  6538 ;;		Unchanged: 0/0
  6539 ;; Data sizes:     COMRAM   BANK0   BANK1   BANK2   BANK3   BANK4   BANK5   BANK6   BANK7   BANK8   BANK9  BANK10  BANK1
      +1  BANK12  BANK13  BANK14
  6540 ;;      Params:         4       0       0       0       0       0       0       0       0       0       0       0       
      +0       0       0       0
  6541 ;;      Locals:         4       0       0       0       0       0       0       0       0       0       0       0       
      +0       0       0       0
  6542 ;;      Temps:          0       0       0       0       0       0       0       0       0       0       0       0       
      +0       0       0       0
  6543 ;;      Totals:         8       0       0       0       0       0       0       0       0       0       0       0       
      +0       0       0       0
  6544 ;;Total ram usage:        8 bytes
  6545 ;; Hardware stack levels used:    1
  6546 ;; This function calls:
  6547 ;;		Nothing
  6548 ;; This function is called by:
  6549 ;;		_rutina
  6550 ;; This function uses a non-reentrant model
  6551 ;;
  6552                           
  6553                           	psect	text34
  6554  0022E8                     __ptext34:
  6555                           	opt callstack 0
  6556  0022E8                     ___awdiv:
  6557                           	opt callstack 26
  6558                           
  6559                           ;incstack = 0
  6560  0022E8  0E00               	movlw	0
  6561  0022EA  6E06               	movwf	___awdiv@sign,c
  6562  0022EC  AE04               	btfss	___awdiv@divisor+1,7,c
  6563  0022EE  D006               	goto	i2l3117
  6564  0022F0  6C03               	negf	___awdiv@divisor,c
  6565  0022F2  1E04               	comf	___awdiv@divisor+1,f,c
  6566  0022F4  B0D8               	btfsc	status,0,c
  6567  0022F6  2A04               	incf	___awdiv@divisor+1,f,c
  6568  0022F8  0E01               	movlw	1
  6569  0022FA  6E06               	movwf	___awdiv@sign,c
  6570  0022FC                     i2l3117:
  6571  0022FC  AE02               	btfss	___awdiv@dividend+1,7,c
  6572  0022FE  D006               	goto	i2l3123
  6573  002300  6C01               	negf	___awdiv@dividend,c
  6574  002302  1E02               	comf	___awdiv@dividend+1,f,c
  6575  002304  B0D8               	btfsc	status,0,c
  6576  002306  2A02               	incf	___awdiv@dividend+1,f,c
  6577  002308  0E01               	movlw	1
  6578  00230A  1A06               	xorwf	___awdiv@sign,f,c
  6579  00230C                     i2l3123:
  6580  00230C  0E00               	movlw	0
  6581  00230E  6E08               	movwf	___awdiv@quotient+1,c
  6582  002310  0E00               	movlw	0
  6583  002312  6E07               	movwf	___awdiv@quotient,c
  6584  002314  5003               	movf	___awdiv@divisor,w,c
  6585  002316  1004               	iorwf	___awdiv@divisor+1,w,c
  6586  002318  B4D8               	btfsc	status,2,c
  6587  00231A  D01C               	goto	i2l3145
  6588  00231C  0E01               	movlw	1
  6589  00231E  6E05               	movwf	___awdiv@counter,c
  6590  002320  D004               	goto	i2l3131
  6591  002322                     i2l3129:
  6592  002322  90D8               	bcf	status,0,c
  6593  002324  3603               	rlcf	___awdiv@divisor,f,c
  6594  002326  3604               	rlcf	___awdiv@divisor+1,f,c
  6595  002328  2A05               	incf	___awdiv@counter,f,c
  6596  00232A                     i2l3131:
  6597  00232A  AE04               	btfss	___awdiv@divisor+1,7,c
  6598  00232C  D7FA               	goto	i2l3129
  6599  00232E                     i2u261_40:
  6600  00232E  90D8               	bcf	status,0,c
  6601  002330  3607               	rlcf	___awdiv@quotient,f,c
  6602  002332  3608               	rlcf	___awdiv@quotient+1,f,c
  6603  002334  5003               	movf	___awdiv@divisor,w,c
  6604  002336  5C01               	subwf	___awdiv@dividend,w,c
  6605  002338  5004               	movf	___awdiv@divisor+1,w,c
  6606  00233A  5802               	subwfb	___awdiv@dividend+1,w,c
  6607  00233C  A0D8               	btfss	status,0,c
  6608  00233E  D005               	goto	i2l3141
  6609  002340  5003               	movf	___awdiv@divisor,w,c
  6610  002342  5E01               	subwf	___awdiv@dividend,f,c
  6611  002344  5004               	movf	___awdiv@divisor+1,w,c
  6612  002346  5A02               	subwfb	___awdiv@dividend+1,f,c
  6613  002348  8007               	bsf	___awdiv@quotient,0,c
  6614  00234A                     i2l3141:
  6615  00234A  90D8               	bcf	status,0,c
  6616  00234C  3204               	rrcf	___awdiv@divisor+1,f,c
  6617  00234E  3203               	rrcf	___awdiv@divisor,f,c
  6618  002350  2E05               	decfsz	___awdiv@counter,f,c
  6619  002352  D7ED               	goto	i2u261_40
  6620  002354                     i2l3145:
  6621  002354  5006               	movf	___awdiv@sign,w,c
  6622  002356  B4D8               	btfsc	status,2,c
  6623  002358  D004               	goto	i2l3149
  6624  00235A  6C07               	negf	___awdiv@quotient,c
  6625  00235C  1E08               	comf	___awdiv@quotient+1,f,c
  6626  00235E  B0D8               	btfsc	status,0,c
  6627  002360  2A08               	incf	___awdiv@quotient+1,f,c
  6628  002362                     i2l3149:
  6629  002362  C007  F001         	movff	___awdiv@quotient,?___awdiv
  6630  002366  C008  F002         	movff	___awdiv@quotient+1,?___awdiv+1
  6631  00236A  0012               	return		;funcret
  6632  00236C                     __end_of___awdiv:
  6633                           	opt callstack 0
  6634                           
  6635                           	psect	rparam
  6636  0000                     
  6637                           	psect	temp
  6638  000052                     btemp:
  6639                           	opt callstack 0
  6640  000052                     	ds	1
  6641  0000                     int$flags	set	btemp
  6642  0000                     wtemp8	set	btemp+1
  6643  0000                     ttemp5	set	btemp+1
  6644  0000                     ttemp6	set	btemp+4
  6645  0000                     ttemp7	set	btemp+8
  6646                           tosu	equ	0xFFF
  6647                           tosh	equ	0xFFE
  6648                           tosl	equ	0xFFD
  6649                           stkptr	equ	0xFFC
  6650                           pclatu	equ	0xFFB
  6651                           pclath	equ	0xFFA
  6652                           pcl	equ	0xFF9
  6653                           tblptru	equ	0xFF8
  6654                           tblptrh	equ	0xFF7
  6655                           tblptrl	equ	0xFF6
  6656                           tablat	equ	0xFF5
  6657                           prodh	equ	0xFF4
  6658                           prodl	equ	0xFF3
  6659                           indf0	equ	0xFEF
  6660                           postinc0	equ	0xFEE
  6661                           postdec0	equ	0xFED
  6662                           preinc0	equ	0xFEC
  6663                           plusw0	equ	0xFEB
  6664                           fsr0h	equ	0xFEA
  6665                           fsr0l	equ	0xFE9
  6666                           wreg	equ	0xFE8
  6667                           indf1	equ	0xFE7
  6668                           postinc1	equ	0xFE6
  6669                           postdec1	equ	0xFE5
  6670                           preinc1	equ	0xFE4
  6671                           plusw1	equ	0xFE3
  6672                           fsr1h	equ	0xFE2
  6673                           fsr1l	equ	0xFE1
  6674                           bsr	equ	0xFE0
  6675                           indf2	equ	0xFDF
  6676                           postinc2	equ	0xFDE
  6677                           postdec2	equ	0xFDD
  6678                           preinc2	equ	0xFDC
  6679                           plusw2	equ	0xFDB
  6680                           fsr2h	equ	0xFDA
  6681                           fsr2l	equ	0xFD9
  6682                           status	equ	0xFD8


Data Sizes:
    Strings     203
    Constant    0
    Data        12
    BSS         60
    Persistent  0
    Stack       0

Auto Spaces:
    Space          Size  Autos    Used
    COMRAM           94     41      81
    BANK0           160     97     129
    BANK1           256      0       0
    BANK2           256      0       0
    BANK3           256      0       0
    BANK4           256      0       0
    BANK5           256      0       0
    BANK6           256      0       0
    BANK7           256      0       0
    BANK8           256      0       0
    BANK9           256      0       0
    BANK10          256      0       0
    BANK11          256      0       0
    BANK12          256      0       0
    BANK13          256      0       0
    BANK14          176      0       0

Pointer List with Targets:

    terminal@comand	PTR unsigned char  size(2) Largest target is 10
		 -> datos(COMRAM[10]), 

    length@text	PTR unsigned char  size(2) Largest target is 29
		 -> STR_10(CODE[7]), STR_9(CODE[27]), STR_8(CODE[21]), STR_7(CODE[20]), 
		 -> STR_6(CODE[23]), STR_5(CODE[22]), STR_4(CODE[29]), STR_3(CODE[21]), 
		 -> STR_2(CODE[24]), STR_1(CODE[9]), 

    enviarRS232@valores	PTR unsigned char  size(2) Largest target is 29
		 -> STR_10(CODE[7]), STR_9(CODE[27]), STR_8(CODE[21]), STR_7(CODE[20]), 
		 -> STR_6(CODE[23]), STR_5(CODE[22]), STR_4(CODE[29]), STR_3(CODE[21]), 
		 -> STR_2(CODE[24]), STR_1(CODE[9]), 


Critical Paths under _main in COMRAM

    None.

Critical Paths under _rutina in COMRAM

    _rutina->i2___fladd
    i2___xxtofl->___awdiv
    i2___fladd->i2___xxtofl

Critical Paths under _main in BANK0

    _main->_terminal
    _terminal->_fijarVelocidad
    _cambiarPWM->_definirVelocidad
    _rutinaEscape->_fijarVelocidad
    _fijarVelocidad->___fladd
    ___fltol->___flmul
    ___flmul->___xxtofl
    ___fladd->___flmul
    _enviarRS232->_length
    _encenderMotor->_definirVelocidad
    _encenderMotor->_rutinaArranque
    _cambiarEstadoFuego->_estadoDirreccion

Critical Paths under _rutina in BANK0

    None.

Critical Paths under _main in BANK1

    None.

Critical Paths under _rutina in BANK1

    None.

Critical Paths under _main in BANK2

    None.

Critical Paths under _rutina in BANK2

    None.

Critical Paths under _main in BANK3

    None.

Critical Paths under _rutina in BANK3

    None.

Critical Paths under _main in BANK4

    None.

Critical Paths under _rutina in BANK4

    None.

Critical Paths under _main in BANK5

    None.

Critical Paths under _rutina in BANK5

    None.

Critical Paths under _main in BANK6

    None.

Critical Paths under _rutina in BANK6

    None.

Critical Paths under _main in BANK7

    None.

Critical Paths under _rutina in BANK7

    None.

Critical Paths under _main in BANK8

    None.

Critical Paths under _rutina in BANK8

    None.

Critical Paths under _main in BANK9

    None.

Critical Paths under _rutina in BANK9

    None.

Critical Paths under _main in BANK10

    None.

Critical Paths under _rutina in BANK10

    None.

Critical Paths under _main in BANK11

    None.

Critical Paths under _rutina in BANK11

    None.

Critical Paths under _main in BANK12

    None.

Critical Paths under _rutina in BANK12

    None.

Critical Paths under _main in BANK13

    None.

Critical Paths under _rutina in BANK13

    None.

Critical Paths under _main in BANK14

    None.

Critical Paths under _rutina in BANK14

    None.

Call Graph Tables:

 ---------------------------------------------------------------------------------
 (Depth) Function   	        Calls       Base Space   Used Autos Params    Refs
 ---------------------------------------------------------------------------------
 (0) _main                                                 2     2      0   19933
                                             95 BANK0      2     2      0
                           _PWMServo
                             ___flge
                 _cambiarEstadoFuego
               _configuracionInicial
                        _enviarRS232
                        _frenarMotor
                       _rutinaEscape
                           _terminal
 ---------------------------------------------------------------------------------
 (1) _terminal                                            31    29      2    8883
                                             64 BANK0     31    29      2
                           _adelante
                              _atras
                         _cambiarPWM
                         _dirreccion
                      _encenderMotor
                        _enviarRS232
                   _estadoDirreccion
                     _fijarVelocidad
                        _frenarMotor
 ---------------------------------------------------------------------------------
 (2) _cambiarPWM                                           0     0      0       0
                   _definirVelocidad
 ---------------------------------------------------------------------------------
 (1) _rutinaEscape                                         3     3      0    8447
                                             64 BANK0      3     3      0
                           _adelante
                              _atras
                         _dirreccion
                      _encenderMotor
                        _enviarRS232
                     _fijarVelocidad
                        _frenarMotor
 ---------------------------------------------------------------------------------
 (2) _fijarVelocidad                                       9     9      0    6441
                                             55 BANK0      9     9      0
                            ___fladd
                            ___flmul
                            ___fltol
                           ___xxtofl
 ---------------------------------------------------------------------------------
 (3) ___xxtofl                                            14    10      4     676
                                              0 BANK0     14    10      4
 ---------------------------------------------------------------------------------
 (3) ___fltol                                             10     6      4     305
                                             39 BANK0     10     6      4
                            ___flmul (ARG)
 ---------------------------------------------------------------------------------
 (3) ___flmul                                             25    17      8    2873
                                             14 BANK0     25    17      8
                           ___xxtofl (ARG)
 ---------------------------------------------------------------------------------
 (3) ___fladd                                             16     8      8    2488
                                             39 BANK0     16     8      8
                            ___flmul (ARG)
                           ___xxtofl (ARG)
 ---------------------------------------------------------------------------------
 (2) _enviarRS232                                          7     5      2    1327
                                              8 BANK0      7     5      2
                             _length
 ---------------------------------------------------------------------------------
 (3) _length                                               8     6      2     263
                                              0 BANK0      8     6      2
 ---------------------------------------------------------------------------------
 (2) _encenderMotor                                        0     0      0       0
                   _definirVelocidad
                     _rutinaArranque
 ---------------------------------------------------------------------------------
 (3) _rutinaArranque                                       2     2      0       0
                                              0 BANK0      2     2      0
 ---------------------------------------------------------------------------------
 (3) _definirVelocidad                                     2     2      0       0
                                              0 BANK0      2     2      0
 ---------------------------------------------------------------------------------
 (2) _atras                                                0     0      0       0
 ---------------------------------------------------------------------------------
 (2) _adelante                                             0     0      0       0
 ---------------------------------------------------------------------------------
 (1) _configuracionInicial                                 0     0      0       0
           _configurarInterrupciones
                     _configurarPWM7
                  _configurarPuertos
                    _configurarRS232
               _configurarRS232US100
                     _configurarTMR4
                     _configurarTMR5
                     _configurarTMR8
 ---------------------------------------------------------------------------------
 (2) _configurarTMR8                                       0     0      0       0
 ---------------------------------------------------------------------------------
 (2) _configurarTMR5                                       0     0      0       0
 ---------------------------------------------------------------------------------
 (2) _configurarTMR4                                       0     0      0       0
 ---------------------------------------------------------------------------------
 (2) _configurarRS232US100                                 0     0      0       0
 ---------------------------------------------------------------------------------
 (2) _configurarRS232                                      0     0      0       0
 ---------------------------------------------------------------------------------
 (2) _configurarPuertos                                    0     0      0       0
 ---------------------------------------------------------------------------------
 (2) _configurarPWM7                                       0     0      0       0
 ---------------------------------------------------------------------------------
 (2) _configurarInterrupciones                             0     0      0       0
 ---------------------------------------------------------------------------------
 (1) _cambiarEstadoFuego                                   4     4      0     830
                                              7 BANK0      4     4      0
                         _dirreccion
                   _estadoDirreccion
                        _frenarMotor
 ---------------------------------------------------------------------------------
 (2) _frenarMotor                                          0     0      0       0
 ---------------------------------------------------------------------------------
 (2) _estadoDirreccion                                     7     5      2     145
                                              0 BANK0      7     5      2
 ---------------------------------------------------------------------------------
 (2) _dirreccion                                           5     3      2     648
                                              0 BANK0      5     3      2
 ---------------------------------------------------------------------------------
 (1) ___flge                                              12     4      8     446
                                              0 BANK0     12     4      8
 ---------------------------------------------------------------------------------
 (1) _PWMServo                                             0     0      0       0
 ---------------------------------------------------------------------------------
 Estimated maximum stack depth 3
 ---------------------------------------------------------------------------------
 (Depth) Function   	        Calls       Base Space   Used Autos Params    Refs
 ---------------------------------------------------------------------------------
 (4) _rutina                                               3     3      0    3059
                                             38 COMRAM     3     3      0
                            ___awdiv
                          i2___fladd
                         i2___xxtofl
 ---------------------------------------------------------------------------------
 (5) i2___xxtofl                                          14    10      4     374
                                              8 COMRAM    14    10      4
                            ___awdiv (ARG)
 ---------------------------------------------------------------------------------
 (5) i2___fladd                                           16     8      8    2036
                                             22 COMRAM    16     8      8
                            ___awdiv (ARG)
                         i2___xxtofl (ARG)
 ---------------------------------------------------------------------------------
 (5) ___awdiv                                              8     4      4     604
                                              0 COMRAM     8     4      4
 ---------------------------------------------------------------------------------
 Estimated maximum stack depth 5
 ---------------------------------------------------------------------------------

 Call Graph Graphs:

 _main (ROOT)
   _PWMServo
   ___flge
   _cambiarEstadoFuego
     _dirreccion
     _estadoDirreccion
     _frenarMotor
   _configuracionInicial
     _configurarInterrupciones
     _configurarPWM7
     _configurarPuertos
     _configurarRS232
     _configurarRS232US100
     _configurarTMR4
     _configurarTMR5
     _configurarTMR8
   _enviarRS232
     _length
   _frenarMotor
   _rutinaEscape
     _adelante
     _atras
     _dirreccion
     _encenderMotor
       _definirVelocidad
       _rutinaArranque
     _enviarRS232
       _length
     _fijarVelocidad
       ___fladd
         ___flmul (ARG)
           ___xxtofl (ARG)
         ___xxtofl (ARG)
       ___flmul
         ___xxtofl (ARG)
       ___fltol
         ___flmul (ARG)
           ___xxtofl (ARG)
       ___xxtofl
     _frenarMotor
   _terminal
     _adelante
     _atras
     _cambiarPWM
       _definirVelocidad
     _dirreccion
     _encenderMotor
       _definirVelocidad
       _rutinaArranque
     _enviarRS232
       _length
     _estadoDirreccion
     _fijarVelocidad
       ___fladd
         ___flmul (ARG)
           ___xxtofl (ARG)
         ___xxtofl (ARG)
       ___flmul
         ___xxtofl (ARG)
       ___fltol
         ___flmul (ARG)
           ___xxtofl (ARG)
       ___xxtofl
     _frenarMotor

 _rutina (ROOT)
   ___awdiv
   i2___fladd
     ___awdiv (ARG)
     i2___xxtofl (ARG)
       ___awdiv (ARG)
   i2___xxtofl
     ___awdiv (ARG)

 Address spaces:
Name               Size   Autos  Total    Cost      Usage
BIGRAM             EAF      0       0      35        0.0%
BITBANK13          100      0       0      31        0.0%
BANK13             100      0       0      32        0.0%
BITBANK12          100      0       0      29        0.0%
BANK12             100      0       0      30        0.0%
BITBANK11          100      0       0      27        0.0%
BANK11             100      0       0      28        0.0%
BITBANK10          100      0       0      25        0.0%
BANK10             100      0       0      26        0.0%
BITBANK9           100      0       0      23        0.0%
BANK9              100      0       0      24        0.0%
BITBANK8           100      0       0      21        0.0%
BANK8              100      0       0      22        0.0%
BITBANK7           100      0       0      19        0.0%
BANK7              100      0       0      20        0.0%
BITBANK6           100      0       0      17        0.0%
BANK6              100      0       0      18        0.0%
BITBANK5           100      0       0      15        0.0%
BANK5              100      0       0      16        0.0%
BITBANK4           100      0       0      13        0.0%
BANK4              100      0       0      14        0.0%
BITBANK3           100      0       0      11        0.0%
BANK3              100      0       0      12        0.0%
BITBANK2           100      0       0       9        0.0%
BANK2              100      0       0      10        0.0%
BITBANK1           100      0       0       7        0.0%
BANK1              100      0       0       8        0.0%
BITBANK14           B0      0       0      33        0.0%
BANK14              B0      0       0      34        0.0%
BITBANK0            A0      0       0       4        0.0%
BANK0               A0     61      81       5       80.6%
BITCOMRAM           5E      0       0       0        0.0%
COMRAM              5E     29      51       1       86.2%
BITSFR_2             0      0       0     200        0.0%
SFR_2                0      0       0     200        0.0%
BITSFR_1             0      0       0     200        0.0%
SFR_1                0      0       0     200        0.0%
BITSFR               0      0       0     200        0.0%
SFR                  0      0       0     200        0.0%
STACK                0      0       0       2        0.0%
NULL                 0      0       0       0        0.0%
ABS                  0      0      D2       6        0.0%
DATA                 0      0      D2       3        0.0%
CODE                 0      0       0       0        0.0%


Microchip Technology PIC18 Macro Assembler V2.05 build -831301201 
Symbol Table                                                                                   Fri Jul 05 14:31:41 2019

                     ___awdiv@sign 0006                       __CFG_CP0$OFF 000000  
                    terminal@texto 00A7                                l311 22B6  
                              l320 2536                                l284 1D1C  
                              l613 2024                                l299 23E4  
                              l902 159E                                l903 159A  
                              l962 1050                                l971 1268  
                              l972 1264                                l893 1538  
                              l877 1466                                l878 1444  
                              l979 12EE                                _PR2 000FCB  
                      i2___fladd@a 001B                        i2___fladd@b 0017  
                  ?_configurarTMR4 0001                    ?_configurarTMR5 0001  
                  ?_configurarPWM7 0001                    ?_configurarTMR8 0001  
                   terminal@degree 00BD                         i2___xxtofl 1D64  
                   terminal@comand 00A0                   ??_fijarVelocidad 0097  
                              wreg 000FE8                       __CFG_IESO$ON 000000  
                     ___flmul@aexp 007B                       ___flmul@bexp 0080  
                     ___flmul@sign 007A                       ___flmul@temp 0085  
                     ___flmul@prod 0081           __end_of_estadoDirreccion 23EE  
                     ___fltol@exp1 0090                    ??_encenderMotor 0062  
                             l1010 1B9E                               l1003 1B20  
                             l2401 1398                               l2413 13BC  
                             l2405 139C                               l4101 216C  
                             l4031 23A6                               l4023 238E  
                             l4111 2190                               l4025 2394  
                             l4051 227A                               l4035 23B8  
                             l4019 237C                               l2507 155C  
                             l2523 157C                               l2443 13F8  
                             l4115 2196                               l4061 22C4  
                             l4053 2282                               l4141 221E  
                             l4133 21F8                               l4125 21C4  
                             l2517 1572                               l2381 1354  
                             l4215 2540                               l4047 2272  
                             l4039 23C2                               l2551 160A  
                             l2543 15E4                               l2471 148A  
                             l2455 1452                               l2703 2080  
                             l4311 1ACC                               l4233 200E  
                             l4225 1FC4                               l4065 22D6  
                             l4057 228C                               l2481 14B0  
                             l2457 1456                               l2377 1350  
                             l4305 1AB4                               l2555 1612  
                             l2731 20EE                               l2723 20DA  
                             l4163 1C34                               l4229 1FF8  
                             l4149 2236                               l2557 1614  
                             l4085 212A                               l4261 19C8  
                 _maximun_constant 00DB                               l4239 205C  
                             l2479 14AC                               l2719 20CA  
                             l4191 1D10                               l4175 1C64  
                             l3721 24FA                               l2489 14C2  
                             l2737 210A                               l2729 20E2  
                             l4185 1CA8                               l4177 1C80  
                             l4169 1C4C                               l4281 1A4A  
                             l4273 1A1A                               l3715 24D6  
                             l2499 1528                               l3811 122E  
                             l4179 1C9C                               l4195 1D1E  
                             l3805 1210                               l3831 12AC  
                             l3735 0FFC                               l3753 103C  
                             l3737 1000                               l4297 1A8A  
                             l4289 1A70                               l3835 12CA  
                             l3763 106E                               l3755 1040  
                             l3739 1010                               l3847 130C  
                             l3871 1B86                               l3865 1B4E  
                             l3867 1B54                               l3859 1B30  
                             l3877 1BC4                               l3869 1B60  
                             l3895 1C10                               l3879 1BD0  
               __CFG_WPFP$PAGE_127 000000                               l3995 243E  
                             l3989 240A                               STR_1 0FBC  
                             STR_2 0F39                               STR_3 0F93  
                             STR_4 0F01                               STR_5 0F68  
                   _contador_datos 003E                               STR_6 0F51  
                             STR_7 0FA8                               STR_8 0F7E  
                             STR_9 0F1E                               u2000 1580  
                             u2020 1594                               u2310 206E  
                             u2080 15F0                               u2320 209E  
                             u2325 2094                               u4007 19AA  
                             u2360 20F4                               u4017 2430  
                             u4027 25B0                               u1820 141A  
                             u1830 142A                               u3510 105C  
                             u1840 142C                               u3600 12BA  
                             u3520 11D2                               u3610 12D8  
                             u3525 11C8                               u1870 146E  
                             u3560 125E                               u3801 1C28  
                             u3690 1BDA                               u3987 195A  
                             u3997 1982                       ?_frenarMotor 0001  
                             _TMR2 000FCC                               _TMR4 000F78  
                             _TMR8 000F1D                   ?_configurarRS232 0001  
                     ?_enviarRS232 0068                      __CFG_FCMEN$ON 000000  
                             _main 193C                               fsr2h 000FDA  
                             indf2 000FDF                               fsr1l 000FE1  
                             fsr2l 000FD9                               btemp 0052  
                             prodh 000FF4                               prodl 000FF3  
                             start 01D2                       ___param_bank 000000  
            __size_of_rutinaEscape 00A0                      __CFG_PLLDIV$3 000000  
                     _BAUDCON1bits 000F7E                       _BAUDCON2bits 000F7C  
                    ___fltol@sign1 008F                    __end_of___fladd 1630  
                            ?_main 0001                    __end_of___awdiv 236C  
                            STR_10 0FC5                    __end_of___flmul 1322  
                  __end_of___fltol 211C                    ___awdiv@divisor 0003  
                            _T2CON 000FCA                              _T5CON 000F22  
                            i2l231 0072                              i2l241 00FC  
                            i2l234 00A4                              i2l243 01AE  
                            i2l227 0042                              i2l238 00EE  
                            i2l249 01C6                              i2l902 18AA  
                            i2l903 18A6                    ___awdiv@counter 0005  
                            i2l893 1844                              i2l877 1772  
                            i2l878 1750                              _TMR5H 000F24  
                            _TMR5L 000F23                      i2___fladd@grs 0026  
                            _datos 0042                              _atras 26B4  
                            _parar 003A                     __CFG_CLKOEC$ON 000000  
                            _motor 0041                              tablat 000FF5  
                 __end_of_PWMServo 255A                              ttemp5 0053  
                            ttemp6 0056                              ttemp7 005A  
                            status 000FD8                              wtemp8 0053  
                 _servo_dirreccion 003F                   terminal@medicion 00BB  
        enviarRS232@longitud_texto 006C                 __size_ofi2___fladd 030C  
                     _rutinaEscape 211C            __CFG_DSWDTOSC$INTOSCREF 000000  
                  __initialization 2452                       __end_of_main 1ADE  
                ?_definirVelocidad 0001                 ??_definirVelocidad 0060  
                   __CFG_OSC$HSPLL 000000                             ??_main 00BF  
                    __activetblptr 000003                   dirreccion@degree 0060  
                      ?i2___xxtofl 0009                             ?_atras 0001  
                           _CCPR7L 000F0A                             _ANCON0 000F48  
                           _ANCON1 000F49                   ___awdiv@dividend 0001  
                           i2l1010 1E20                             i2l1003 1DA2  
                           i2l3131 232A                             i2l3123 230C  
                           i2l3211 16A4                             i2l3141 234A  
                           i2l3117 22FC                             i2l3223 16C8  
                           i2l3215 16A8                             i2l3129 2322  
                           i2l3145 2354                             i2l3401 1E46  
                           i2l3403 1E52                             i2l3149 2362  
                           i2l3317 1868                             i2l3333 1888  
                           i2l3309 1834                             i2l3253 1704  
                   __CFG_WDTEN$OFF 000000                             i2l3327 187E  
                           i2l3191 1660                             i2l3431 002E  
                           i2l3361 1916                             i2l3353 18F0  
                           i2l3281 1796                             i2l3265 175E  
                           i2l3291 17BC                             i2l3267 1762  
                           i2l3187 165C                             i2l3419 1E92  
                           i2l3365 191E                             i2l3367 1920  
                           i2l3391 1DD6                             i2l3383 1DB2  
                           i2l3289 17B8                             i2l3393 1DE2  
                           i2l3299 17CE                             i2l3395 1E08  
                           i2l3483 0170                             i2l3389 1DD0  
                           _RCREG1 000FAF                             _RCREG2 000FAA  
                 __end_of_adelante 26D0                             _RCSTA1 000FAC  
                           _RCSTA2 000F9C                             _SPBRG1 000FB0  
                           _SPBRG2 000FAB                             _PPSCON 000EBF  
                           _RPINR1 000EE1                             _RPOR23 000ED7  
                   __CFG_WPCFG$OFF 000000                             _TXREG1 000FAE  
                           _TXREG2 000FA9                   __end_of___xxtofl 1C22  
                           _TXSTA1 000FAD                             _TXSTA2 000FA8  
                   __CFG_WPDIS$OFF 000000                   _contador_timer_5 0038  
                   i2___fladd@aexp 0024                     i2___fladd@bexp 0025  
                   __CFG_XINST$OFF 000000                       _CCPTMRS1bits 000F51  
                           ___flge 1F8E                          ??___fladd 008F  
                _tiempo_anterior_1 004C                          ??___awdiv 0005  
                   __CFG_STVREN$ON 000000                          ??___flmul 0076  
                        ??___fltol 008B      __size_of_configuracionInicial 0022  
                           _estado 003C                             _length 24B4  
                           clear_0 2498                             clear_1 24A4  
                 ___awdiv@quotient 0007                             _rutina 0008  
                _configurarPuertos 2694                       __pdataCOMRAM 004C  
                __end_ofi2___fladd 193C                 ?_configurarPuertos 0001  
                     __mediumconst 0000                   __end_of_terminal 1D64  
                           tblptrh 000FF7                             tblptrl 000FF6  
                           tblptru 000FF8                   rutinaEscape@type 00A2  
              ??_configurarPuertos 0060                         ___flge@ff1 0060  
                       ___flge@ff2 0064               __CFG_LS48MHZ$SYS48X8 000000  
                     ___xxtofl@arg 006A                       ___xxtofl@exp 0069  
                     ___xxtofl@val 0060       __end_of_configurarRS232US100 2604  
                       __accesstop 0060            __end_of__initialization 24AA  
             __size_of_frenarMotor 0010           _configurarInterrupciones 2624  
             __size_of_enviarRS232 0064                      ___rparam_used 000001  
                       ___fltol@f1 0087                       enviarRS232@i 006E  
       __end_of_cambiarEstadoFuego 225A                    __CFG_IOL1WAY$ON 000000  
             __CFG_WPEND$PAGE_WPFP 000000                __size_ofi2___xxtofl 0140  
                   __pcstackCOMRAM 0001                       __pidataBANK0 26F0  
                    __end_of_atras 26C2                   ??_configurarTMR4 0060  
                 ??_configurarTMR5 0060                   ??_configurarPWM7 0060  
                 ??_configurarTMR8 0060          __end_of_configurarPuertos 26A4  
                  __CFG_DSWDTPS$G2 000000                          ?_PWMServo 0001  
                       _cambiarPWM 26DE                            ??_atras 0060  
     _cambiar_estado_rutina_escape 00D5                  ?_estadoDirreccion 0060  
          __size_of_rutinaArranque 002C                         __pbssBANK0 00C1  
               ??_estadoDirreccion 0062                            ?___flge 0060  
                          ?_length 0060                         ??_PWMServo 0060  
                          ?_rutina 0001                          ?_adelante 0001  
                        ?___xxtofl 0060                         _dirreccion 225A  
                          _RPINR16 000EF7                      _bandera_fuego 00DA  
                 fijarVelocidad@DC 0097                      _bandera_servo 00D8  
            __end_of_encenderMotor 2684                   __CFG_CFGPLLEN$ON 000000  
                  i2___fladd@signs 0023                            __Hparam 0000  
                          __Lparam 0000           __size_of_configurarRS232 0018  
                        ?_terminal 00A0                    __size_of___flge 00D2  
                          ___fladd 1322                            ___awdiv 22E8  
                          ___flmul 0FCE                            ___fltol 2060  
                     __psmallconst 0F00                            _bandera 00D9  
       __size_of_configurarPuertos 0010                            __pcinit 2452  
                  __size_of_length 0056                            __ramtop 0F00  
           estadoDirreccion@angulo 0064                            __ptext0 193C  
                          __ptext1 1C22                            __ptext2 26DE  
                          __ptext3 211C                            __ptext4 1EA4  
                          __ptext5 1ADE                            __ptext6 2060  
                          __ptext7 0FCE                            __ptext8 1322  
                          __ptext9 23EE               _configurarRS232US100 25E2  
                       ??_adelante 0060                    __size_of_rutina 01CA  
                        _T2CONbits 000FCA                       ??i2___xxtofl 000D  
                       ??___xxtofl 0064                          _T4CONbits 000F76  
                      ?_cambiarPWM 0001                          _T5CONbits 000F22  
        __size_of_definirVelocidad 003A                     length@longitud 0064  
                        _T8CONbits 000F1B               end_of_initialization 24AA  
                          length@i 0067            __size_of_fijarVelocidad 00EA  
                   i2___xxtofl@arg 0013                     i2___xxtofl@exp 0012  
                   i2___xxtofl@val 0009                 __end_ofi2___xxtofl 1EA4  
                       ??_terminal 00A2                            postdec1 000FE5  
                          postinc0 000FEE                            postinc2 000FDE  
            ?_configurarRS232US100 0001                          _PORTAbits 000F80  
                        _PORTDbits 000F83                   __CFG_DSBOREN$OFF 000000  
                      ___fladd@grs 0096                   __CFG_CPUDIV$OSC1 000000  
                    ___xxtofl@sign 0068                          _TRISAbits 000F92  
                        _TRISBbits 000F93                          _TRISCbits 000F94  
                        _TRISDbits 000F95                        ?_dirreccion 0060  
       ??_configurarInterrupciones 0060       __end_of_configuracionInicial 25E2  
                        i2___fladd 1630                  __CFG_SOSCSEL$HIGH 000000  
                   _rutinaArranque 2594                        ___flmul@grs 007C  
                      _CCP7CONbits 000F09                __CFG_MSSP7B_EN$MSK7 000000  
              __size_of_cambiarPWM 000C                     __end_of___flge 2060  
                    __pidataCOMRAM 26EA                  ??_configurarRS232 0060  
                   __end_of_length 250A                 _cambiarEstadoFuego 21BC  
                 __CFG_DSWDTEN$OFF 000000                     __end_of_rutina 01D2  
              start_initialization 2452                  __size_of_PWMServo 0050  
           __end_of_rutinaArranque 25C0                ?_cambiarEstadoFuego 0001  
                       ?i2___fladd 0017                      ??_frenarMotor 0060  
                    ??_enviarRS232 006A                         length@dato 0066  
                       length@text 0060               ??_cambiarEstadoFuego 0067  
                         ??___flge 0068                __size_of_dirreccion 008E  
        __size_of_estadoDirreccion 0082                  __CFG_ADCSEL$BIT12 000000  
                      __pdataBANK0 00DB             ??_configurarRS232US100 0060  
                         ??_length 0062                           ??_rutina 0027  
                        ___fladd@a 008B                          ___fladd@b 0087  
                        ___flmul@a 0072                          ___flmul@b 006E  
                      __pbssCOMRAM 002A                  __size_of_adelante 000E  
                    __pcstackBANK0 0060                    ?_rutinaArranque 0001  
                 _definirVelocidad 255A                  __size_of___xxtofl 0144  
                   _fijarVelocidad 1EA4                      ?_rutinaEscape 0001  
              __end_of_frenarMotor 26B4                __end_of_enviarRS232 2452  
               enviarRS232@valores 0068                          __pintcode 0008  
                         ?___fladd 0087                           ?___awdiv 0001  
                         ?___flmul 006E                           ?___fltol 0087  
             _configuracionInicial 25C0                 dirreccion@tiempo_1 0064  
                __size_of_terminal 0142                          _distancia 0032  
                      __smallconst 0F00                          _indicador 0040  
             __CFG_RTCOSC$T1OSCREF 000000                       ??_cambiarPWM 0062  
 __end_of_configurarInterrupciones 2644            __size_of_configurarTMR4 000E  
          __size_of_configurarPWM7 0020            __size_of_configurarTMR5 0016  
          __size_of_configurarTMR8 0010                        ??i2___fladd 001F  
                   __size_of_atras 000E             __end_of_fijarVelocidad 1F8E  
            estadoDirreccion@valor 0066                          _obstaculo 00D7  
               _contador_distancia 0036                     ??_rutinaEscape 00A0  
                         _PIE1bits 000F9D                           _PIE3bits 000FA3  
                         _PIE5bits 000F91                           i2u304_40 18FC  
                         i2u321_41 0060                           i2u314_40 1E5C  
                         i2u323_41 008C                           i2u261_40 232E  
                         i2u326_41 00D4                           i2u280_40 1738  
                         _PIR1bits 000F9E                           i2u283_40 177A  
                         _PIR3bits 000FA4                           i2u278_40 1726  
                         i2u279_40 1736                           i2u296_40 188C  
                         _PIR5bits 000F98                           i2u298_40 18A0  
                 __CFG_WDTPS$32768 000000              ?_configuracionInicial 0001  
                         _TIME_MAX 004E                 __end_of_cambiarPWM 26EA  
                        _velocidad 00DF             __size_of_encenderMotor 0012  
                         _PWMServo 250A                       ??_dirreccion 0062  
                      _INTCON2bits 000FF1                        _INTCON3bits 000FF0  
                        copy_data0 2466                          copy_data1 2486  
                  ?_fijarVelocidad 0001                        _frenarMotor 26A4  
                      _enviarRS232 23EE                    _configurarRS232 2644  
                         __Hrparam 0000                           __Lrparam 0000  
                 _estadoDirreccion 236C                        _estadoFuego 003D  
               __end_of_dirreccion 22E8                   __size_of___fladd 030E  
                 __size_of___awdiv 0084                   __size_of___flmul 0354  
                 __size_of___fltol 00BC                 _fuego_interrupcion 002E  
                         _adelante 26C2                _fijarVelocidad$1915 009B  
                         _cicle_90 0050                           ___xxtofl 1ADE  
                         __ptext10 24B4                           __ptext11 2672  
                         __ptext20 25E2                           __ptext12 2594  
                         __ptext21 2644                           __ptext13 255A  
                         __ptext30 250A                           __ptext22 2694  
                         __ptext14 26B4                           __ptext23 2604  
                         __ptext15 26C2                           __ptext32 1D64  
                         __ptext24 2624                           __ptext16 25C0  
                         __ptext33 1630                           __ptext25 21BC  
                         __ptext17 2684                           __ptext34 22E8  
                         __ptext26 26A4                           __ptext18 265C  
                         __ptext27 236C                           __ptext19 26D0  
                         __ptext28 225A                           __ptext29 1F8E  
                       rutina@dato 0029                      _encenderMotor 2672  
                    __size_of_main 01A2             ??_configuracionInicial 0060  
__size_of_configurarInterrupciones 0020          ?_configurarInterrupciones 0001  
         __end_of_definirVelocidad 2594                           _terminal 1C22  
                         int$flags 0052                   ??_rutinaArranque 0060  
             __end_of_rutinaEscape 21BC                         _INTCONbits 000FF2  
                   _configurarTMR4 26D0                     _configurarTMR5 265C  
                   _configurarPWM7 2604                     _configurarTMR8 2684  
          __end_of_configurarRS232 265C                           intlevel2 0000  
                _bandera_distancia 00D6                     ?_encenderMotor 0001  
                  i2___xxtofl@sign 0011           cambiarEstadoFuego@angulo 0069  
      __size_of_cambiarEstadoFuego 009E      __size_of_configurarRS232US100 0022  
                       _TIME_FUEGO 002A             __end_of_configurarTMR4 26DE  
           __end_of_configurarPWM7 2624             __end_of_configurarTMR5 2672  
           __end_of_configurarTMR8 2694                      ___fladd@signs 0093  
              fijarVelocidad@speed 009F                       ___fladd@aexp 0094  
                     ___fladd@bexp 0095                      terminal@F7131 00C1  
